	.file	"bench_decaf.cxx"
	.section	.rodata.str1.1,"aMS",@progbits,1
.LC0:
	.string	"CryptoException"
	.section	.text.unlikely._ZNK5decaf15CryptoException4whatEv,"axG",@progbits,_ZNK5decaf15CryptoException4whatEv,comdat
	.align 2
.LCOLDB1:
	.section	.text._ZNK5decaf15CryptoException4whatEv,"axG",@progbits,_ZNK5decaf15CryptoException4whatEv,comdat
.LHOTB1:
	.align 2
	.p2align 4,,15
	.weak	_ZNK5decaf15CryptoException4whatEv
	.hidden	_ZNK5decaf15CryptoException4whatEv
	.type	_ZNK5decaf15CryptoException4whatEv, @function
_ZNK5decaf15CryptoException4whatEv:
.LFB673:
	.cfi_startproc
	leaq	.LC0(%rip), %rax
	ret
	.cfi_endproc
.LFE673:
	.size	_ZNK5decaf15CryptoException4whatEv, .-_ZNK5decaf15CryptoException4whatEv
	.section	.text.unlikely._ZNK5decaf15CryptoException4whatEv,"axG",@progbits,_ZNK5decaf15CryptoException4whatEv,comdat
.LCOLDE1:
	.section	.text._ZNK5decaf15CryptoException4whatEv,"axG",@progbits,_ZNK5decaf15CryptoException4whatEv,comdat
.LHOTE1:
	.section	.rodata.str1.1
.LC2:
	.string	"LengthException"
	.section	.text.unlikely._ZNK5decaf15LengthException4whatEv,"axG",@progbits,_ZNK5decaf15LengthException4whatEv,comdat
	.align 2
.LCOLDB3:
	.section	.text._ZNK5decaf15LengthException4whatEv,"axG",@progbits,_ZNK5decaf15LengthException4whatEv,comdat
.LHOTB3:
	.align 2
	.p2align 4,,15
	.weak	_ZNK5decaf15LengthException4whatEv
	.hidden	_ZNK5decaf15LengthException4whatEv
	.type	_ZNK5decaf15LengthException4whatEv, @function
_ZNK5decaf15LengthException4whatEv:
.LFB674:
	.cfi_startproc
	leaq	.LC2(%rip), %rax
	ret
	.cfi_endproc
.LFE674:
	.size	_ZNK5decaf15LengthException4whatEv, .-_ZNK5decaf15LengthException4whatEv
	.section	.text.unlikely._ZNK5decaf15LengthException4whatEv,"axG",@progbits,_ZNK5decaf15LengthException4whatEv,comdat
.LCOLDE3:
	.section	.text._ZNK5decaf15LengthException4whatEv,"axG",@progbits,_ZNK5decaf15LengthException4whatEv,comdat
.LHOTE3:
	.section	.text.unlikely._ZN5decaf5BlockD2Ev,"axG",@progbits,_ZN5decaf5BlockD5Ev,comdat
	.align 2
.LCOLDB4:
	.section	.text._ZN5decaf5BlockD2Ev,"axG",@progbits,_ZN5decaf5BlockD5Ev,comdat
.LHOTB4:
	.align 2
	.p2align 4,,15
	.weak	_ZN5decaf5BlockD2Ev
	.hidden	_ZN5decaf5BlockD2Ev
	.type	_ZN5decaf5BlockD2Ev, @function
_ZN5decaf5BlockD2Ev:
.LFB706:
	.cfi_startproc
	rep ret
	.cfi_endproc
.LFE706:
	.size	_ZN5decaf5BlockD2Ev, .-_ZN5decaf5BlockD2Ev
	.section	.text.unlikely._ZN5decaf5BlockD2Ev,"axG",@progbits,_ZN5decaf5BlockD5Ev,comdat
.LCOLDE4:
	.section	.text._ZN5decaf5BlockD2Ev,"axG",@progbits,_ZN5decaf5BlockD5Ev,comdat
.LHOTE4:
	.weak	_ZN5decaf5BlockD1Ev
	.hidden	_ZN5decaf5BlockD1Ev
	.set	_ZN5decaf5BlockD1Ev,_ZN5decaf5BlockD2Ev
	.section	.text.unlikely._ZN5decaf6BufferD2Ev,"axG",@progbits,_ZN5decaf6BufferD5Ev,comdat
	.align 2
.LCOLDB5:
	.section	.text._ZN5decaf6BufferD2Ev,"axG",@progbits,_ZN5decaf6BufferD5Ev,comdat
.LHOTB5:
	.align 2
	.p2align 4,,15
	.weak	_ZN5decaf6BufferD2Ev
	.hidden	_ZN5decaf6BufferD2Ev
	.type	_ZN5decaf6BufferD2Ev, @function
_ZN5decaf6BufferD2Ev:
.LFB721:
	.cfi_startproc
	rep ret
	.cfi_endproc
.LFE721:
	.size	_ZN5decaf6BufferD2Ev, .-_ZN5decaf6BufferD2Ev
	.section	.text.unlikely._ZN5decaf6BufferD2Ev,"axG",@progbits,_ZN5decaf6BufferD5Ev,comdat
.LCOLDE5:
	.section	.text._ZN5decaf6BufferD2Ev,"axG",@progbits,_ZN5decaf6BufferD5Ev,comdat
.LHOTE5:
	.weak	_ZN5decaf6BufferD1Ev
	.hidden	_ZN5decaf6BufferD1Ev
	.set	_ZN5decaf6BufferD1Ev,_ZN5decaf6BufferD2Ev
	.section	.rodata.str1.1
.LC6:
	.string	"ProtocolException"
	.section	.text.unlikely._ZNK5decaf17ProtocolException4whatEv,"axG",@progbits,_ZNK5decaf17ProtocolException4whatEv,comdat
	.align 2
.LCOLDB7:
	.section	.text._ZNK5decaf17ProtocolException4whatEv,"axG",@progbits,_ZNK5decaf17ProtocolException4whatEv,comdat
.LHOTB7:
	.align 2
	.p2align 4,,15
	.weak	_ZNK5decaf17ProtocolException4whatEv
	.hidden	_ZNK5decaf17ProtocolException4whatEv
	.type	_ZNK5decaf17ProtocolException4whatEv, @function
_ZNK5decaf17ProtocolException4whatEv:
.LFB936:
	.cfi_startproc
	leaq	.LC6(%rip), %rax
	ret
	.cfi_endproc
.LFE936:
	.size	_ZNK5decaf17ProtocolException4whatEv, .-_ZNK5decaf17ProtocolException4whatEv
	.section	.text.unlikely._ZNK5decaf17ProtocolException4whatEv,"axG",@progbits,_ZNK5decaf17ProtocolException4whatEv,comdat
.LCOLDE7:
	.section	.text._ZNK5decaf17ProtocolException4whatEv,"axG",@progbits,_ZNK5decaf17ProtocolException4whatEv,comdat
.LHOTE7:
	.section	.text.unlikely._ZN5decaf9TmpBufferD2Ev,"axG",@progbits,_ZN5decaf9TmpBufferD5Ev,comdat
	.align 2
.LCOLDB8:
	.section	.text._ZN5decaf9TmpBufferD2Ev,"axG",@progbits,_ZN5decaf9TmpBufferD5Ev,comdat
.LHOTB8:
	.align 2
	.p2align 4,,15
	.weak	_ZN5decaf9TmpBufferD2Ev
	.hidden	_ZN5decaf9TmpBufferD2Ev
	.type	_ZN5decaf9TmpBufferD2Ev, @function
_ZN5decaf9TmpBufferD2Ev:
.LFB1885:
	.cfi_startproc
	rep ret
	.cfi_endproc
.LFE1885:
	.size	_ZN5decaf9TmpBufferD2Ev, .-_ZN5decaf9TmpBufferD2Ev
	.section	.text.unlikely._ZN5decaf9TmpBufferD2Ev,"axG",@progbits,_ZN5decaf9TmpBufferD5Ev,comdat
.LCOLDE8:
	.section	.text._ZN5decaf9TmpBufferD2Ev,"axG",@progbits,_ZN5decaf9TmpBufferD5Ev,comdat
.LHOTE8:
	.weak	_ZN5decaf9TmpBufferD1Ev
	.hidden	_ZN5decaf9TmpBufferD1Ev
	.set	_ZN5decaf9TmpBufferD1Ev,_ZN5decaf9TmpBufferD2Ev
	.section	.text.unlikely._ZN5decaf6BufferD0Ev,"axG",@progbits,_ZN5decaf6BufferD5Ev,comdat
	.align 2
.LCOLDB9:
	.section	.text._ZN5decaf6BufferD0Ev,"axG",@progbits,_ZN5decaf6BufferD5Ev,comdat
.LHOTB9:
	.align 2
	.p2align 4,,15
	.weak	_ZN5decaf6BufferD0Ev
	.hidden	_ZN5decaf6BufferD0Ev
	.type	_ZN5decaf6BufferD0Ev, @function
_ZN5decaf6BufferD0Ev:
.LFB723:
	.cfi_startproc
	jmp	_ZdlPv@PLT
	.cfi_endproc
.LFE723:
	.size	_ZN5decaf6BufferD0Ev, .-_ZN5decaf6BufferD0Ev
	.section	.text.unlikely._ZN5decaf6BufferD0Ev,"axG",@progbits,_ZN5decaf6BufferD5Ev,comdat
.LCOLDE9:
	.section	.text._ZN5decaf6BufferD0Ev,"axG",@progbits,_ZN5decaf6BufferD5Ev,comdat
.LHOTE9:
	.section	.text.unlikely._ZN5decaf5BlockD0Ev,"axG",@progbits,_ZN5decaf5BlockD5Ev,comdat
	.align 2
.LCOLDB10:
	.section	.text._ZN5decaf5BlockD0Ev,"axG",@progbits,_ZN5decaf5BlockD5Ev,comdat
.LHOTB10:
	.align 2
	.p2align 4,,15
	.weak	_ZN5decaf5BlockD0Ev
	.hidden	_ZN5decaf5BlockD0Ev
	.type	_ZN5decaf5BlockD0Ev, @function
_ZN5decaf5BlockD0Ev:
.LFB708:
	.cfi_startproc
	jmp	_ZdlPv@PLT
	.cfi_endproc
.LFE708:
	.size	_ZN5decaf5BlockD0Ev, .-_ZN5decaf5BlockD0Ev
	.section	.text.unlikely._ZN5decaf5BlockD0Ev,"axG",@progbits,_ZN5decaf5BlockD5Ev,comdat
.LCOLDE10:
	.section	.text._ZN5decaf5BlockD0Ev,"axG",@progbits,_ZN5decaf5BlockD5Ev,comdat
.LHOTE10:
	.section	.text.unlikely._ZN5decaf9TmpBufferD0Ev,"axG",@progbits,_ZN5decaf9TmpBufferD5Ev,comdat
	.align 2
.LCOLDB11:
	.section	.text._ZN5decaf9TmpBufferD0Ev,"axG",@progbits,_ZN5decaf9TmpBufferD5Ev,comdat
.LHOTB11:
	.align 2
	.p2align 4,,15
	.weak	_ZN5decaf9TmpBufferD0Ev
	.hidden	_ZN5decaf9TmpBufferD0Ev
	.type	_ZN5decaf9TmpBufferD0Ev, @function
_ZN5decaf9TmpBufferD0Ev:
.LFB1887:
	.cfi_startproc
	jmp	_ZdlPv@PLT
	.cfi_endproc
.LFE1887:
	.size	_ZN5decaf9TmpBufferD0Ev, .-_ZN5decaf9TmpBufferD0Ev
	.section	.text.unlikely._ZN5decaf9TmpBufferD0Ev,"axG",@progbits,_ZN5decaf9TmpBufferD5Ev,comdat
.LCOLDE11:
	.section	.text._ZN5decaf9TmpBufferD0Ev,"axG",@progbits,_ZN5decaf9TmpBufferD5Ev,comdat
.LHOTE11:
	.section	.text.unlikely._ZN5decaf17ProtocolExceptionD2Ev,"axG",@progbits,_ZN5decaf17ProtocolExceptionD5Ev,comdat
	.align 2
.LCOLDB12:
	.section	.text._ZN5decaf17ProtocolExceptionD2Ev,"axG",@progbits,_ZN5decaf17ProtocolExceptionD5Ev,comdat
.LHOTB12:
	.align 2
	.p2align 4,,15
	.weak	_ZN5decaf17ProtocolExceptionD2Ev
	.hidden	_ZN5decaf17ProtocolExceptionD2Ev
	.type	_ZN5decaf17ProtocolExceptionD2Ev, @function
_ZN5decaf17ProtocolExceptionD2Ev:
.LFB1881:
	.cfi_startproc
	leaq	16+_ZTVN5decaf17ProtocolExceptionE(%rip), %rax
	movq	%rax, (%rdi)
	jmp	_ZNSt9exceptionD2Ev@PLT
	.cfi_endproc
.LFE1881:
	.size	_ZN5decaf17ProtocolExceptionD2Ev, .-_ZN5decaf17ProtocolExceptionD2Ev
	.section	.text.unlikely._ZN5decaf17ProtocolExceptionD2Ev,"axG",@progbits,_ZN5decaf17ProtocolExceptionD5Ev,comdat
.LCOLDE12:
	.section	.text._ZN5decaf17ProtocolExceptionD2Ev,"axG",@progbits,_ZN5decaf17ProtocolExceptionD5Ev,comdat
.LHOTE12:
	.weak	_ZN5decaf17ProtocolExceptionD1Ev
	.hidden	_ZN5decaf17ProtocolExceptionD1Ev
	.set	_ZN5decaf17ProtocolExceptionD1Ev,_ZN5decaf17ProtocolExceptionD2Ev
	.section	.text.unlikely._ZN5decaf17ProtocolExceptionD0Ev,"axG",@progbits,_ZN5decaf17ProtocolExceptionD5Ev,comdat
	.align 2
.LCOLDB13:
	.section	.text._ZN5decaf17ProtocolExceptionD0Ev,"axG",@progbits,_ZN5decaf17ProtocolExceptionD5Ev,comdat
.LHOTB13:
	.align 2
	.p2align 4,,15
	.weak	_ZN5decaf17ProtocolExceptionD0Ev
	.hidden	_ZN5decaf17ProtocolExceptionD0Ev
	.type	_ZN5decaf17ProtocolExceptionD0Ev, @function
_ZN5decaf17ProtocolExceptionD0Ev:
.LFB1883:
	.cfi_startproc
	leaq	16+_ZTVN5decaf17ProtocolExceptionE(%rip), %rax
	pushq	%rbx
	.cfi_def_cfa_offset 16
	.cfi_offset 3, -16
	movq	%rdi, %rbx
	movq	%rax, (%rdi)
	call	_ZNSt9exceptionD2Ev@PLT
	movq	%rbx, %rdi
	popq	%rbx
	.cfi_def_cfa_offset 8
	jmp	_ZdlPv@PLT
	.cfi_endproc
.LFE1883:
	.size	_ZN5decaf17ProtocolExceptionD0Ev, .-_ZN5decaf17ProtocolExceptionD0Ev
	.section	.text.unlikely._ZN5decaf17ProtocolExceptionD0Ev,"axG",@progbits,_ZN5decaf17ProtocolExceptionD5Ev,comdat
.LCOLDE13:
	.section	.text._ZN5decaf17ProtocolExceptionD0Ev,"axG",@progbits,_ZN5decaf17ProtocolExceptionD5Ev,comdat
.LHOTE13:
	.section	.text.unlikely._ZN5decaf15LengthExceptionD2Ev,"axG",@progbits,_ZN5decaf15LengthExceptionD5Ev,comdat
	.align 2
.LCOLDB14:
	.section	.text._ZN5decaf15LengthExceptionD2Ev,"axG",@progbits,_ZN5decaf15LengthExceptionD5Ev,comdat
.LHOTB14:
	.align 2
	.p2align 4,,15
	.weak	_ZN5decaf15LengthExceptionD2Ev
	.hidden	_ZN5decaf15LengthExceptionD2Ev
	.type	_ZN5decaf15LengthExceptionD2Ev, @function
_ZN5decaf15LengthExceptionD2Ev:
.LFB1889:
	.cfi_startproc
	leaq	16+_ZTVN5decaf15LengthExceptionE(%rip), %rax
	movq	%rax, (%rdi)
	jmp	_ZNSt9exceptionD2Ev@PLT
	.cfi_endproc
.LFE1889:
	.size	_ZN5decaf15LengthExceptionD2Ev, .-_ZN5decaf15LengthExceptionD2Ev
	.section	.text.unlikely._ZN5decaf15LengthExceptionD2Ev,"axG",@progbits,_ZN5decaf15LengthExceptionD5Ev,comdat
.LCOLDE14:
	.section	.text._ZN5decaf15LengthExceptionD2Ev,"axG",@progbits,_ZN5decaf15LengthExceptionD5Ev,comdat
.LHOTE14:
	.weak	_ZN5decaf15LengthExceptionD1Ev
	.hidden	_ZN5decaf15LengthExceptionD1Ev
	.set	_ZN5decaf15LengthExceptionD1Ev,_ZN5decaf15LengthExceptionD2Ev
	.section	.text.unlikely._ZN5decaf15LengthExceptionD0Ev,"axG",@progbits,_ZN5decaf15LengthExceptionD5Ev,comdat
	.align 2
.LCOLDB15:
	.section	.text._ZN5decaf15LengthExceptionD0Ev,"axG",@progbits,_ZN5decaf15LengthExceptionD5Ev,comdat
.LHOTB15:
	.align 2
	.p2align 4,,15
	.weak	_ZN5decaf15LengthExceptionD0Ev
	.hidden	_ZN5decaf15LengthExceptionD0Ev
	.type	_ZN5decaf15LengthExceptionD0Ev, @function
_ZN5decaf15LengthExceptionD0Ev:
.LFB1891:
	.cfi_startproc
	leaq	16+_ZTVN5decaf15LengthExceptionE(%rip), %rax
	pushq	%rbx
	.cfi_def_cfa_offset 16
	.cfi_offset 3, -16
	movq	%rdi, %rbx
	movq	%rax, (%rdi)
	call	_ZNSt9exceptionD2Ev@PLT
	movq	%rbx, %rdi
	popq	%rbx
	.cfi_def_cfa_offset 8
	jmp	_ZdlPv@PLT
	.cfi_endproc
.LFE1891:
	.size	_ZN5decaf15LengthExceptionD0Ev, .-_ZN5decaf15LengthExceptionD0Ev
	.section	.text.unlikely._ZN5decaf15LengthExceptionD0Ev,"axG",@progbits,_ZN5decaf15LengthExceptionD5Ev,comdat
.LCOLDE15:
	.section	.text._ZN5decaf15LengthExceptionD0Ev,"axG",@progbits,_ZN5decaf15LengthExceptionD5Ev,comdat
.LHOTE15:
	.section	.text.unlikely._ZN5decaf15CryptoExceptionD2Ev,"axG",@progbits,_ZN5decaf15CryptoExceptionD5Ev,comdat
	.align 2
.LCOLDB16:
	.section	.text._ZN5decaf15CryptoExceptionD2Ev,"axG",@progbits,_ZN5decaf15CryptoExceptionD5Ev,comdat
.LHOTB16:
	.align 2
	.p2align 4,,15
	.weak	_ZN5decaf15CryptoExceptionD2Ev
	.hidden	_ZN5decaf15CryptoExceptionD2Ev
	.type	_ZN5decaf15CryptoExceptionD2Ev, @function
_ZN5decaf15CryptoExceptionD2Ev:
.LFB1893:
	.cfi_startproc
	leaq	16+_ZTVN5decaf15CryptoExceptionE(%rip), %rax
	movq	%rax, (%rdi)
	jmp	_ZNSt9exceptionD2Ev@PLT
	.cfi_endproc
.LFE1893:
	.size	_ZN5decaf15CryptoExceptionD2Ev, .-_ZN5decaf15CryptoExceptionD2Ev
	.section	.text.unlikely._ZN5decaf15CryptoExceptionD2Ev,"axG",@progbits,_ZN5decaf15CryptoExceptionD5Ev,comdat
.LCOLDE16:
	.section	.text._ZN5decaf15CryptoExceptionD2Ev,"axG",@progbits,_ZN5decaf15CryptoExceptionD5Ev,comdat
.LHOTE16:
	.weak	_ZN5decaf15CryptoExceptionD1Ev
	.hidden	_ZN5decaf15CryptoExceptionD1Ev
	.set	_ZN5decaf15CryptoExceptionD1Ev,_ZN5decaf15CryptoExceptionD2Ev
	.section	.text.unlikely._ZN5decaf15CryptoExceptionD0Ev,"axG",@progbits,_ZN5decaf15CryptoExceptionD5Ev,comdat
	.align 2
.LCOLDB17:
	.section	.text._ZN5decaf15CryptoExceptionD0Ev,"axG",@progbits,_ZN5decaf15CryptoExceptionD5Ev,comdat
.LHOTB17:
	.align 2
	.p2align 4,,15
	.weak	_ZN5decaf15CryptoExceptionD0Ev
	.hidden	_ZN5decaf15CryptoExceptionD0Ev
	.type	_ZN5decaf15CryptoExceptionD0Ev, @function
_ZN5decaf15CryptoExceptionD0Ev:
.LFB1895:
	.cfi_startproc
	leaq	16+_ZTVN5decaf15CryptoExceptionE(%rip), %rax
	pushq	%rbx
	.cfi_def_cfa_offset 16
	.cfi_offset 3, -16
	movq	%rdi, %rbx
	movq	%rax, (%rdi)
	call	_ZNSt9exceptionD2Ev@PLT
	movq	%rbx, %rdi
	popq	%rbx
	.cfi_def_cfa_offset 8
	jmp	_ZdlPv@PLT
	.cfi_endproc
.LFE1895:
	.size	_ZN5decaf15CryptoExceptionD0Ev, .-_ZN5decaf15CryptoExceptionD0Ev
	.section	.text.unlikely._ZN5decaf15CryptoExceptionD0Ev,"axG",@progbits,_ZN5decaf15CryptoExceptionD5Ev,comdat
.LCOLDE17:
	.section	.text._ZN5decaf15CryptoExceptionD0Ev,"axG",@progbits,_ZN5decaf15CryptoExceptionD5Ev,comdat
.LHOTE17:
	.section	.text.unlikely._ZN5decaf12SecureBuffer5clearEv.isra.9,"ax",@progbits
	.align 2
.LCOLDB18:
	.section	.text._ZN5decaf12SecureBuffer5clearEv.isra.9,"ax",@progbits
.LHOTB18:
	.align 2
	.p2align 4,,15
	.type	_ZN5decaf12SecureBuffer5clearEv.isra.9, @function
_ZN5decaf12SecureBuffer5clearEv.isra.9:
.LFB1905:
	.cfi_startproc
	.cfi_personality 0x9b,DW.ref.__gxx_personality_v0
	.cfi_lsda 0x1b,.LLSDA1905
	movq	%rdi, %rax
	movq	(%rdi), %rdi
	testq	%rdi, %rdi
	je	.L34
	pushq	%rbp
	.cfi_def_cfa_offset 16
	.cfi_offset 6, -16
	pushq	%rbx
	.cfi_def_cfa_offset 24
	.cfi_offset 3, -24
	movq	%rsi, %rbp
	movq	%rax, %rbx
	subq	$8, %rsp
	.cfi_def_cfa_offset 32
	movq	(%rsi), %rsi
.LEHB0:
	call	decaf_bzero@PLT
.LEHE0:
	movq	(%rbx), %rdi
	testq	%rdi, %rdi
	je	.L21
	call	_ZdaPv@PLT
.L21:
	movq	$0, (%rbx)
	movq	$0, 0(%rbp)
	addq	$8, %rsp
	.cfi_def_cfa_offset 24
	popq	%rbx
	.cfi_restore 3
	.cfi_def_cfa_offset 16
	popq	%rbp
	.cfi_restore 6
	.cfi_def_cfa_offset 8
.L34:
	rep ret
.L24:
	.cfi_def_cfa_offset 32
	.cfi_offset 3, -24
	.cfi_offset 6, -16
	addq	$1, %rdx
	movq	%rax, %rdi
	je	.L23
	vzeroupper
.LEHB1:
	call	_Unwind_Resume@PLT
.L23:
	vzeroupper
	call	__cxa_call_unexpected@PLT
.LEHE1:
	.cfi_endproc
.LFE1905:
	.globl	__gxx_personality_v0
	.section	.gcc_except_table._ZN5decaf12SecureBuffer5clearEv.isra.9,"a",@progbits
	.align 4
.LLSDA1905:
	.byte	0xff
	.byte	0x9b
	.uleb128 .LLSDATT1905-.LLSDATTD1905
.LLSDATTD1905:
	.byte	0x1
	.uleb128 .LLSDACSE1905-.LLSDACSB1905
.LLSDACSB1905:
	.uleb128 .LEHB0-.LFB1905
	.uleb128 .LEHE0-.LEHB0
	.uleb128 .L24-.LFB1905
	.uleb128 0x1
	.uleb128 .LEHB1-.LFB1905
	.uleb128 .LEHE1-.LEHB1
	.uleb128 0
	.uleb128 0
.LLSDACSE1905:
	.byte	0x7f
	.byte	0
	.align 4
.LLSDATT1905:
	.byte	0
	.section	.text._ZN5decaf12SecureBuffer5clearEv.isra.9
	.size	_ZN5decaf12SecureBuffer5clearEv.isra.9, .-_ZN5decaf12SecureBuffer5clearEv.isra.9
	.section	.text.unlikely._ZN5decaf12SecureBuffer5clearEv.isra.9
.LCOLDE18:
	.section	.text._ZN5decaf12SecureBuffer5clearEv.isra.9
.LHOTE18:
	.section	.rodata.str1.1
.LC19:
	.string	"p"
.LC20:
	.string	" "
.LC21:
	.string	"T"
.LC22:
	.string	"m"
.LC23:
	.string	"\302\265"
.LC24:
	.string	"n"
.LC25:
	.string	"k"
.LC26:
	.string	"M"
.LC27:
	.string	"G"
.LC31:
	.string	"%6.2f%s%s%s"
	.section	.text.unlikely._ZL7printSIdPKcS0_.constprop.100,"ax",@progbits
.LCOLDB32:
	.section	.text._ZL7printSIdPKcS0_.constprop.100,"ax",@progbits
.LHOTB32:
	.p2align 4,,15
	.type	_ZL7printSIdPKcS0_.constprop.100, @function
_ZL7printSIdPKcS0_.constprop.100:
.LFB1992:
	.cfi_startproc
	subq	$104, %rsp
	.cfi_def_cfa_offset 112
	movq	%rdi, %r8
	movq	%fs:40, %rax
	movq	%rax, 88(%rsp)
	xorl	%eax, %eax
	leaq	.LC20(%rip), %rax
	vmovsd	.LC28(%rip), %xmm3
	vxorpd	%xmm2, %xmm2, %xmm2
	movq	%rax, (%rsp)
	leaq	.LC22(%rip), %rax
	vucomisd	%xmm0, %xmm3
	movq	%rax, 8(%rsp)
	leaq	.LC23(%rip), %rax
	movq	%rax, 16(%rsp)
	leaq	.LC24(%rip), %rax
	movq	%rax, 24(%rsp)
	leaq	.LC19(%rip), %rax
	movq	%rax, 32(%rsp)
	leaq	.LC20(%rip), %rax
	movq	%rax, 48(%rsp)
	leaq	.LC25(%rip), %rax
	movq	%rax, 56(%rsp)
	leaq	.LC26(%rip), %rax
	movq	%rax, 64(%rsp)
	leaq	.LC27(%rip), %rax
	movq	%rax, 72(%rsp)
	leaq	.LC21(%rip), %rax
	movq	%rax, 80(%rsp)
	ja	.L99
	vucomisd	%xmm2, %xmm0
	jp	.L83
	je	.L93
.L83:
	vmovsd	.LC30(%rip), %xmm1
	vucomisd	%xmm1, %xmm0
	jb	.L93
	vdivsd	%xmm1, %xmm0, %xmm0
	vucomisd	%xmm2, %xmm0
	jp	.L85
	je	.L71
.L85:
	vucomisd	%xmm1, %xmm0
	jb	.L71
	vdivsd	%xmm1, %xmm0, %xmm0
	vucomisd	%xmm2, %xmm0
	jp	.L87
	je	.L73
.L87:
	vucomisd	%xmm1, %xmm0
	jb	.L73
	vdivsd	%xmm1, %xmm0, %xmm0
	vucomisd	%xmm2, %xmm0
	jp	.L89
	je	.L75
.L89:
	vucomisd	%xmm1, %xmm0
	jb	.L75
	vdivsd	%xmm1, %xmm0, %xmm0
	leaq	.LC21(%rip), %rcx
.L50:
	movq	88(%rsp), %rax
	xorq	%fs:40, %rax
	jne	.L100
	leaq	.LC20(%rip), %rdx
	leaq	.LC31(%rip), %rsi
	movl	$1, %edi
	movl	$1, %eax
	addq	$104, %rsp
	.cfi_remember_state
	.cfi_def_cfa_offset 8
	jmp	__printf_chk@PLT
	.p2align 4,,10
	.p2align 3
.L99:
	.cfi_restore_state
	vucomisd	%xmm2, %xmm0
	jp	.L77
	je	.L93
.L77:
	vmovsd	.LC30(%rip), %xmm1
	vmulsd	%xmm1, %xmm0, %xmm0
	vucomisd	%xmm2, %xmm0
	jp	.L78
	je	.L64
.L78:
	vucomisd	%xmm0, %xmm3
	jbe	.L64
	vmulsd	%xmm1, %xmm0, %xmm0
	vucomisd	%xmm2, %xmm0
	jp	.L80
	je	.L66
.L80:
	vucomisd	%xmm0, %xmm3
	jbe	.L66
	vmulsd	%xmm1, %xmm0, %xmm0
	vucomisd	%xmm2, %xmm0
	jp	.L82
	je	.L68
.L82:
	vucomisd	%xmm0, %xmm3
	jbe	.L68
	vmulsd	%xmm1, %xmm0, %xmm0
	leaq	.LC19(%rip), %rcx
	jmp	.L50
	.p2align 4,,10
	.p2align 3
.L93:
	leaq	.LC20(%rip), %rcx
	jmp	.L50
	.p2align 4,,10
	.p2align 3
.L71:
	movl	$1, %eax
.L53:
	movq	48(%rsp,%rax,8), %rcx
	jmp	.L50
	.p2align 4,,10
	.p2align 3
.L73:
	movl	$2, %eax
	jmp	.L53
	.p2align 4,,10
	.p2align 3
.L75:
	movl	$3, %eax
	jmp	.L53
	.p2align 4,,10
	.p2align 3
.L64:
	movl	$1, %eax
.L41:
	movq	(%rsp,%rax,8), %rcx
	jmp	.L50
	.p2align 4,,10
	.p2align 3
.L66:
	movl	$2, %eax
	jmp	.L41
	.p2align 4,,10
	.p2align 3
.L68:
	movl	$3, %eax
	jmp	.L41
.L100:
	call	__stack_chk_fail@PLT
	.cfi_endproc
.LFE1992:
	.size	_ZL7printSIdPKcS0_.constprop.100, .-_ZL7printSIdPKcS0_.constprop.100
	.section	.text.unlikely._ZL7printSIdPKcS0_.constprop.100
.LCOLDE32:
	.section	.text._ZL7printSIdPKcS0_.constprop.100
.LHOTE32:
	.section	.text.unlikely._ZN5decaf5Ed4485PointC2ERKNS_5BlockEm.constprop.101,"ax",@progbits
	.align 2
.LCOLDB33:
	.section	.text._ZN5decaf5Ed4485PointC2ERKNS_5BlockEm.constprop.101,"ax",@progbits
.LHOTB33:
	.align 2
	.p2align 4,,15
	.type	_ZN5decaf5Ed4485PointC2ERKNS_5BlockEm.constprop.101, @function
_ZN5decaf5Ed4485PointC2ERKNS_5BlockEm.constprop.101:
.LFB1991:
	.cfi_startproc
	.cfi_personality 0x9b,DW.ref.__gxx_personality_v0
	.cfi_lsda 0x1b,.LLSDA1991
	subq	$8, %rsp
	.cfi_def_cfa_offset 16
	cmpq	$56, 16(%rsi)
	je	.L117
.L102:
	movl	$8, %edi
	call	__cxa_allocate_exception@PLT
	leaq	16+_ZTVN5decaf15CryptoExceptionE(%rip), %rcx
	leaq	_ZN5decaf15CryptoExceptionD1Ev(%rip), %rdx
	leaq	_ZTIN5decaf15CryptoExceptionE(%rip), %rsi
	movq	%rax, %rdi
	movq	%rcx, (%rax)
.LEHB2:
	call	__cxa_throw@PLT
.LEHE2:
	.p2align 4,,10
	.p2align 3
.L117:
	movq	8(%rsi), %rsi
	movq	$-1, %rdx
.LEHB3:
	call	decaf_448_point_decode@PLT
.LEHE3:
	testq	%rax, %rax
	je	.L102
	addq	$8, %rsp
	.cfi_remember_state
	.cfi_def_cfa_offset 8
	ret
.L108:
	.cfi_restore_state
	addq	$1, %rdx
	movq	%rax, %rdi
	je	.L107
.L116:
	vzeroupper
.LEHB4:
	call	_Unwind_Resume@PLT
.L109:
	cmpq	$-3, %rdx
	movq	%rax, %rdi
	jne	.L116
.L107:
	vzeroupper
	call	__cxa_call_unexpected@PLT
.LEHE4:
	.cfi_endproc
.LFE1991:
	.section	.gcc_except_table._ZN5decaf5Ed4485PointC2ERKNS_5BlockEm.constprop.101,"a",@progbits
	.align 4
.LLSDA1991:
	.byte	0xff
	.byte	0x9b
	.uleb128 .LLSDATT1991-.LLSDATTD1991
.LLSDATTD1991:
	.byte	0x1
	.uleb128 .LLSDACSE1991-.LLSDACSB1991
.LLSDACSB1991:
	.uleb128 .LEHB2-.LFB1991
	.uleb128 .LEHE2-.LEHB2
	.uleb128 .L108-.LFB1991
	.uleb128 0x1
	.uleb128 .LEHB3-.LFB1991
	.uleb128 .LEHE3-.LEHB3
	.uleb128 .L109-.LFB1991
	.uleb128 0x3
	.uleb128 .LEHB4-.LFB1991
	.uleb128 .LEHE4-.LEHB4
	.uleb128 0
	.uleb128 0
.LLSDACSE1991:
	.byte	0x7f
	.byte	0
	.byte	0x7d
	.byte	0
	.align 4
	.long	DW.ref._ZTIN5decaf15CryptoExceptionE-.
.LLSDATT1991:
	.byte	0x1
	.byte	0
	.byte	0
	.section	.text._ZN5decaf5Ed4485PointC2ERKNS_5BlockEm.constprop.101
	.size	_ZN5decaf5Ed4485PointC2ERKNS_5BlockEm.constprop.101, .-_ZN5decaf5Ed4485PointC2ERKNS_5BlockEm.constprop.101
	.section	.text.unlikely._ZN5decaf5Ed4485PointC2ERKNS_5BlockEm.constprop.101
.LCOLDE33:
	.section	.text._ZN5decaf5Ed4485PointC2ERKNS_5BlockEm.constprop.101
.LHOTE33:
	.section	.text.unlikely._ZN5decaf12SecureBufferD2Ev,"axG",@progbits,_ZN5decaf12SecureBufferD5Ev,comdat
	.align 2
.LCOLDB34:
	.section	.text._ZN5decaf12SecureBufferD2Ev,"axG",@progbits,_ZN5decaf12SecureBufferD5Ev,comdat
.LHOTB34:
	.align 2
	.p2align 4,,15
	.weak	_ZN5decaf12SecureBufferD2Ev
	.hidden	_ZN5decaf12SecureBufferD2Ev
	.type	_ZN5decaf12SecureBufferD2Ev, @function
_ZN5decaf12SecureBufferD2Ev:
.LFB748:
	.cfi_startproc
	.cfi_personality 0x9b,DW.ref.__gxx_personality_v0
	.cfi_lsda 0x1b,.LLSDA748
	leaq	16+_ZTVN5decaf12SecureBufferE(%rip), %rcx
	movq	%rdi, %rax
	movq	%rcx, (%rdi)
	movq	8(%rdi), %rdi
	testq	%rdi, %rdi
	je	.L132
	movq	16(%rax), %rsi
	pushq	%rbx
	.cfi_def_cfa_offset 16
	.cfi_offset 3, -16
	movq	%rax, %rbx
.LEHB5:
	call	decaf_bzero@PLT
.LEHE5:
	movq	8(%rbx), %rdi
	testq	%rdi, %rdi
	je	.L129
	popq	%rbx
	.cfi_remember_state
	.cfi_restore 3
	.cfi_def_cfa_offset 8
	jmp	_ZdaPv@PLT
	.p2align 4,,10
	.p2align 3
.L129:
	.cfi_restore_state
	popq	%rbx
	.cfi_restore 3
	.cfi_def_cfa_offset 8
.L132:
	rep ret
.L122:
	.cfi_def_cfa_offset 16
	.cfi_offset 3, -16
	movq	%rax, %rdi
.L120:
	addq	$1, %rdx
	je	.L121
	vzeroupper
.LEHB6:
	call	_Unwind_Resume@PLT
.L121:
	vzeroupper
	call	__cxa_call_unexpected@PLT
.LEHE6:
	.cfi_endproc
.LFE748:
	.section	.gcc_except_table._ZN5decaf12SecureBufferD2Ev,"aG",@progbits,_ZN5decaf12SecureBufferD5Ev,comdat
	.align 4
.LLSDA748:
	.byte	0xff
	.byte	0x9b
	.uleb128 .LLSDATT748-.LLSDATTD748
.LLSDATTD748:
	.byte	0x1
	.uleb128 .LLSDACSE748-.LLSDACSB748
.LLSDACSB748:
	.uleb128 .LEHB5-.LFB748
	.uleb128 .LEHE5-.LEHB5
	.uleb128 .L122-.LFB748
	.uleb128 0x1
	.uleb128 .LEHB6-.LFB748
	.uleb128 .LEHE6-.LEHB6
	.uleb128 0
	.uleb128 0
.LLSDACSE748:
	.byte	0x7f
	.byte	0
	.align 4
.LLSDATT748:
	.byte	0
	.section	.text._ZN5decaf12SecureBufferD2Ev,"axG",@progbits,_ZN5decaf12SecureBufferD5Ev,comdat
	.size	_ZN5decaf12SecureBufferD2Ev, .-_ZN5decaf12SecureBufferD2Ev
	.section	.text.unlikely._ZN5decaf12SecureBufferD2Ev,"axG",@progbits,_ZN5decaf12SecureBufferD5Ev,comdat
.LCOLDE34:
	.section	.text._ZN5decaf12SecureBufferD2Ev,"axG",@progbits,_ZN5decaf12SecureBufferD5Ev,comdat
.LHOTE34:
	.weak	_ZN5decaf12SecureBufferD1Ev
	.hidden	_ZN5decaf12SecureBufferD1Ev
	.set	_ZN5decaf12SecureBufferD1Ev,_ZN5decaf12SecureBufferD2Ev
	.section	.text.unlikely._ZN5decaf12SecureBufferD0Ev,"axG",@progbits,_ZN5decaf12SecureBufferD5Ev,comdat
	.align 2
.LCOLDB35:
	.section	.text._ZN5decaf12SecureBufferD0Ev,"axG",@progbits,_ZN5decaf12SecureBufferD5Ev,comdat
.LHOTB35:
	.align 2
	.p2align 4,,15
	.weak	_ZN5decaf12SecureBufferD0Ev
	.hidden	_ZN5decaf12SecureBufferD0Ev
	.type	_ZN5decaf12SecureBufferD0Ev, @function
_ZN5decaf12SecureBufferD0Ev:
.LFB750:
	.cfi_startproc
	.cfi_personality 0x9b,DW.ref.__gxx_personality_v0
	.cfi_lsda 0x1b,.LLSDA750
	leaq	16+_ZTVN5decaf12SecureBufferE(%rip), %rax
	pushq	%rbx
	.cfi_def_cfa_offset 16
	.cfi_offset 3, -16
	movq	%rdi, %rbx
	movq	%rax, (%rdi)
	movq	8(%rdi), %rdi
	testq	%rdi, %rdi
	je	.L134
	movq	16(%rbx), %rsi
.LEHB7:
	call	decaf_bzero@PLT
.LEHE7:
	movq	8(%rbx), %rdi
	testq	%rdi, %rdi
	je	.L134
	call	_ZdaPv@PLT
.L134:
	movq	%rbx, %rdi
	popq	%rbx
	.cfi_remember_state
	.cfi_def_cfa_offset 8
	jmp	_ZdlPv@PLT
.L137:
	.cfi_restore_state
	movq	%rax, %rdi
.L135:
	addq	$1, %rdx
	je	.L136
	vzeroupper
.LEHB8:
	call	_Unwind_Resume@PLT
.L136:
	vzeroupper
	call	__cxa_call_unexpected@PLT
.LEHE8:
	.cfi_endproc
.LFE750:
	.section	.gcc_except_table._ZN5decaf12SecureBufferD0Ev,"aG",@progbits,_ZN5decaf12SecureBufferD5Ev,comdat
	.align 4
.LLSDA750:
	.byte	0xff
	.byte	0x9b
	.uleb128 .LLSDATT750-.LLSDATTD750
.LLSDATTD750:
	.byte	0x1
	.uleb128 .LLSDACSE750-.LLSDACSB750
.LLSDACSB750:
	.uleb128 .LEHB7-.LFB750
	.uleb128 .LEHE7-.LEHB7
	.uleb128 .L137-.LFB750
	.uleb128 0x1
	.uleb128 .LEHB8-.LFB750
	.uleb128 .LEHE8-.LEHB8
	.uleb128 0
	.uleb128 0
.LLSDACSE750:
	.byte	0x7f
	.byte	0
	.align 4
.LLSDATT750:
	.byte	0
	.section	.text._ZN5decaf12SecureBufferD0Ev,"axG",@progbits,_ZN5decaf12SecureBufferD5Ev,comdat
	.size	_ZN5decaf12SecureBufferD0Ev, .-_ZN5decaf12SecureBufferD0Ev
	.section	.text.unlikely._ZN5decaf12SecureBufferD0Ev,"axG",@progbits,_ZN5decaf12SecureBufferD5Ev,comdat
.LCOLDE35:
	.section	.text._ZN5decaf12SecureBufferD0Ev,"axG",@progbits,_ZN5decaf12SecureBufferD5Ev,comdat
.LHOTE35:
	.section	.text.unlikely._ZN5decaf12SecureBufferC2Em,"axG",@progbits,_ZN5decaf12SecureBufferC5Em,comdat
	.align 2
.LCOLDB36:
	.section	.text._ZN5decaf12SecureBufferC2Em,"axG",@progbits,_ZN5decaf12SecureBufferC5Em,comdat
.LHOTB36:
	.align 2
	.p2align 4,,15
	.weak	_ZN5decaf12SecureBufferC2Em
	.hidden	_ZN5decaf12SecureBufferC2Em
	.type	_ZN5decaf12SecureBufferC2Em, @function
_ZN5decaf12SecureBufferC2Em:
.LFB737:
	.cfi_startproc
	pushq	%rbp
	.cfi_def_cfa_offset 16
	.cfi_offset 6, -16
	leaq	16+_ZTVN5decaf12SecureBufferE(%rip), %rax
	pushq	%rbx
	.cfi_def_cfa_offset 24
	.cfi_offset 3, -24
	movq	%rdi, %rbx
	movq	%rsi, %rbp
	subq	$8, %rsp
	.cfi_def_cfa_offset 32
	movq	$0, 8(%rdi)
	movq	%rax, (%rdi)
	movq	%rsi, 16(%rbx)
	movq	%rsi, %rdi
	call	_Znam@PLT
	movq	%rax, 8(%rbx)
	addq	$8, %rsp
	.cfi_def_cfa_offset 24
	movq	%rbp, %rdx
	popq	%rbx
	.cfi_def_cfa_offset 16
	popq	%rbp
	.cfi_def_cfa_offset 8
	xorl	%esi, %esi
	movq	%rax, %rdi
	jmp	memset@PLT
	.cfi_endproc
.LFE737:
	.size	_ZN5decaf12SecureBufferC2Em, .-_ZN5decaf12SecureBufferC2Em
	.section	.text.unlikely._ZN5decaf12SecureBufferC2Em,"axG",@progbits,_ZN5decaf12SecureBufferC5Em,comdat
.LCOLDE36:
	.section	.text._ZN5decaf12SecureBufferC2Em,"axG",@progbits,_ZN5decaf12SecureBufferC5Em,comdat
.LHOTE36:
	.weak	_ZN5decaf12SecureBufferC1Em
	.hidden	_ZN5decaf12SecureBufferC1Em
	.set	_ZN5decaf12SecureBufferC1Em,_ZN5decaf12SecureBufferC2Em
	.section	.text.unlikely._ZN5decaf5Ed4486ScalarD2Ev,"axG",@progbits,_ZN5decaf5Ed4486ScalarD5Ev,comdat
	.align 2
.LCOLDB37:
	.section	.text._ZN5decaf5Ed4486ScalarD2Ev,"axG",@progbits,_ZN5decaf5Ed4486ScalarD5Ev,comdat
.LHOTB37:
	.align 2
	.p2align 4,,15
	.weak	_ZN5decaf5Ed4486ScalarD2Ev
	.hidden	_ZN5decaf5Ed4486ScalarD2Ev
	.type	_ZN5decaf5Ed4486ScalarD2Ev, @function
_ZN5decaf5Ed4486ScalarD2Ev:
.LFB774:
	.cfi_startproc
	.cfi_personality 0x9b,DW.ref.__gxx_personality_v0
	.cfi_lsda 0x1b,.LLSDA774
	subq	$8, %rsp
	.cfi_def_cfa_offset 16
.LEHB9:
	call	decaf_448_scalar_destroy@PLT
.LEHE9:
	addq	$8, %rsp
	.cfi_remember_state
	.cfi_def_cfa_offset 8
	ret
.L150:
	.cfi_restore_state
	movq	%rax, %rdi
.L148:
	addq	$1, %rdx
	je	.L149
	vzeroupper
.LEHB10:
	call	_Unwind_Resume@PLT
.L149:
	vzeroupper
	call	__cxa_call_unexpected@PLT
.LEHE10:
	.cfi_endproc
.LFE774:
	.section	.gcc_except_table._ZN5decaf5Ed4486ScalarD2Ev,"aG",@progbits,_ZN5decaf5Ed4486ScalarD5Ev,comdat
	.align 4
.LLSDA774:
	.byte	0xff
	.byte	0x9b
	.uleb128 .LLSDATT774-.LLSDATTD774
.LLSDATTD774:
	.byte	0x1
	.uleb128 .LLSDACSE774-.LLSDACSB774
.LLSDACSB774:
	.uleb128 .LEHB9-.LFB774
	.uleb128 .LEHE9-.LEHB9
	.uleb128 .L150-.LFB774
	.uleb128 0x1
	.uleb128 .LEHB10-.LFB774
	.uleb128 .LEHE10-.LEHB10
	.uleb128 0
	.uleb128 0
.LLSDACSE774:
	.byte	0x7f
	.byte	0
	.align 4
.LLSDATT774:
	.byte	0
	.section	.text._ZN5decaf5Ed4486ScalarD2Ev,"axG",@progbits,_ZN5decaf5Ed4486ScalarD5Ev,comdat
	.size	_ZN5decaf5Ed4486ScalarD2Ev, .-_ZN5decaf5Ed4486ScalarD2Ev
	.section	.text.unlikely._ZN5decaf5Ed4486ScalarD2Ev,"axG",@progbits,_ZN5decaf5Ed4486ScalarD5Ev,comdat
.LCOLDE37:
	.section	.text._ZN5decaf5Ed4486ScalarD2Ev,"axG",@progbits,_ZN5decaf5Ed4486ScalarD5Ev,comdat
.LHOTE37:
	.weak	_ZN5decaf5Ed4486ScalarD1Ev
	.hidden	_ZN5decaf5Ed4486ScalarD1Ev
	.set	_ZN5decaf5Ed4486ScalarD1Ev,_ZN5decaf5Ed4486ScalarD2Ev
	.section	.text.unlikely._ZN5decaf5Ed4485PointD2Ev,"axG",@progbits,_ZN5decaf5Ed4485PointD5Ev,comdat
	.align 2
.LCOLDB38:
	.section	.text._ZN5decaf5Ed4485PointD2Ev,"axG",@progbits,_ZN5decaf5Ed4485PointD5Ev,comdat
.LHOTB38:
	.align 2
	.p2align 4,,15
	.weak	_ZN5decaf5Ed4485PointD2Ev
	.hidden	_ZN5decaf5Ed4485PointD2Ev
	.type	_ZN5decaf5Ed4485PointD2Ev, @function
_ZN5decaf5Ed4485PointD2Ev:
.LFB817:
	.cfi_startproc
	.cfi_personality 0x9b,DW.ref.__gxx_personality_v0
	.cfi_lsda 0x1b,.LLSDA817
	subq	$8, %rsp
	.cfi_def_cfa_offset 16
.LEHB11:
	call	decaf_448_point_destroy@PLT
.LEHE11:
	addq	$8, %rsp
	.cfi_remember_state
	.cfi_def_cfa_offset 8
	ret
.L158:
	.cfi_restore_state
	movq	%rax, %rdi
.L156:
	addq	$1, %rdx
	je	.L157
	vzeroupper
.LEHB12:
	call	_Unwind_Resume@PLT
.L157:
	vzeroupper
	call	__cxa_call_unexpected@PLT
.LEHE12:
	.cfi_endproc
.LFE817:
	.section	.gcc_except_table._ZN5decaf5Ed4485PointD2Ev,"aG",@progbits,_ZN5decaf5Ed4485PointD5Ev,comdat
	.align 4
.LLSDA817:
	.byte	0xff
	.byte	0x9b
	.uleb128 .LLSDATT817-.LLSDATTD817
.LLSDATTD817:
	.byte	0x1
	.uleb128 .LLSDACSE817-.LLSDACSB817
.LLSDACSB817:
	.uleb128 .LEHB11-.LFB817
	.uleb128 .LEHE11-.LEHB11
	.uleb128 .L158-.LFB817
	.uleb128 0x1
	.uleb128 .LEHB12-.LFB817
	.uleb128 .LEHE12-.LEHB12
	.uleb128 0
	.uleb128 0
.LLSDACSE817:
	.byte	0x7f
	.byte	0
	.align 4
.LLSDATT817:
	.byte	0
	.section	.text._ZN5decaf5Ed4485PointD2Ev,"axG",@progbits,_ZN5decaf5Ed4485PointD5Ev,comdat
	.size	_ZN5decaf5Ed4485PointD2Ev, .-_ZN5decaf5Ed4485PointD2Ev
	.section	.text.unlikely._ZN5decaf5Ed4485PointD2Ev,"axG",@progbits,_ZN5decaf5Ed4485PointD5Ev,comdat
.LCOLDE38:
	.section	.text._ZN5decaf5Ed4485PointD2Ev,"axG",@progbits,_ZN5decaf5Ed4485PointD5Ev,comdat
.LHOTE38:
	.weak	_ZN5decaf5Ed4485PointD1Ev
	.hidden	_ZN5decaf5Ed4485PointD1Ev
	.set	_ZN5decaf5Ed4485PointD1Ev,_ZN5decaf5Ed4485PointD2Ev
	.section	.text.unlikely._ZN5decaf5Ed4485Point11set_to_hashERKNS_5BlockE,"axG",@progbits,_ZN5decaf5Ed4485Point11set_to_hashERKNS_5BlockE,comdat
	.align 2
.LCOLDB39:
	.section	.text._ZN5decaf5Ed4485Point11set_to_hashERKNS_5BlockE,"axG",@progbits,_ZN5decaf5Ed4485Point11set_to_hashERKNS_5BlockE,comdat
.LHOTB39:
	.align 2
	.p2align 4,,15
	.weak	_ZN5decaf5Ed4485Point11set_to_hashERKNS_5BlockE
	.hidden	_ZN5decaf5Ed4485Point11set_to_hashERKNS_5BlockE
	.type	_ZN5decaf5Ed4485Point11set_to_hashERKNS_5BlockE, @function
_ZN5decaf5Ed4485Point11set_to_hashERKNS_5BlockE:
.LFB828:
	.cfi_startproc
	.cfi_personality 0x9b,DW.ref.__gxx_personality_v0
	.cfi_lsda 0x1b,.LLSDA828
	pushq	%rbp
	.cfi_def_cfa_offset 16
	.cfi_offset 6, -16
	pushq	%rbx
	.cfi_def_cfa_offset 24
	.cfi_offset 3, -24
	movq	%rdi, %rbp
	movq	%rsi, %rbx
	subq	$40, %rsp
	.cfi_def_cfa_offset 64
	movq	%fs:40, %rax
	movq	%rax, 24(%rsp)
	xorl	%eax, %eax
	movq	16(%rsi), %rax
	cmpq	$55, %rax
	jbe	.L210
	cmpq	$56, %rax
	je	.L211
	cmpq	$111, %rax
	ja	.L170
	leaq	16+_ZTVN5decaf12SecureBufferE(%rip), %rax
	movl	$112, %edi
	movq	$0, 8(%rsp)
	movq	$112, 16(%rsp)
	movq	%rax, (%rsp)
.LEHB13:
	call	_Znam@PLT
.LEHE13:
	leaq	8(%rax), %rdi
	movq	%rax, %rcx
	movq	%rax, 8(%rsp)
	movq	%rax, %r8
	movq	$0, (%rax)
	movq	$0, 104(%rax)
	andq	$-8, %rdi
	xorl	%eax, %eax
	subq	%rdi, %rcx
	addl	$112, %ecx
	shrl	$3, %ecx
	rep stosq
	movq	%r8, %rdi
	movq	8(%rbx), %rsi
	movq	16(%rbx), %rdx
	call	memcpy@PLT
	movq	%rbp, %rdi
	movq	%rax, %rsi
.LEHB14:
	call	decaf_448_point_from_hash_uniform@PLT
.LEHE14:
	movq	8(%rsp), %rdi
	movl	%eax, %ebx
	leaq	16+_ZTVN5decaf12SecureBufferE(%rip), %rax
	movq	%rax, (%rsp)
	testq	%rdi, %rdi
	je	.L166
	movq	16(%rsp), %rsi
.LEHB15:
	call	decaf_bzero@PLT
.LEHE15:
.L204:
	movq	8(%rsp), %rdi
	testq	%rdi, %rdi
	je	.L166
	call	_ZdaPv@PLT
	jmp	.L166
	.p2align 4,,10
	.p2align 3
.L170:
	movq	8(%rsi), %rsi
.LEHB16:
	call	decaf_448_point_from_hash_uniform@PLT
.L200:
	movl	%eax, %ebx
.L166:
	movq	24(%rsp), %rdx
	xorq	%fs:40, %rdx
	movl	%ebx, %eax
	jne	.L212
	addq	$40, %rsp
	.cfi_remember_state
	.cfi_def_cfa_offset 24
	popq	%rbx
	.cfi_def_cfa_offset 16
	popq	%rbp
	.cfi_def_cfa_offset 8
	ret
	.p2align 4,,10
	.p2align 3
.L210:
	.cfi_restore_state
	leaq	16+_ZTVN5decaf12SecureBufferE(%rip), %rax
	movl	$56, %edi
	movq	$0, 8(%rsp)
	movq	$56, 16(%rsp)
	movq	%rax, (%rsp)
	call	_Znam@PLT
.LEHE16:
	leaq	8(%rax), %rdi
	movq	%rax, %rcx
	movq	%rax, 8(%rsp)
	movq	%rax, %r8
	movq	$0, (%rax)
	movq	$0, 48(%rax)
	andq	$-8, %rdi
	xorl	%eax, %eax
	subq	%rdi, %rcx
	addl	$56, %ecx
	shrl	$3, %ecx
	rep stosq
	movq	%r8, %rdi
	movq	8(%rbx), %rsi
	movq	16(%rbx), %rdx
	call	memcpy@PLT
	movq	%rbp, %rdi
	movq	%rax, %rsi
.LEHB17:
	call	decaf_448_point_from_hash_nonuniform@PLT
.LEHE17:
	movq	8(%rsp), %rdi
	movl	%eax, %ebx
	leaq	16+_ZTVN5decaf12SecureBufferE(%rip), %rax
	movq	%rax, (%rsp)
	testq	%rdi, %rdi
	je	.L166
	movq	16(%rsp), %rsi
.LEHB18:
	call	decaf_bzero@PLT
.LEHE18:
	jmp	.L204
	.p2align 4,,10
	.p2align 3
.L211:
	movq	8(%rsi), %rsi
.LEHB19:
	call	decaf_448_point_from_hash_nonuniform@PLT
.LEHE19:
	jmp	.L200
.L212:
	call	__stack_chk_fail@PLT
.L181:
.L205:
	movq	%rax, %rbx
	movq	%rdx, %rbp
	jmp	.L176
.L183:
.L208:
	movq	%rax, %rdi
	jmp	.L175
.L182:
	jmp	.L208
.L179:
	jmp	.L205
.L176:
	leaq	16+_ZTVN5decaf12SecureBufferE(%rip), %rax
	leaq	16(%rsp), %rsi
	leaq	8(%rsp), %rdi
	movq	%rax, (%rsp)
	vzeroupper
	call	_ZN5decaf12SecureBuffer5clearEv.isra.9
	movq	%rbx, %rdi
	movq	%rbp, %rdx
.L175:
	addq	$1, %rdx
	je	.L177
	vzeroupper
.LEHB20:
	call	_Unwind_Resume@PLT
.L180:
	jmp	.L208
.L177:
	vzeroupper
	call	__cxa_call_unexpected@PLT
.LEHE20:
	.cfi_endproc
.LFE828:
	.section	.gcc_except_table._ZN5decaf5Ed4485Point11set_to_hashERKNS_5BlockE,"aG",@progbits,_ZN5decaf5Ed4485Point11set_to_hashERKNS_5BlockE,comdat
	.align 4
.LLSDA828:
	.byte	0xff
	.byte	0x9b
	.uleb128 .LLSDATT828-.LLSDATTD828
.LLSDATTD828:
	.byte	0x1
	.uleb128 .LLSDACSE828-.LLSDACSB828
.LLSDACSB828:
	.uleb128 .LEHB13-.LFB828
	.uleb128 .LEHE13-.LEHB13
	.uleb128 .L180-.LFB828
	.uleb128 0x1
	.uleb128 .LEHB14-.LFB828
	.uleb128 .LEHE14-.LEHB14
	.uleb128 .L181-.LFB828
	.uleb128 0x3
	.uleb128 .LEHB15-.LFB828
	.uleb128 .LEHE15-.LEHB15
	.uleb128 .L183-.LFB828
	.uleb128 0x1
	.uleb128 .LEHB16-.LFB828
	.uleb128 .LEHE16-.LEHB16
	.uleb128 .L180-.LFB828
	.uleb128 0x1
	.uleb128 .LEHB17-.LFB828
	.uleb128 .LEHE17-.LEHB17
	.uleb128 .L179-.LFB828
	.uleb128 0x3
	.uleb128 .LEHB18-.LFB828
	.uleb128 .LEHE18-.LEHB18
	.uleb128 .L182-.LFB828
	.uleb128 0x1
	.uleb128 .LEHB19-.LFB828
	.uleb128 .LEHE19-.LEHB19
	.uleb128 .L180-.LFB828
	.uleb128 0x1
	.uleb128 .LEHB20-.LFB828
	.uleb128 .LEHE20-.LEHB20
	.uleb128 0
	.uleb128 0
.LLSDACSE828:
	.byte	0x7f
	.byte	0
	.byte	0
	.byte	0x7d
	.align 4
.LLSDATT828:
	.byte	0
	.section	.text._ZN5decaf5Ed4485Point11set_to_hashERKNS_5BlockE,"axG",@progbits,_ZN5decaf5Ed4485Point11set_to_hashERKNS_5BlockE,comdat
	.size	_ZN5decaf5Ed4485Point11set_to_hashERKNS_5BlockE, .-_ZN5decaf5Ed4485Point11set_to_hashERKNS_5BlockE
	.section	.text.unlikely._ZN5decaf5Ed4485Point11set_to_hashERKNS_5BlockE,"axG",@progbits,_ZN5decaf5Ed4485Point11set_to_hashERKNS_5BlockE,comdat
.LCOLDE39:
	.section	.text._ZN5decaf5Ed4485Point11set_to_hashERKNS_5BlockE,"axG",@progbits,_ZN5decaf5Ed4485Point11set_to_hashERKNS_5BlockE,comdat
.LHOTE39:
	.section	.text.unlikely._ZNK5decaf5Ed4485PointcvNS_12SecureBufferEEv,"axG",@progbits,_ZNK5decaf5Ed4485PointcvNS_12SecureBufferEEv,comdat
	.align 2
.LCOLDB40:
	.section	.text._ZNK5decaf5Ed4485PointcvNS_12SecureBufferEEv,"axG",@progbits,_ZNK5decaf5Ed4485PointcvNS_12SecureBufferEEv,comdat
.LHOTB40:
	.align 2
	.p2align 4,,15
	.weak	_ZNK5decaf5Ed4485PointcvNS_12SecureBufferEEv
	.hidden	_ZNK5decaf5Ed4485PointcvNS_12SecureBufferEEv
	.type	_ZNK5decaf5Ed4485PointcvNS_12SecureBufferEEv, @function
_ZNK5decaf5Ed4485PointcvNS_12SecureBufferEEv:
.LFB829:
	.cfi_startproc
	.cfi_personality 0x9b,DW.ref.__gxx_personality_v0
	.cfi_lsda 0x1b,.LLSDA829
	leaq	16+_ZTVN5decaf12SecureBufferE(%rip), %rax
	pushq	%r12
	.cfi_def_cfa_offset 16
	.cfi_offset 12, -16
	pushq	%rbp
	.cfi_def_cfa_offset 24
	.cfi_offset 6, -24
	pushq	%rbx
	.cfi_def_cfa_offset 32
	.cfi_offset 3, -32
	movq	%rdi, %rbx
	movq	$0, 8(%rdi)
	movq	%rax, (%rdi)
	movq	$56, 16(%rdi)
	movl	$56, %edi
	movq	%rsi, %rbp
.LEHB21:
	call	_Znam@PLT
.LEHE21:
	leaq	8(%rax), %rdi
	movq	%rax, %rcx
	movq	%rax, 8(%rbx)
	movq	%rax, %rdx
	movq	$0, (%rax)
	movq	$0, 48(%rax)
	andq	$-8, %rdi
	xorl	%eax, %eax
	movq	%rbp, %rsi
	subq	%rdi, %rcx
	addl	$56, %ecx
	shrl	$3, %ecx
	rep stosq
	movq	%rdx, %rdi
.LEHB22:
	call	decaf_448_point_encode@PLT
.LEHE22:
	movq	%rbx, %rax
	popq	%rbx
	.cfi_remember_state
	.cfi_def_cfa_offset 24
	popq	%rbp
	.cfi_def_cfa_offset 16
	popq	%r12
	.cfi_def_cfa_offset 8
	ret
.L220:
	.cfi_restore_state
	jmp	.L215
.L219:
	movq	%rax, %rbp
	movq	%rdx, %r12
	jmp	.L217
.L215:
	leaq	16+_ZTVN5decaf5BlockE(%rip), %rsi
	movq	%rax, %rdi
	movq	%rdx, %rax
	movq	%rsi, (%rbx)
	vzeroupper
.L216:
	addq	$1, %rax
	je	.L218
.LEHB23:
	call	_Unwind_Resume@PLT
.L217:
	leaq	16+_ZTVN5decaf12SecureBufferE(%rip), %rax
	leaq	16(%rbx), %rsi
	leaq	8(%rbx), %rdi
	movq	%rax, (%rbx)
	vzeroupper
	call	_ZN5decaf12SecureBuffer5clearEv.isra.9
	leaq	16+_ZTVN5decaf5BlockE(%rip), %rax
	movq	%rbp, %rdi
	movq	%rax, (%rbx)
	movq	%r12, %rax
	jmp	.L216
.L218:
	call	__cxa_call_unexpected@PLT
.LEHE23:
	.cfi_endproc
.LFE829:
	.section	.gcc_except_table._ZNK5decaf5Ed4485PointcvNS_12SecureBufferEEv,"aG",@progbits,_ZNK5decaf5Ed4485PointcvNS_12SecureBufferEEv,comdat
	.align 4
.LLSDA829:
	.byte	0xff
	.byte	0x9b
	.uleb128 .LLSDATT829-.LLSDATTD829
.LLSDATTD829:
	.byte	0x1
	.uleb128 .LLSDACSE829-.LLSDACSB829
.LLSDACSB829:
	.uleb128 .LEHB21-.LFB829
	.uleb128 .LEHE21-.LEHB21
	.uleb128 .L220-.LFB829
	.uleb128 0x3
	.uleb128 .LEHB22-.LFB829
	.uleb128 .LEHE22-.LEHB22
	.uleb128 .L219-.LFB829
	.uleb128 0x3
	.uleb128 .LEHB23-.LFB829
	.uleb128 .LEHE23-.LEHB23
	.uleb128 0
	.uleb128 0
.LLSDACSE829:
	.byte	0x7f
	.byte	0
	.byte	0
	.byte	0x7d
	.align 4
.LLSDATT829:
	.byte	0
	.section	.text._ZNK5decaf5Ed4485PointcvNS_12SecureBufferEEv,"axG",@progbits,_ZNK5decaf5Ed4485PointcvNS_12SecureBufferEEv,comdat
	.size	_ZNK5decaf5Ed4485PointcvNS_12SecureBufferEEv, .-_ZNK5decaf5Ed4485PointcvNS_12SecureBufferEEv
	.section	.text.unlikely._ZNK5decaf5Ed4485PointcvNS_12SecureBufferEEv,"axG",@progbits,_ZNK5decaf5Ed4485PointcvNS_12SecureBufferEEv,comdat
.LCOLDE40:
	.section	.text._ZNK5decaf5Ed4485PointcvNS_12SecureBufferEEv,"axG",@progbits,_ZNK5decaf5Ed4485PointcvNS_12SecureBufferEEv,comdat
.LHOTE40:
	.section	.text.unlikely._ZN5decaf5Ed44811Precomputed5clearEv,"axG",@progbits,_ZN5decaf5Ed44811Precomputed5clearEv,comdat
	.align 2
.LCOLDB41:
	.section	.text._ZN5decaf5Ed44811Precomputed5clearEv,"axG",@progbits,_ZN5decaf5Ed44811Precomputed5clearEv,comdat
.LHOTB41:
	.align 2
	.p2align 4,,15
	.weak	_ZN5decaf5Ed44811Precomputed5clearEv
	.hidden	_ZN5decaf5Ed44811Precomputed5clearEv
	.type	_ZN5decaf5Ed44811Precomputed5clearEv, @function
_ZN5decaf5Ed44811Precomputed5clearEv:
.LFB852:
	.cfi_startproc
	.cfi_personality 0x9b,DW.ref.__gxx_personality_v0
	.cfi_lsda 0x1b,.LLSDA852
	cmpb	$0, 8(%rdi)
	jne	.L234
	ret
	.p2align 4,,10
	.p2align 3
.L234:
	pushq	%rbx
	.cfi_def_cfa_offset 16
	.cfi_offset 3, -16
	movq	%rdi, %rbx
	movq	(%rdi), %rdi
.LEHB24:
	call	decaf_448_precomputed_destroy@PLT
.LEHE24:
	movq	(%rbx), %rdi
	call	free@PLT
	movq	decaf_448_precomputed_base@GOTPCREL(%rip), %rax
	movb	$0, 8(%rbx)
	movq	(%rax), %rax
	movq	%rax, (%rbx)
	popq	%rbx
	.cfi_remember_state
	.cfi_restore 3
	.cfi_def_cfa_offset 8
	ret
.L229:
	.cfi_restore_state
	movq	%rax, %rdi
.L227:
	addq	$1, %rdx
	je	.L228
	vzeroupper
.LEHB25:
	call	_Unwind_Resume@PLT
.L228:
	vzeroupper
	call	__cxa_call_unexpected@PLT
.LEHE25:
	.cfi_endproc
.LFE852:
	.section	.gcc_except_table._ZN5decaf5Ed44811Precomputed5clearEv,"aG",@progbits,_ZN5decaf5Ed44811Precomputed5clearEv,comdat
	.align 4
.LLSDA852:
	.byte	0xff
	.byte	0x9b
	.uleb128 .LLSDATT852-.LLSDATTD852
.LLSDATTD852:
	.byte	0x1
	.uleb128 .LLSDACSE852-.LLSDACSB852
.LLSDACSB852:
	.uleb128 .LEHB24-.LFB852
	.uleb128 .LEHE24-.LEHB24
	.uleb128 .L229-.LFB852
	.uleb128 0x1
	.uleb128 .LEHB25-.LFB852
	.uleb128 .LEHE25-.LEHB25
	.uleb128 0
	.uleb128 0
.LLSDACSE852:
	.byte	0x7f
	.byte	0
	.align 4
.LLSDATT852:
	.byte	0
	.section	.text._ZN5decaf5Ed44811Precomputed5clearEv,"axG",@progbits,_ZN5decaf5Ed44811Precomputed5clearEv,comdat
	.size	_ZN5decaf5Ed44811Precomputed5clearEv, .-_ZN5decaf5Ed44811Precomputed5clearEv
	.section	.text.unlikely._ZN5decaf5Ed44811Precomputed5clearEv,"axG",@progbits,_ZN5decaf5Ed44811Precomputed5clearEv,comdat
.LCOLDE41:
	.section	.text._ZN5decaf5Ed44811Precomputed5clearEv,"axG",@progbits,_ZN5decaf5Ed44811Precomputed5clearEv,comdat
.LHOTE41:
	.section	.text.unlikely._ZNK5decaf5Ed44811PrecomputedmlERKNS0_6ScalarE,"axG",@progbits,_ZNK5decaf5Ed44811PrecomputedmlERKNS0_6ScalarE,comdat
	.align 2
.LCOLDB42:
	.section	.text._ZNK5decaf5Ed44811PrecomputedmlERKNS0_6ScalarE,"axG",@progbits,_ZNK5decaf5Ed44811PrecomputedmlERKNS0_6ScalarE,comdat
.LHOTB42:
	.align 2
	.p2align 4,,15
	.weak	_ZNK5decaf5Ed44811PrecomputedmlERKNS0_6ScalarE
	.hidden	_ZNK5decaf5Ed44811PrecomputedmlERKNS0_6ScalarE
	.type	_ZNK5decaf5Ed44811PrecomputedmlERKNS0_6ScalarE, @function
_ZNK5decaf5Ed44811PrecomputedmlERKNS0_6ScalarE:
.LFB872:
	.cfi_startproc
	.cfi_personality 0x9b,DW.ref.__gxx_personality_v0
	.cfi_lsda 0x1b,.LLSDA872
	pushq	%r12
	.cfi_def_cfa_offset 16
	.cfi_offset 12, -16
	movq	%rsi, %rax
	pushq	%rbp
	.cfi_def_cfa_offset 24
	.cfi_offset 6, -24
	movq	decaf_448_point_identity@GOTPCREL(%rip), %rsi
	pushq	%rbx
	.cfi_def_cfa_offset 32
	.cfi_offset 3, -32
	movl	$32, %ecx
	movq	%rdi, %rbx
	rep movsq
	movq	%rbx, %rdi
	movq	(%rax), %rsi
.LEHB26:
	call	decaf_448_precomputed_scalarmul@PLT
.LEHE26:
	movq	%rbx, %rax
	popq	%rbx
	.cfi_remember_state
	.cfi_def_cfa_offset 24
	popq	%rbp
	.cfi_def_cfa_offset 16
	popq	%r12
	.cfi_def_cfa_offset 8
	ret
.L238:
	.cfi_restore_state
	movq	%rax, %rbp
	movq	%rdx, %r12
.L236:
	movq	%rbx, %rdi
	vzeroupper
	call	_ZN5decaf5Ed4485PointD1Ev
	addq	$1, %r12
	movq	%rbp, %rdi
	je	.L237
.LEHB27:
	call	_Unwind_Resume@PLT
.L237:
	call	__cxa_call_unexpected@PLT
.LEHE27:
	.cfi_endproc
.LFE872:
	.section	.gcc_except_table._ZNK5decaf5Ed44811PrecomputedmlERKNS0_6ScalarE,"aG",@progbits,_ZNK5decaf5Ed44811PrecomputedmlERKNS0_6ScalarE,comdat
	.align 4
.LLSDA872:
	.byte	0xff
	.byte	0x9b
	.uleb128 .LLSDATT872-.LLSDATTD872
.LLSDATTD872:
	.byte	0x1
	.uleb128 .LLSDACSE872-.LLSDACSB872
.LLSDACSB872:
	.uleb128 .LEHB26-.LFB872
	.uleb128 .LEHE26-.LEHB26
	.uleb128 .L238-.LFB872
	.uleb128 0x3
	.uleb128 .LEHB27-.LFB872
	.uleb128 .LEHE27-.LEHB27
	.uleb128 0
	.uleb128 0
.LLSDACSE872:
	.byte	0x7f
	.byte	0
	.byte	0
	.byte	0x7d
	.align 4
.LLSDATT872:
	.byte	0
	.section	.text._ZNK5decaf5Ed44811PrecomputedmlERKNS0_6ScalarE,"axG",@progbits,_ZNK5decaf5Ed44811PrecomputedmlERKNS0_6ScalarE,comdat
	.size	_ZNK5decaf5Ed44811PrecomputedmlERKNS0_6ScalarE, .-_ZNK5decaf5Ed44811PrecomputedmlERKNS0_6ScalarE
	.section	.text.unlikely._ZNK5decaf5Ed44811PrecomputedmlERKNS0_6ScalarE,"axG",@progbits,_ZNK5decaf5Ed44811PrecomputedmlERKNS0_6ScalarE,comdat
.LCOLDE42:
	.section	.text._ZNK5decaf5Ed44811PrecomputedmlERKNS0_6ScalarE,"axG",@progbits,_ZNK5decaf5Ed44811PrecomputedmlERKNS0_6ScalarE,comdat
.LHOTE42:
	.section	.text.unlikely._ZN5decaf12KeccakSpongeC2EPK9kparams_s,"axG",@progbits,_ZN5decaf12KeccakSpongeC5EPK9kparams_s,comdat
	.align 2
.LCOLDB43:
	.section	.text._ZN5decaf12KeccakSpongeC2EPK9kparams_s,"axG",@progbits,_ZN5decaf12KeccakSpongeC5EPK9kparams_s,comdat
.LHOTB43:
	.align 2
	.p2align 4,,15
	.weak	_ZN5decaf12KeccakSpongeC2EPK9kparams_s
	.hidden	_ZN5decaf12KeccakSpongeC2EPK9kparams_s
	.type	_ZN5decaf12KeccakSpongeC2EPK9kparams_s, @function
_ZN5decaf12KeccakSpongeC2EPK9kparams_s:
.LFB906:
	.cfi_startproc
	.cfi_personality 0x9b,DW.ref.__gxx_personality_v0
	.cfi_lsda 0x1b,.LLSDA906
	subq	$8, %rsp
	.cfi_def_cfa_offset 16
.LEHB28:
	call	sponge_init@PLT
.LEHE28:
	addq	$8, %rsp
	.cfi_remember_state
	.cfi_def_cfa_offset 8
	ret
.L246:
	.cfi_restore_state
	movq	%rax, %rdi
.L244:
	addq	$1, %rdx
	je	.L245
	vzeroupper
.LEHB29:
	call	_Unwind_Resume@PLT
.L245:
	vzeroupper
	call	__cxa_call_unexpected@PLT
.LEHE29:
	.cfi_endproc
.LFE906:
	.section	.gcc_except_table._ZN5decaf12KeccakSpongeC2EPK9kparams_s,"aG",@progbits,_ZN5decaf12KeccakSpongeC5EPK9kparams_s,comdat
	.align 4
.LLSDA906:
	.byte	0xff
	.byte	0x9b
	.uleb128 .LLSDATT906-.LLSDATTD906
.LLSDATTD906:
	.byte	0x1
	.uleb128 .LLSDACSE906-.LLSDACSB906
.LLSDACSB906:
	.uleb128 .LEHB28-.LFB906
	.uleb128 .LEHE28-.LEHB28
	.uleb128 .L246-.LFB906
	.uleb128 0x1
	.uleb128 .LEHB29-.LFB906
	.uleb128 .LEHE29-.LEHB29
	.uleb128 0
	.uleb128 0
.LLSDACSE906:
	.byte	0x7f
	.byte	0
	.align 4
.LLSDATT906:
	.byte	0
	.section	.text._ZN5decaf12KeccakSpongeC2EPK9kparams_s,"axG",@progbits,_ZN5decaf12KeccakSpongeC5EPK9kparams_s,comdat
	.size	_ZN5decaf12KeccakSpongeC2EPK9kparams_s, .-_ZN5decaf12KeccakSpongeC2EPK9kparams_s
	.section	.text.unlikely._ZN5decaf12KeccakSpongeC2EPK9kparams_s,"axG",@progbits,_ZN5decaf12KeccakSpongeC5EPK9kparams_s,comdat
.LCOLDE43:
	.section	.text._ZN5decaf12KeccakSpongeC2EPK9kparams_s,"axG",@progbits,_ZN5decaf12KeccakSpongeC5EPK9kparams_s,comdat
.LHOTE43:
	.weak	_ZN5decaf12KeccakSpongeC1EPK9kparams_s
	.hidden	_ZN5decaf12KeccakSpongeC1EPK9kparams_s
	.set	_ZN5decaf12KeccakSpongeC1EPK9kparams_s,_ZN5decaf12KeccakSpongeC2EPK9kparams_s
	.section	.text.unlikely._ZN5decaf12KeccakSpongeD2Ev,"axG",@progbits,_ZN5decaf12KeccakSpongeD5Ev,comdat
	.align 2
.LCOLDB44:
	.section	.text._ZN5decaf12KeccakSpongeD2Ev,"axG",@progbits,_ZN5decaf12KeccakSpongeD5Ev,comdat
.LHOTB44:
	.align 2
	.p2align 4,,15
	.weak	_ZN5decaf12KeccakSpongeD2Ev
	.hidden	_ZN5decaf12KeccakSpongeD2Ev
	.type	_ZN5decaf12KeccakSpongeD2Ev, @function
_ZN5decaf12KeccakSpongeD2Ev:
.LFB912:
	.cfi_startproc
	.cfi_personality 0x9b,DW.ref.__gxx_personality_v0
	.cfi_lsda 0x1b,.LLSDA912
	subq	$8, %rsp
	.cfi_def_cfa_offset 16
.LEHB30:
	call	sponge_destroy@PLT
.LEHE30:
	addq	$8, %rsp
	.cfi_remember_state
	.cfi_def_cfa_offset 8
	ret
.L254:
	.cfi_restore_state
	movq	%rax, %rdi
.L252:
	addq	$1, %rdx
	je	.L253
	vzeroupper
.LEHB31:
	call	_Unwind_Resume@PLT
.L253:
	vzeroupper
	call	__cxa_call_unexpected@PLT
.LEHE31:
	.cfi_endproc
.LFE912:
	.section	.gcc_except_table._ZN5decaf12KeccakSpongeD2Ev,"aG",@progbits,_ZN5decaf12KeccakSpongeD5Ev,comdat
	.align 4
.LLSDA912:
	.byte	0xff
	.byte	0x9b
	.uleb128 .LLSDATT912-.LLSDATTD912
.LLSDATTD912:
	.byte	0x1
	.uleb128 .LLSDACSE912-.LLSDACSB912
.LLSDACSB912:
	.uleb128 .LEHB30-.LFB912
	.uleb128 .LEHE30-.LEHB30
	.uleb128 .L254-.LFB912
	.uleb128 0x1
	.uleb128 .LEHB31-.LFB912
	.uleb128 .LEHE31-.LEHB31
	.uleb128 0
	.uleb128 0
.LLSDACSE912:
	.byte	0x7f
	.byte	0
	.align 4
.LLSDATT912:
	.byte	0
	.section	.text._ZN5decaf12KeccakSpongeD2Ev,"axG",@progbits,_ZN5decaf12KeccakSpongeD5Ev,comdat
	.size	_ZN5decaf12KeccakSpongeD2Ev, .-_ZN5decaf12KeccakSpongeD2Ev
	.section	.text.unlikely._ZN5decaf12KeccakSpongeD2Ev,"axG",@progbits,_ZN5decaf12KeccakSpongeD5Ev,comdat
.LCOLDE44:
	.section	.text._ZN5decaf12KeccakSpongeD2Ev,"axG",@progbits,_ZN5decaf12KeccakSpongeD5Ev,comdat
.LHOTE44:
	.weak	_ZN5decaf12KeccakSpongeD1Ev
	.hidden	_ZN5decaf12KeccakSpongeD1Ev
	.set	_ZN5decaf12KeccakSpongeD1Ev,_ZN5decaf12KeccakSpongeD2Ev
	.section	.text.unlikely._ZN5decaf9SpongeRngC2ERKNS_5BlockEb,"axG",@progbits,_ZN5decaf9SpongeRngC5ERKNS_5BlockEb,comdat
	.align 2
.LCOLDB45:
	.section	.text._ZN5decaf9SpongeRngC2ERKNS_5BlockEb,"axG",@progbits,_ZN5decaf9SpongeRngC5ERKNS_5BlockEb,comdat
.LHOTB45:
	.align 2
	.p2align 4,,15
	.weak	_ZN5decaf9SpongeRngC2ERKNS_5BlockEb
	.hidden	_ZN5decaf9SpongeRngC2ERKNS_5BlockEb
	.type	_ZN5decaf9SpongeRngC2ERKNS_5BlockEb, @function
_ZN5decaf9SpongeRngC2ERKNS_5BlockEb:
.LFB942:
	.cfi_startproc
	.cfi_personality 0x9b,DW.ref.__gxx_personality_v0
	.cfi_lsda 0x1b,.LLSDA942
	pushq	%rbp
	.cfi_def_cfa_offset 16
	.cfi_offset 6, -16
	pushq	%rbx
	.cfi_def_cfa_offset 24
	.cfi_offset 3, -24
	movzbl	%dl, %ecx
	movq	%rdi, %rbx
	subq	$8, %rsp
	.cfi_def_cfa_offset 32
	movq	16(%rsi), %rdx
	movq	8(%rsi), %rsi
.LEHB32:
	call	spongerng_init_from_buffer@PLT
.LEHE32:
	addq	$8, %rsp
	.cfi_remember_state
	.cfi_def_cfa_offset 24
	popq	%rbx
	.cfi_def_cfa_offset 16
	popq	%rbp
	.cfi_def_cfa_offset 8
	ret
.L261:
	.cfi_restore_state
	movq	%rax, %rbp
.L260:
	movq	%rbx, %rdi
	vzeroupper
	call	_ZN5decaf12KeccakSpongeD2Ev
	movq	%rbp, %rdi
.LEHB33:
	call	_Unwind_Resume@PLT
.LEHE33:
	.cfi_endproc
.LFE942:
	.section	.gcc_except_table._ZN5decaf9SpongeRngC2ERKNS_5BlockEb,"aG",@progbits,_ZN5decaf9SpongeRngC5ERKNS_5BlockEb,comdat
.LLSDA942:
	.byte	0xff
	.byte	0xff
	.byte	0x1
	.uleb128 .LLSDACSE942-.LLSDACSB942
.LLSDACSB942:
	.uleb128 .LEHB32-.LFB942
	.uleb128 .LEHE32-.LEHB32
	.uleb128 .L261-.LFB942
	.uleb128 0
	.uleb128 .LEHB33-.LFB942
	.uleb128 .LEHE33-.LEHB33
	.uleb128 0
	.uleb128 0
.LLSDACSE942:
	.section	.text._ZN5decaf9SpongeRngC2ERKNS_5BlockEb,"axG",@progbits,_ZN5decaf9SpongeRngC5ERKNS_5BlockEb,comdat
	.size	_ZN5decaf9SpongeRngC2ERKNS_5BlockEb, .-_ZN5decaf9SpongeRngC2ERKNS_5BlockEb
	.section	.text.unlikely._ZN5decaf9SpongeRngC2ERKNS_5BlockEb,"axG",@progbits,_ZN5decaf9SpongeRngC5ERKNS_5BlockEb,comdat
.LCOLDE45:
	.section	.text._ZN5decaf9SpongeRngC2ERKNS_5BlockEb,"axG",@progbits,_ZN5decaf9SpongeRngC5ERKNS_5BlockEb,comdat
.LHOTE45:
	.weak	_ZN5decaf9SpongeRngC1ERKNS_5BlockEb
	.hidden	_ZN5decaf9SpongeRngC1ERKNS_5BlockEb
	.set	_ZN5decaf9SpongeRngC1ERKNS_5BlockEb,_ZN5decaf9SpongeRngC2ERKNS_5BlockEb
	.section	.text.unlikely._ZN5decaf5Ed4486ScalarC2ERNS_9SpongeRngE,"axG",@progbits,_ZN5decaf5Ed4486ScalarC5ERNS_9SpongeRngE,comdat
	.align 2
.LCOLDB46:
	.section	.text._ZN5decaf5Ed4486ScalarC2ERNS_9SpongeRngE,"axG",@progbits,_ZN5decaf5Ed4486ScalarC5ERNS_9SpongeRngE,comdat
.LHOTB46:
	.align 2
	.p2align 4,,15
	.weak	_ZN5decaf5Ed4486ScalarC2ERNS_9SpongeRngE
	.hidden	_ZN5decaf5Ed4486ScalarC2ERNS_9SpongeRngE
	.type	_ZN5decaf5Ed4486ScalarC2ERNS_9SpongeRngE, @function
_ZN5decaf5Ed4486ScalarC2ERNS_9SpongeRngE:
.LFB954:
	.cfi_startproc
	.cfi_personality 0x9b,DW.ref.__gxx_personality_v0
	.cfi_lsda 0x1b,.LLSDA954
	pushq	%r12
	.cfi_def_cfa_offset 16
	.cfi_offset 12, -16
	pushq	%rbp
	.cfi_def_cfa_offset 24
	.cfi_offset 6, -24
	movq	%rdi, %rbp
	pushq	%rbx
	.cfi_def_cfa_offset 32
	.cfi_offset 3, -32
	movl	$56, %edi
	movq	%rsi, %r12
.LEHB34:
	call	_Znam@PLT
.LEHE34:
	leaq	8(%rax), %rdi
	movq	%rax, %rcx
	movq	%rax, %rbx
	movq	$0, (%rax)
	movq	$0, 48(%rax)
	xorl	%eax, %eax
	andq	$-8, %rdi
	movl	$56, %edx
	movq	%rbx, %rsi
	subq	%rdi, %rcx
	addl	$56, %ecx
	shrl	$3, %ecx
	rep stosq
	movq	%r12, %rdi
.LEHB35:
	call	spongerng_next@PLT
.LEHE35:
	movl	$56, %edx
	movq	%rbx, %rsi
	movq	%rbp, %rdi
.LEHB36:
	call	decaf_448_scalar_decode_long@PLT
.LEHE36:
	movl	$56, %esi
	movq	%rbx, %rdi
.LEHB37:
	call	decaf_bzero@PLT
.LEHE37:
	movq	%rbx, %rdi
	popq	%rbx
	.cfi_remember_state
	.cfi_def_cfa_offset 24
	popq	%rbp
	.cfi_def_cfa_offset 16
	popq	%r12
	.cfi_def_cfa_offset 8
	jmp	_ZdaPv@PLT
.L280:
	.cfi_restore_state
	movq	%rax, %rdi
	jmp	.L270
.L282:
.L292:
	movq	%rax, %rdi
	jmp	.L272
.L270:
	cmpq	$-2, %rdx
	je	.L295
.L272:
	addq	$1, %rdx
	je	.L278
	vzeroupper
.LEHB38:
	call	_Unwind_Resume@PLT
.LEHE38:
.L295:
	vzeroupper
.LEHB39:
	call	__cxa_call_unexpected@PLT
.LEHE39:
.L278:
	vzeroupper
.LEHB40:
	call	__cxa_call_unexpected@PLT
.LEHE40:
.L279:
	jmp	.L292
.L283:
	jmp	.L292
.L281:
	jmp	.L292
	.cfi_endproc
.LFE954:
	.section	.gcc_except_table._ZN5decaf5Ed4486ScalarC2ERNS_9SpongeRngE,"aG",@progbits,_ZN5decaf5Ed4486ScalarC5ERNS_9SpongeRngE,comdat
	.align 4
.LLSDA954:
	.byte	0xff
	.byte	0x9b
	.uleb128 .LLSDATT954-.LLSDATTD954
.LLSDATTD954:
	.byte	0x1
	.uleb128 .LLSDACSE954-.LLSDACSB954
.LLSDACSB954:
	.uleb128 .LEHB34-.LFB954
	.uleb128 .LEHE34-.LEHB34
	.uleb128 .L280-.LFB954
	.uleb128 0x3
	.uleb128 .LEHB35-.LFB954
	.uleb128 .LEHE35-.LEHB35
	.uleb128 .L281-.LFB954
	.uleb128 0x1
	.uleb128 .LEHB36-.LFB954
	.uleb128 .LEHE36-.LEHB36
	.uleb128 .L283-.LFB954
	.uleb128 0x1
	.uleb128 .LEHB37-.LFB954
	.uleb128 .LEHE37-.LEHB37
	.uleb128 .L282-.LFB954
	.uleb128 0x1
	.uleb128 .LEHB38-.LFB954
	.uleb128 .LEHE38-.LEHB38
	.uleb128 0
	.uleb128 0
	.uleb128 .LEHB39-.LFB954
	.uleb128 .LEHE39-.LEHB39
	.uleb128 .L279-.LFB954
	.uleb128 0x1
	.uleb128 .LEHB40-.LFB954
	.uleb128 .LEHE40-.LEHB40
	.uleb128 0
	.uleb128 0
.LLSDACSE954:
	.byte	0x7f
	.byte	0
	.byte	0x7e
	.byte	0x7d
	.align 4
	.long	DW.ref._ZTISt9bad_alloc-.
.LLSDATT954:
	.byte	0
	.byte	0x1
	.byte	0
	.section	.text._ZN5decaf5Ed4486ScalarC2ERNS_9SpongeRngE,"axG",@progbits,_ZN5decaf5Ed4486ScalarC5ERNS_9SpongeRngE,comdat
	.size	_ZN5decaf5Ed4486ScalarC2ERNS_9SpongeRngE, .-_ZN5decaf5Ed4486ScalarC2ERNS_9SpongeRngE
	.section	.text.unlikely._ZN5decaf5Ed4486ScalarC2ERNS_9SpongeRngE,"axG",@progbits,_ZN5decaf5Ed4486ScalarC5ERNS_9SpongeRngE,comdat
.LCOLDE46:
	.section	.text._ZN5decaf5Ed4486ScalarC2ERNS_9SpongeRngE,"axG",@progbits,_ZN5decaf5Ed4486ScalarC5ERNS_9SpongeRngE,comdat
.LHOTE46:
	.weak	_ZN5decaf5Ed4486ScalarC1ERNS_9SpongeRngE
	.hidden	_ZN5decaf5Ed4486ScalarC1ERNS_9SpongeRngE
	.set	_ZN5decaf5Ed4486ScalarC1ERNS_9SpongeRngE,_ZN5decaf5Ed4486ScalarC2ERNS_9SpongeRngE
	.section	.text.unlikely._ZL5fhmqvRN5decaf9SpongeRngES1_NS_5Ed4486ScalarERKNS_5BlockES3_S6_.constprop.95,"ax",@progbits
.LCOLDB47:
	.section	.text._ZL5fhmqvRN5decaf9SpongeRngES1_NS_5Ed4486ScalarERKNS_5BlockES3_S6_.constprop.95,"ax",@progbits
.LHOTB47:
	.p2align 4,,15
	.type	_ZL5fhmqvRN5decaf9SpongeRngES1_NS_5Ed4486ScalarERKNS_5BlockES3_S6_.constprop.95, @function
_ZL5fhmqvRN5decaf9SpongeRngES1_NS_5Ed4486ScalarERKNS_5BlockES3_S6_.constprop.95:
.LFB1997:
	.cfi_startproc
	.cfi_personality 0x9b,DW.ref.__gxx_personality_v0
	.cfi_lsda 0x1b,.LLSDA1997
	leaq	8(%rsp), %r10
	.cfi_def_cfa 10, 0
	andq	$-32, %rsp
	pushq	-8(%r10)
	pushq	%rbp
	.cfi_escape 0x10,0x6,0x2,0x76,0
	movq	%rsp, %rbp
	pushq	%r15
	pushq	%r14
	pushq	%r13
	pushq	%r12
	.cfi_escape 0x10,0xf,0x2,0x76,0x78
	.cfi_escape 0x10,0xe,0x2,0x76,0x70
	.cfi_escape 0x10,0xd,0x2,0x76,0x68
	.cfi_escape 0x10,0xc,0x2,0x76,0x60
	movq	%rdi, %r13
	pushq	%r10
	.cfi_escape 0xf,0x3,0x76,0x58,0x6
	pushq	%rbx
	movq	%r9, %r14
	.cfi_escape 0x10,0x3,0x2,0x76,0x50
	movq	%rcx, %rbx
	subq	$2464, %rsp
	movq	STROBE_256@GOTPCREL(%rip), %r12
	movq	%rsi, -2432(%rbp)
	movq	%fs:40, %rax
	movq	%rax, -56(%rbp)
	xorl	%eax, %eax
	leaq	-1776(%rbp), %rax
	movq	%rdx, -2488(%rbp)
	movl	$1, %edx
	movq	%r12, %rsi
	movq	%r8, -2480(%rbp)
	movq	%rax, %rdi
	movq	%rax, -2424(%rbp)
.LEHB41:
	call	strobe_init@PLT
.LEHE41:
	leaq	-1568(%rbp), %r15
	xorl	%edx, %edx
	movq	%r12, %rsi
	movq	%r15, %rdi
.LEHB42:
	call	strobe_init@PLT
.LEHE42:
	leaq	-2288(%rbp), %rax
	movq	%r13, %rsi
	movq	%rax, %rdi
	movq	%rax, -2440(%rbp)
	call	_ZN5decaf5Ed4486ScalarC1ERNS_9SpongeRngE
	movq	16(%rbx), %rdx
	movq	8(%rbx), %rsi
	xorl	%r8d, %r8d
	movq	-2424(%rbp), %rdi
	movl	$1, %ecx
.LEHB43:
	call	strobe_plaintext@PLT
.LEHE43:
	testq	%rax, %rax
	je	.L845
	movq	16(%rbx), %rdx
	movq	8(%rbx), %rsi
	xorl	%r8d, %r8d
	xorl	%ecx, %ecx
	movq	%r15, %rdi
.LEHB44:
	call	strobe_plaintext@PLT
.LEHE44:
	testq	%rax, %rax
	je	.L846
	movq	decaf_448_precomputed_base@GOTPCREL(%rip), %r12
	leaq	-336(%rbp), %rdi
	movl	$32, %ecx
	movq	decaf_448_point_identity@GOTPCREL(%rip), %rsi
	leaq	-336(%rbp), %r13
	movq	-2440(%rbp), %rdx
	rep movsq
	movq	(%r12), %rsi
	movq	%r13, %rdi
.LEHB45:
	call	decaf_448_precomputed_scalarmul@PLT
.LEHE45:
	leaq	16+_ZTVN5decaf12SecureBufferE(%rip), %rax
	movl	$56, %edi
	movq	$0, -2408(%rbp)
	movq	$56, -2400(%rbp)
	movq	%rax, -2416(%rbp)
.LEHB46:
	call	_Znam@PLT
.LEHE46:
	leaq	8(%rax), %rdi
	movq	%rax, %rcx
	movq	%rax, -2408(%rbp)
	movq	%rax, %rdx
	movq	$0, (%rax)
	movq	$0, 48(%rax)
	andq	$-8, %rdi
	xorl	%eax, %eax
	movq	%r13, %rsi
	subq	%rdi, %rcx
	addl	$56, %ecx
	shrl	$3, %ecx
	rep stosq
	movq	%rdx, %rdi
.LEHB47:
	call	decaf_448_point_encode@PLT
.LEHE47:
	movq	%r13, %rdi
.LEHB48:
	call	decaf_448_point_destroy@PLT
.LEHE48:
	movq	-2400(%rbp), %rdx
	movq	-2408(%rbp), %rsi
	xorl	%r8d, %r8d
	movl	$1, %ecx
	movq	%r15, %rdi
.LEHB49:
	call	strobe_plaintext@PLT
.LEHE49:
	testq	%rax, %rax
	je	.L847
	movq	-2400(%rbp), %rdx
	movq	-2408(%rbp), %rsi
	xorl	%r8d, %r8d
	movq	-2424(%rbp), %rdi
	xorl	%ecx, %ecx
.LEHB50:
	call	strobe_plaintext@PLT
.LEHE50:
	testq	%rax, %rax
	je	.L848
	leaq	-2224(%rbp), %rax
	movq	-2432(%rbp), %rsi
	movq	%rax, %rdi
	movq	%rax, -2448(%rbp)
	call	_ZN5decaf5Ed4486ScalarC1ERNS_9SpongeRngE
	movq	16(%r14), %rdx
	movq	8(%r14), %rsi
	xorl	%r8d, %r8d
	movl	$1, %ecx
	movq	%r15, %rdi
.LEHB51:
	call	strobe_plaintext@PLT
.LEHE51:
	testq	%rax, %rax
	je	.L849
	movq	16(%r14), %rdx
	movq	8(%r14), %rsi
	xorl	%r8d, %r8d
	movq	-2424(%rbp), %rdi
	xorl	%ecx, %ecx
.LEHB52:
	call	strobe_plaintext@PLT
.LEHE52:
	testq	%rax, %rax
	je	.L850
	movq	%r13, %rdi
	movl	$32, %ecx
	movq	decaf_448_point_identity@GOTPCREL(%rip), %rsi
	rep movsq
	movq	(%r12), %rax
	leaq	-336(%rbp), %r13
	movq	-2448(%rbp), %rdx
	movq	%r13, %rdi
	movq	%rax, %rsi
.LEHB53:
	call	decaf_448_precomputed_scalarmul@PLT
.LEHE53:
	leaq	16+_ZTVN5decaf12SecureBufferE(%rip), %rax
	movl	$56, %edi
	movq	$0, -2376(%rbp)
	movq	$56, -2368(%rbp)
	movq	%rax, -2384(%rbp)
.LEHB54:
	call	_Znam@PLT
.LEHE54:
	leaq	8(%rax), %rdi
	movq	%rax, %rcx
	movq	%rax, -2376(%rbp)
	movq	%rax, %rdx
	movq	$0, (%rax)
	movq	$0, 48(%rax)
	andq	$-8, %rdi
	xorl	%eax, %eax
	movq	%r13, %rsi
	subq	%rdi, %rcx
	addl	$56, %ecx
	shrl	$3, %ecx
	rep stosq
	movq	%rdx, %rdi
.LEHB55:
	call	decaf_448_point_encode@PLT
.LEHE55:
	movq	%r13, %rdi
.LEHB56:
	call	decaf_448_point_destroy@PLT
.LEHE56:
	movq	-2368(%rbp), %rdx
	movq	-2376(%rbp), %rsi
	xorl	%r8d, %r8d
	movl	$1, %ecx
	movq	%r15, %rdi
.LEHB57:
	call	strobe_plaintext@PLT
.LEHE57:
	testq	%rax, %rax
	je	.L851
	movl	$56, %edi
.LEHB58:
	call	_Znam@PLT
.LEHE58:
	leaq	8(%rax), %rdi
	movq	%rax, %rcx
	movq	%rax, %r12
	movq	$0, (%rax)
	movq	$0, 48(%rax)
	xorl	%eax, %eax
	andq	$-8, %rdi
	movl	$56, %edx
	movq	%r12, %rsi
	subq	%rdi, %rcx
	addl	$56, %ecx
	shrl	$3, %ecx
	rep stosq
	movq	%r15, %rdi
.LEHB59:
	call	strobe_prng@PLT
.LEHE59:
	leaq	-2160(%rbp), %rax
	movl	$56, %edx
	movq	%r12, %rsi
	movq	%rax, %rdi
	movq	%rax, -2464(%rbp)
.LEHB60:
	call	decaf_448_scalar_decode_long@PLT
.LEHE60:
	movl	$56, %esi
	movq	%r12, %rdi
.LEHB61:
	call	decaf_bzero@PLT
.LEHE61:
	movq	%r12, %rdi
	call	_ZdaPv@PLT
	movl	$56, %edi
.LEHB62:
	call	_Znam@PLT
.LEHE62:
	leaq	8(%rax), %rdi
	movq	%rax, %rcx
	movq	%rax, %r12
	movq	$0, (%rax)
	movq	$0, 48(%rax)
	xorl	%eax, %eax
	andq	$-8, %rdi
	movl	$56, %edx
	movq	%r12, %rsi
	subq	%rdi, %rcx
	addl	$56, %ecx
	shrl	$3, %ecx
	rep stosq
	movq	%r15, %rdi
.LEHB63:
	call	strobe_prng@PLT
.LEHE63:
	leaq	-2096(%rbp), %rax
	movl	$56, %edx
	movq	%r12, %rsi
	movq	%rax, %rdi
	movq	%rax, -2472(%rbp)
.LEHB64:
	call	decaf_448_scalar_decode_long@PLT
.LEHE64:
	movl	$56, %esi
	movq	%r12, %rdi
.LEHB65:
	call	decaf_bzero@PLT
.LEHE65:
	movq	%r12, %rdi
	call	_ZdaPv@PLT
	movq	-2472(%rbp), %rdx
	movq	-2448(%rbp), %rsi
	movq	%r13, %rdi
.LEHB66:
	call	decaf_448_scalar_mul@PLT
.LEHE66:
	leaq	-2032(%rbp), %rax
	movq	-2480(%rbp), %rsi
	movq	%r13, %rdx
	movq	%rax, %rdi
	movq	%rax, -2456(%rbp)
.LEHB67:
	call	decaf_448_scalar_add@PLT
.LEHE67:
	movq	%r13, %rdi
.LEHB68:
	call	decaf_448_scalar_destroy@PLT
.LEHE68:
	leaq	-1104(%rbp), %r12
	movq	-2464(%rbp), %rdx
	movq	-2456(%rbp), %rsi
	movq	%r12, %rdi
.LEHB69:
	call	decaf_448_scalar_mul@PLT
.LEHE69:
	cmpq	$56, -2400(%rbp)
	je	.L852
.L376:
	movl	$8, %edi
	leaq	16+_ZTVN5decaf15CryptoExceptionE(%rip), %rbx
	call	__cxa_allocate_exception@PLT
	leaq	_ZN5decaf15CryptoExceptionD1Ev(%rip), %rdx
	leaq	_ZTIN5decaf15CryptoExceptionE(%rip), %rsi
	movq	%rbx, (%rax)
	movq	%rax, %rdi
.LEHB70:
	call	__cxa_throw@PLT
.LEHE70:
	.p2align 4,,10
	.p2align 3
.L852:
	leaq	-592(%rbp), %rax
	movq	-2408(%rbp), %rsi
	movq	$-1, %rdx
	movq	%rax, %rdi
	movq	%rax, -2432(%rbp)
.LEHB71:
	call	decaf_448_point_decode@PLT
.LEHE71:
	testq	%rax, %rax
	je	.L376
	cmpq	$56, 16(%rbx)
	je	.L853
.L383:
	movl	$8, %edi
	leaq	16+_ZTVN5decaf15CryptoExceptionE(%rip), %rbx
	call	__cxa_allocate_exception@PLT
	leaq	_ZN5decaf15CryptoExceptionD1Ev(%rip), %rdx
	leaq	_ZTIN5decaf15CryptoExceptionE(%rip), %rsi
	movq	%rbx, (%rax)
	movq	%rax, %rdi
.LEHB72:
	call	__cxa_throw@PLT
.LEHE72:
	.p2align 4,,10
	.p2align 3
.L853:
	movq	8(%rbx), %rsi
	leaq	-848(%rbp), %rbx
	movq	$-1, %rdx
	movq	%rbx, %rdi
.LEHB73:
	call	decaf_448_point_decode@PLT
.LEHE73:
	testq	%rax, %rax
	je	.L383
	movq	-2432(%rbp), %rcx
	movq	-2456(%rbp), %rdx
	movq	%r12, %r8
	movq	%rbx, %rsi
	movq	%r13, %rdi
.LEHB74:
	call	decaf_448_point_double_scalarmul@PLT
.LEHE74:
	leaq	16+_ZTVN5decaf12SecureBufferE(%rip), %rax
	movl	$56, %edi
	movq	$0, -2312(%rbp)
	movq	$56, -2304(%rbp)
	movq	%rax, -2320(%rbp)
.LEHB75:
	call	_Znam@PLT
.LEHE75:
	leaq	8(%rax), %rdi
	movq	%rax, %rcx
	movq	%rax, -2312(%rbp)
	movq	%rax, %rdx
	movq	$0, (%rax)
	movq	$0, 48(%rax)
	andq	$-8, %rdi
	xorl	%eax, %eax
	movq	%r13, %rsi
	subq	%rdi, %rcx
	addl	$56, %ecx
	shrl	$3, %ecx
	rep stosq
	movq	%rdx, %rdi
.LEHB76:
	call	decaf_448_point_encode@PLT
.LEHE76:
	movq	-2304(%rbp), %rdx
	movq	-2312(%rbp), %rsi
	xorl	%ecx, %ecx
	movq	%r15, %rdi
.LEHB77:
	call	strobe_key@PLT
.LEHE77:
	testq	%rax, %rax
	je	.L854
	movq	-2312(%rbp), %rdi
	leaq	16+_ZTVN5decaf12SecureBufferE(%rip), %rax
	movq	%rax, -2320(%rbp)
	testq	%rdi, %rdi
	je	.L401
	movq	-2304(%rbp), %rsi
.LEHB78:
	call	decaf_bzero@PLT
.LEHE78:
	movq	-2312(%rbp), %rdi
	testq	%rdi, %rdi
	je	.L401
	call	_ZdaPv@PLT
.L401:
	movq	%r13, %rdi
.LEHB79:
	call	decaf_448_point_destroy@PLT
.LEHE79:
	movq	%rbx, %rdi
.LEHB80:
	call	decaf_448_point_destroy@PLT
.LEHE80:
	movq	-2432(%rbp), %rdi
.LEHB81:
	call	decaf_448_point_destroy@PLT
.LEHE81:
	movq	%r12, %rdi
.LEHB82:
	call	decaf_448_scalar_destroy@PLT
.LEHE82:
	leaq	16+_ZTVN5decaf12SecureBufferE(%rip), %rax
	movl	$8, %edi
	movq	$0, -2344(%rbp)
	movq	$8, -2336(%rbp)
	movq	%rax, -2352(%rbp)
.LEHB83:
	call	_Znam@PLT
.LEHE83:
	movq	-2336(%rbp), %rdx
	movq	%rax, -2344(%rbp)
	movq	$0, (%rax)
	cmpq	$255, %rdx
	ja	.L855
	movq	%rax, %rsi
	movq	%r15, %rdi
.LEHB84:
	call	strobe_produce_auth@PLT
.LEHE84:
	testq	%rax, %rax
	je	.L856
	movq	-2368(%rbp), %rdx
	movq	-2376(%rbp), %rsi
	xorl	%r8d, %r8d
	movq	-2424(%rbp), %rdi
	xorl	%ecx, %ecx
.LEHB85:
	call	strobe_plaintext@PLT
.LEHE85:
	testq	%rax, %rax
	je	.L857
	movl	$56, %edi
.LEHB86:
	call	_Znam@PLT
.LEHE86:
	leaq	8(%rax), %rdi
	movq	%rax, %rcx
	movq	$0, (%rax)
	movq	$0, 48(%rax)
	movq	%rax, %rbx
	xorl	%eax, %eax
	andq	$-8, %rdi
	movl	$56, %edx
	movq	%rbx, %rsi
	subq	%rdi, %rcx
	addl	$56, %ecx
	shrl	$3, %ecx
	rep stosq
	movq	-2424(%rbp), %rdi
.LEHB87:
	call	strobe_prng@PLT
.LEHE87:
	leaq	-1968(%rbp), %rax
	movl	$56, %edx
	movq	%rbx, %rsi
	movq	%rax, %rdi
	movq	%rax, -2480(%rbp)
.LEHB88:
	call	decaf_448_scalar_decode_long@PLT
.LEHE88:
	movl	$56, %esi
	movq	%rbx, %rdi
.LEHB89:
	call	decaf_bzero@PLT
.LEHE89:
	movq	%rbx, %rdi
	call	_ZdaPv@PLT
	movl	$56, %edi
.LEHB90:
	call	_Znam@PLT
.LEHE90:
	leaq	8(%rax), %rdi
	movq	%rax, %rcx
	movq	$0, (%rax)
	movq	$0, 48(%rax)
	movq	%rax, %rbx
	xorl	%eax, %eax
	andq	$-8, %rdi
	movl	$56, %edx
	movq	%rbx, %rsi
	subq	%rdi, %rcx
	addl	$56, %ecx
	shrl	$3, %ecx
	rep stosq
	movq	-2424(%rbp), %rdi
.LEHB91:
	call	strobe_prng@PLT
.LEHE91:
	leaq	-1904(%rbp), %rax
	movl	$56, %edx
	movq	%rbx, %rsi
	movq	%rax, %rdi
	movq	%rax, -2496(%rbp)
.LEHB92:
	call	decaf_448_scalar_decode_long@PLT
.LEHE92:
	movl	$56, %esi
	movq	%rbx, %rdi
.LEHB93:
	call	decaf_bzero@PLT
.LEHE93:
	movq	%rbx, %rdi
	call	_ZdaPv@PLT
	movq	-2464(%rbp), %rdx
	movq	-2440(%rbp), %rsi
	movq	%r13, %rdi
.LEHB94:
	call	decaf_448_scalar_mul@PLT
.LEHE94:
	leaq	-1840(%rbp), %rbx
	movq	-2488(%rbp), %rsi
	movq	%r13, %rdx
	movq	%rbx, %rdi
.LEHB95:
	call	decaf_448_scalar_add@PLT
.LEHE95:
	movq	%r13, %rdi
.LEHB96:
	call	decaf_448_scalar_destroy@PLT
.LEHE96:
	movq	-2472(%rbp), %rdx
	movq	-2432(%rbp), %rdi
	movq	%rbx, %rsi
.LEHB97:
	call	decaf_448_scalar_mul@PLT
.LEHE97:
	cmpq	$56, -2368(%rbp)
	je	.L858
.L457:
	movl	$8, %edi
	call	__cxa_allocate_exception@PLT
	leaq	16+_ZTVN5decaf15CryptoExceptionE(%rip), %rsi
	leaq	_ZN5decaf15CryptoExceptionD1Ev(%rip), %rdx
	movq	%rax, %rdi
	movq	%rsi, (%rax)
	leaq	_ZTIN5decaf15CryptoExceptionE(%rip), %rsi
.LEHB98:
	call	__cxa_throw@PLT
.LEHE98:
	.p2align 4,,10
	.p2align 3
.L858:
	movq	-2376(%rbp), %rsi
	movq	$-1, %rdx
	movq	%r12, %rdi
.LEHB99:
	call	decaf_448_point_decode@PLT
.LEHE99:
	testq	%rax, %rax
	je	.L457
	cmpq	$56, 16(%r14)
	je	.L859
.L464:
	movl	$8, %edi
	call	__cxa_allocate_exception@PLT
	leaq	16+_ZTVN5decaf15CryptoExceptionE(%rip), %rsi
	leaq	_ZN5decaf15CryptoExceptionD1Ev(%rip), %rdx
	movq	%rax, %rdi
	movq	%rsi, (%rax)
	leaq	_ZTIN5decaf15CryptoExceptionE(%rip), %rsi
.LEHB100:
	call	__cxa_throw@PLT
.LEHE100:
	.p2align 4,,10
	.p2align 3
.L859:
	movq	8(%r14), %rsi
	leaq	-1360(%rbp), %r14
	movq	$-1, %rdx
	movq	%r14, %rdi
.LEHB101:
	call	decaf_448_point_decode@PLT
.LEHE101:
	testq	%rax, %rax
	je	.L464
	movq	-2432(%rbp), %r8
	movq	%r12, %rcx
	movq	%rbx, %rdx
	movq	%r14, %rsi
	movq	%r13, %rdi
.LEHB102:
	call	decaf_448_point_double_scalarmul@PLT
.LEHE102:
	leaq	16+_ZTVN5decaf12SecureBufferE(%rip), %rax
	movl	$56, %edi
	movq	$0, -2312(%rbp)
	movq	$56, -2304(%rbp)
	movq	%rax, -2320(%rbp)
.LEHB103:
	call	_Znam@PLT
.LEHE103:
	leaq	8(%rax), %rdi
	movq	%rax, %rcx
	movq	%rax, -2312(%rbp)
	movq	%rax, %rdx
	movq	$0, (%rax)
	movq	$0, 48(%rax)
	andq	$-8, %rdi
	xorl	%eax, %eax
	movq	%r13, %rsi
	subq	%rdi, %rcx
	addl	$56, %ecx
	shrl	$3, %ecx
	rep stosq
	movq	%rdx, %rdi
.LEHB104:
	call	decaf_448_point_encode@PLT
.LEHE104:
	movq	-2304(%rbp), %rdx
	movq	-2312(%rbp), %rsi
	xorl	%ecx, %ecx
	movq	-2424(%rbp), %rdi
.LEHB105:
	call	strobe_key@PLT
.LEHE105:
	testq	%rax, %rax
	je	.L860
	movq	-2312(%rbp), %rdi
	leaq	16+_ZTVN5decaf12SecureBufferE(%rip), %rax
	movq	%rax, -2320(%rbp)
	testq	%rdi, %rdi
	je	.L482
	movq	-2304(%rbp), %rsi
.LEHB106:
	call	decaf_bzero@PLT
.LEHE106:
	movq	-2312(%rbp), %rdi
	testq	%rdi, %rdi
	je	.L482
	call	_ZdaPv@PLT
.L482:
	movq	%r13, %rdi
.LEHB107:
	call	decaf_448_point_destroy@PLT
.LEHE107:
	movq	%r14, %rdi
.LEHB108:
	call	decaf_448_point_destroy@PLT
.LEHE108:
	movq	%r12, %rdi
.LEHB109:
	call	decaf_448_point_destroy@PLT
.LEHE109:
	movq	-2432(%rbp), %rdi
.LEHB110:
	call	decaf_448_scalar_destroy@PLT
.LEHE110:
	movq	-2336(%rbp), %rdx
	leaq	-1(%rdx), %rax
	cmpq	$254, %rax
	jbe	.L861
	movl	$8, %edi
	call	__cxa_allocate_exception@PLT
	leaq	16+_ZTVN5decaf15LengthExceptionE(%rip), %rsi
	leaq	_ZN5decaf15LengthExceptionD1Ev(%rip), %rdx
	movq	%rax, %rdi
	movq	%rsi, (%rax)
	leaq	_ZTIN5decaf15LengthExceptionE(%rip), %rsi
.LEHB111:
	call	__cxa_throw@PLT
	.p2align 4,,10
	.p2align 3
.L861:
	movq	-2344(%rbp), %rsi
	movq	-2424(%rbp), %rdi
	call	strobe_verify_auth@PLT
.LEHE111:
	testq	%rax, %rax
	je	.L862
	leaq	16+_ZTVN5decaf12SecureBufferE(%rip), %rax
	movl	$8, %edi
	movq	$0, -2312(%rbp)
	movq	$8, -2304(%rbp)
	movq	%rax, -2320(%rbp)
.LEHB112:
	call	_Znam@PLT
.LEHE112:
	movq	-2304(%rbp), %rdx
	movq	%rax, -2312(%rbp)
	movq	$0, (%rax)
	cmpq	$255, %rdx
	ja	.L863
	movq	-2424(%rbp), %rdi
	movq	%rax, %rsi
.LEHB113:
	call	strobe_produce_auth@PLT
.LEHE113:
	testq	%rax, %rax
	je	.L864
	movq	STROBE_KEYED_128@GOTPCREL(%rip), %r12
	movq	-2424(%rbp), %rdi
	movq	%r12, %rsi
.LEHB114:
	call	strobe_respec@PLT
.LEHE114:
	testq	%rax, %rax
	je	.L865
	movq	-2304(%rbp), %rdx
	leaq	-1(%rdx), %rax
	cmpq	$254, %rax
	jbe	.L866
	movl	$8, %edi
	call	__cxa_allocate_exception@PLT
	leaq	16+_ZTVN5decaf15LengthExceptionE(%rip), %rsi
	leaq	_ZN5decaf15LengthExceptionD1Ev(%rip), %rdx
	movq	%rax, %rdi
	movq	%rsi, (%rax)
	leaq	_ZTIN5decaf15LengthExceptionE(%rip), %rsi
.LEHB115:
	call	__cxa_throw@PLT
	.p2align 4,,10
	.p2align 3
.L866:
	movq	-2312(%rbp), %rsi
	movq	%r15, %rdi
	call	strobe_verify_auth@PLT
.LEHE115:
	testq	%rax, %rax
	je	.L867
	movq	%r12, %rsi
	movq	%r15, %rdi
.LEHB116:
	call	strobe_respec@PLT
.LEHE116:
	testq	%rax, %rax
	je	.L868
	movq	-2312(%rbp), %rdi
	leaq	16+_ZTVN5decaf12SecureBufferE(%rip), %rax
	movq	%rax, -2320(%rbp)
	testq	%rdi, %rdi
	je	.L522
	movq	-2304(%rbp), %rsi
.LEHB117:
	call	decaf_bzero@PLT
.LEHE117:
	movq	-2312(%rbp), %rdi
	testq	%rdi, %rdi
	je	.L522
	call	_ZdaPv@PLT
.L522:
	movq	%rbx, %rdi
.LEHB118:
	call	decaf_448_scalar_destroy@PLT
.LEHE118:
	movq	-2496(%rbp), %rdi
.LEHB119:
	call	decaf_448_scalar_destroy@PLT
.LEHE119:
	movq	-2480(%rbp), %rdi
.LEHB120:
	call	decaf_448_scalar_destroy@PLT
.LEHE120:
	movq	-2344(%rbp), %rdi
	leaq	16+_ZTVN5decaf12SecureBufferE(%rip), %rax
	movq	%rax, -2352(%rbp)
	testq	%rdi, %rdi
	je	.L532
	movq	-2336(%rbp), %rsi
.LEHB121:
	call	decaf_bzero@PLT
.LEHE121:
	movq	-2344(%rbp), %rdi
	testq	%rdi, %rdi
	je	.L532
	call	_ZdaPv@PLT
.L532:
	movq	-2456(%rbp), %rdi
.LEHB122:
	call	decaf_448_scalar_destroy@PLT
.LEHE122:
	movq	-2472(%rbp), %rdi
.LEHB123:
	call	decaf_448_scalar_destroy@PLT
.LEHE123:
	movq	-2464(%rbp), %rdi
.LEHB124:
	call	decaf_448_scalar_destroy@PLT
.LEHE124:
	movq	-2376(%rbp), %rdi
	leaq	16+_ZTVN5decaf12SecureBufferE(%rip), %rax
	movq	%rax, -2384(%rbp)
	testq	%rdi, %rdi
	je	.L545
	movq	-2368(%rbp), %rsi
.LEHB125:
	call	decaf_bzero@PLT
.LEHE125:
	movq	-2376(%rbp), %rdi
	testq	%rdi, %rdi
	je	.L545
	call	_ZdaPv@PLT
.L545:
	movq	-2448(%rbp), %rdi
.LEHB126:
	call	decaf_448_scalar_destroy@PLT
.LEHE126:
	movq	-2408(%rbp), %rdi
	leaq	16+_ZTVN5decaf12SecureBufferE(%rip), %rax
	movq	%rax, -2416(%rbp)
	testq	%rdi, %rdi
	je	.L552
	movq	-2400(%rbp), %rsi
.LEHB127:
	call	decaf_bzero@PLT
.LEHE127:
	movq	-2408(%rbp), %rdi
	testq	%rdi, %rdi
	je	.L552
	call	_ZdaPv@PLT
.L552:
	movq	-2440(%rbp), %rdi
.LEHB128:
	call	decaf_448_scalar_destroy@PLT
.LEHE128:
	movq	%r15, %rdi
.LEHB129:
	call	sponge_destroy@PLT
.LEHE129:
	movq	-2424(%rbp), %rdi
.LEHB130:
	call	sponge_destroy@PLT
.LEHE130:
	movq	-56(%rbp), %rax
	xorq	%fs:40, %rax
	jne	.L869
	addq	$2464, %rsp
	popq	%rbx
	popq	%r10
	.cfi_remember_state
	.cfi_def_cfa 10, 0
	popq	%r12
	popq	%r13
	popq	%r14
	popq	%r15
	popq	%rbp
	leaq	-8(%r10), %rsp
	.cfi_def_cfa 7, 8
	ret
.L608:
	.cfi_restore_state
	cmpq	$-4, %rdx
	je	.L870
.L786:
	movq	%rax, %rbx
	vzeroupper
.L382:
	movq	%r12, %rdi
	call	_ZN5decaf5Ed4486ScalarD1Ev
.L424:
	movq	-2456(%rbp), %rdi
	call	_ZN5decaf5Ed4486ScalarD1Ev
	movq	-2472(%rbp), %rdi
	call	_ZN5decaf5Ed4486ScalarD1Ev
.L568:
	movq	-2464(%rbp), %rdi
	call	_ZN5decaf5Ed4486ScalarD1Ev
.L347:
	leaq	16+_ZTVN5decaf12SecureBufferE(%rip), %rax
	movq	%rax, -2384(%rbp)
	leaq	-2384(%rbp), %rax
	leaq	16(%rax), %rsi
	leaq	8(%rax), %rdi
	call	_ZN5decaf12SecureBuffer5clearEv.isra.9
.L330:
	movq	-2448(%rbp), %rdi
	call	_ZN5decaf5Ed4486ScalarD1Ev
.L323:
	leaq	16+_ZTVN5decaf12SecureBufferE(%rip), %rax
	movq	%rax, -2416(%rbp)
	leaq	-2416(%rbp), %rax
	leaq	16(%rax), %rsi
	leaq	8(%rax), %rdi
	call	_ZN5decaf12SecureBuffer5clearEv.isra.9
.L306:
	movq	-2440(%rbp), %rdi
	call	_ZN5decaf5Ed4486ScalarD1Ev
	movq	%r15, %rdi
	call	_ZN5decaf12KeccakSpongeD2Ev
	movq	-2424(%rbp), %rdi
	call	_ZN5decaf12KeccakSpongeD2Ev
	movq	%rbx, %rdi
.LEHB131:
	call	_Unwind_Resume@PLT
.LEHE131:
.L617:
	cmpq	$-4, %rdx
	je	.L871
.L785:
	movq	%rax, %rbx
	vzeroupper
.L389:
	movq	-2432(%rbp), %rdi
	call	_ZN5decaf5Ed4485PointD1Ev
	jmp	.L382
.L635:
	cmpq	$-4, %rdx
	je	.L872
.L788:
	movq	%rax, %r12
	vzeroupper
.L463:
	movq	-2432(%rbp), %rdi
	call	_ZN5decaf5Ed4486ScalarD1Ev
.L502:
	movq	%rbx, %rdi
	movq	%r12, %rbx
	call	_ZN5decaf5Ed4486ScalarD1Ev
	movq	-2496(%rbp), %rdi
	call	_ZN5decaf5Ed4486ScalarD1Ev
.L567:
	movq	-2480(%rbp), %rdi
	call	_ZN5decaf5Ed4486ScalarD1Ev
.L428:
	leaq	16+_ZTVN5decaf12SecureBufferE(%rip), %rax
	movq	%rax, -2352(%rbp)
	leaq	-2352(%rbp), %rax
	leaq	16(%rax), %rsi
	leaq	8(%rax), %rdi
	call	_ZN5decaf12SecureBuffer5clearEv.isra.9
	jmp	.L424
.L644:
	cmpq	$-4, %rdx
	je	.L873
.L787:
	movq	%rax, %r13
	vzeroupper
.L470:
	movq	%r12, %rdi
	movq	%r13, %r12
	call	_ZN5decaf5Ed4485PointD1Ev
	jmp	.L463
.L650:
	cmpq	$-9, %rdx
	je	.L874
.L790:
	movq	%rax, %r12
	vzeroupper
	jmp	.L502
.L660:
	cmpq	$-9, %rdx
	je	.L875
.L789:
	movq	%rax, %r12
	leaq	16+_ZTVN5decaf12SecureBufferE(%rip), %rax
	movq	%rax, -2320(%rbp)
	leaq	-2320(%rbp), %rax
	leaq	16(%rax), %rsi
	leaq	8(%rax), %rdi
	vzeroupper
	call	_ZN5decaf12SecureBuffer5clearEv.isra.9
	jmp	.L502
.L848:
	movl	$8, %edi
	leaq	16+_ZTVN5decaf17ProtocolExceptionE(%rip), %rbx
	call	__cxa_allocate_exception@PLT
	leaq	_ZN5decaf17ProtocolExceptionD1Ev(%rip), %rdx
	leaq	_ZTIN5decaf17ProtocolExceptionE(%rip), %rsi
	movq	%rbx, (%rax)
	movq	%rax, %rdi
.LEHB132:
	call	__cxa_throw@PLT
.LEHE132:
.L597:
	addq	$1, %rdx
	je	.L876
.L794:
	movq	%rax, %rbx
	vzeroupper
	jmp	.L323
.L869:
	call	__stack_chk_fail@PLT
.L845:
	movl	$8, %edi
	leaq	16+_ZTVN5decaf17ProtocolExceptionE(%rip), %rbx
	call	__cxa_allocate_exception@PLT
	leaq	_ZN5decaf17ProtocolExceptionD1Ev(%rip), %rdx
	leaq	_ZTIN5decaf17ProtocolExceptionE(%rip), %rsi
	movq	%rbx, (%rax)
	movq	%rax, %rdi
.LEHB133:
	call	__cxa_throw@PLT
.LEHE133:
.L588:
	addq	$1, %rdx
	je	.L877
.L795:
	movq	%rax, %rbx
	vzeroupper
	jmp	.L306
.L850:
	movl	$8, %edi
	leaq	16+_ZTVN5decaf17ProtocolExceptionE(%rip), %rbx
	call	__cxa_allocate_exception@PLT
	leaq	_ZN5decaf17ProtocolExceptionD1Ev(%rip), %rdx
	leaq	_ZTIN5decaf17ProtocolExceptionE(%rip), %rsi
	movq	%rbx, (%rax)
	movq	%rax, %rdi
.LEHB134:
	call	__cxa_throw@PLT
.LEHE134:
.L599:
	addq	$1, %rdx
	je	.L878
.L793:
	movq	%rax, %rbx
	vzeroupper
	jmp	.L330
.L847:
	movl	$8, %edi
	leaq	16+_ZTVN5decaf17ProtocolExceptionE(%rip), %rbx
	call	__cxa_allocate_exception@PLT
	leaq	_ZN5decaf17ProtocolExceptionD1Ev(%rip), %rdx
	leaq	_ZTIN5decaf17ProtocolExceptionE(%rip), %rsi
	movq	%rbx, (%rax)
	movq	%rax, %rdi
.LEHB135:
	call	__cxa_throw@PLT
.LEHE135:
.L592:
	addq	$1, %rdx
	jne	.L794
	movq	%rax, %rdi
	vzeroupper
.LEHB136:
	call	__cxa_call_unexpected@PLT
.LEHE136:
.L849:
	movl	$8, %edi
	leaq	16+_ZTVN5decaf17ProtocolExceptionE(%rip), %rbx
	call	__cxa_allocate_exception@PLT
	leaq	_ZN5decaf17ProtocolExceptionD1Ev(%rip), %rdx
	leaq	_ZTIN5decaf17ProtocolExceptionE(%rip), %rsi
	movq	%rbx, (%rax)
	movq	%rax, %rdi
.LEHB137:
	call	__cxa_throw@PLT
.LEHE137:
.L598:
	addq	$1, %rdx
	jne	.L793
	movq	%rax, %rdi
	vzeroupper
.LEHB138:
	call	__cxa_call_unexpected@PLT
.LEHE138:
.L846:
	movl	$8, %edi
	leaq	16+_ZTVN5decaf17ProtocolExceptionE(%rip), %rbx
	call	__cxa_allocate_exception@PLT
	leaq	_ZN5decaf17ProtocolExceptionD1Ev(%rip), %rdx
	leaq	_ZTIN5decaf17ProtocolExceptionE(%rip), %rsi
	movq	%rbx, (%rax)
	movq	%rax, %rdi
.LEHB139:
	call	__cxa_throw@PLT
.LEHE139:
.L591:
	addq	$1, %rdx
	jne	.L795
	movq	%rax, %rdi
	vzeroupper
.LEHB140:
	call	__cxa_call_unexpected@PLT
.LEHE140:
.L851:
	movl	$8, %edi
	leaq	16+_ZTVN5decaf17ProtocolExceptionE(%rip), %rbx
	call	__cxa_allocate_exception@PLT
	leaq	_ZN5decaf17ProtocolExceptionD1Ev(%rip), %rdx
	leaq	_ZTIN5decaf17ProtocolExceptionE(%rip), %rsi
	movq	%rbx, (%rax)
	movq	%rax, %rdi
.LEHB141:
	call	__cxa_throw@PLT
.LEHE141:
.L600:
	addq	$1, %rdx
	je	.L879
.L792:
	movq	%rax, %rbx
	vzeroupper
	jmp	.L347
.L855:
	movl	$8, %edi
	leaq	16+_ZTVN5decaf15LengthExceptionE(%rip), %rbx
	call	__cxa_allocate_exception@PLT
	leaq	_ZN5decaf15LengthExceptionD1Ev(%rip), %rdx
	leaq	_ZTIN5decaf15LengthExceptionE(%rip), %rsi
	movq	%rbx, (%rax)
	movq	%rax, %rdi
.LEHB142:
	call	__cxa_throw@PLT
.LEHE142:
.L630:
	cmpq	$-6, %rdx
	je	.L880
.L782:
	movq	%rax, %rbx
	leaq	16+_ZTVN5decaf12SecureBufferE(%rip), %rax
	movq	%rdx, %r12
	movq	%rax, -2352(%rbp)
	leaq	-2352(%rbp), %rax
	leaq	16(%rax), %rsi
	leaq	8(%rax), %rdi
	vzeroupper
	call	_ZN5decaf12SecureBuffer5clearEv.isra.9
	leaq	16+_ZTVN5decaf5BlockE(%rip), %rax
	movq	%r12, %rdx
	movq	%rax, -2352(%rbp)
	movq	%rbx, %rax
.L422:
	addq	$1, %rdx
	je	.L423
	movq	%rax, %rbx
	jmp	.L424
.L860:
	movl	$8, %edi
	call	__cxa_allocate_exception@PLT
	leaq	16+_ZTVN5decaf17ProtocolExceptionE(%rip), %rsi
	leaq	_ZN5decaf17ProtocolExceptionD1Ev(%rip), %rdx
	movq	%rax, %rdi
	movq	%rsi, (%rax)
	leaq	_ZTIN5decaf17ProtocolExceptionE(%rip), %rsi
.LEHB143:
	call	__cxa_throw@PLT
.LEHE143:
.L646:
	addq	$1, %rdx
	je	.L881
.L481:
	leaq	-2320(%rbp), %rdx
	movq	%rax, -2488(%rbp)
	leaq	16+_ZTVN5decaf12SecureBufferE(%rip), %rax
	leaq	16(%rdx), %rsi
	leaq	8(%rdx), %rdi
	movq	%rax, -2320(%rbp)
	vzeroupper
	call	_ZN5decaf12SecureBuffer5clearEv.isra.9
	movq	%r13, %rdi
	call	_ZN5decaf5Ed4485PointD1Ev
	movq	%r14, %rdi
	call	_ZN5decaf5Ed4485PointD1Ev
	movq	-2488(%rbp), %rax
	movq	%rax, %r13
	jmp	.L470
.L857:
	movl	$8, %edi
	leaq	16+_ZTVN5decaf17ProtocolExceptionE(%rip), %rbx
	call	__cxa_allocate_exception@PLT
	leaq	_ZN5decaf17ProtocolExceptionD1Ev(%rip), %rdx
	leaq	_ZTIN5decaf17ProtocolExceptionE(%rip), %rsi
	movq	%rbx, (%rax)
	movq	%rax, %rdi
.LEHB144:
	call	__cxa_throw@PLT
.LEHE144:
.L631:
	addq	$1, %rdx
	je	.L882
.L791:
	movq	%rax, %rbx
	vzeroupper
	jmp	.L428
.L868:
	movl	$8, %edi
	call	__cxa_allocate_exception@PLT
	leaq	16+_ZTVN5decaf17ProtocolExceptionE(%rip), %rsi
	leaq	_ZN5decaf17ProtocolExceptionD1Ev(%rip), %rdx
	movq	%rax, %rdi
	movq	%rsi, (%rax)
	leaq	_ZTIN5decaf17ProtocolExceptionE(%rip), %rsi
.LEHB145:
	call	__cxa_throw@PLT
.LEHE145:
.L661:
	addq	$1, %rdx
	jne	.L789
	movq	%rax, %rdi
	vzeroupper
.LEHB146:
	call	__cxa_call_unexpected@PLT
.LEHE146:
.L854:
	movl	$8, %edi
	call	__cxa_allocate_exception@PLT
	leaq	16+_ZTVN5decaf17ProtocolExceptionE(%rip), %rsi
	leaq	_ZN5decaf17ProtocolExceptionD1Ev(%rip), %rdx
	movq	%rax, %rdi
	movq	%rsi, (%rax)
	leaq	_ZTIN5decaf17ProtocolExceptionE(%rip), %rsi
.LEHB147:
	call	__cxa_throw@PLT
.LEHE147:
.L619:
	addq	$1, %rdx
	je	.L883
.L784:
	movq	%rax, %r14
	leaq	16+_ZTVN5decaf12SecureBufferE(%rip), %rax
	movq	%rax, -2320(%rbp)
	leaq	-2320(%rbp), %rax
	leaq	16(%rax), %rsi
	leaq	8(%rax), %rdi
	vzeroupper
	call	_ZN5decaf12SecureBuffer5clearEv.isra.9
	movq	%r13, %rdi
	call	_ZN5decaf5Ed4485PointD1Ev
	movq	%rbx, %rdi
	movq	%r14, %rbx
	call	_ZN5decaf5Ed4485PointD1Ev
	jmp	.L389
.L856:
	movl	$8, %edi
	leaq	16+_ZTVN5decaf17ProtocolExceptionE(%rip), %rbx
	call	__cxa_allocate_exception@PLT
	leaq	_ZN5decaf17ProtocolExceptionD1Ev(%rip), %rdx
	leaq	_ZTIN5decaf17ProtocolExceptionE(%rip), %rsi
	movq	%rbx, (%rax)
	movq	%rax, %rdi
.LEHB148:
	call	__cxa_throw@PLT
.LEHE148:
.L862:
	movl	$8, %edi
	call	__cxa_allocate_exception@PLT
	leaq	16+_ZTVN5decaf15CryptoExceptionE(%rip), %rsi
	leaq	_ZN5decaf15CryptoExceptionD1Ev(%rip), %rdx
	movq	%rax, %rdi
	movq	%rsi, (%rax)
	leaq	_ZTIN5decaf15CryptoExceptionE(%rip), %rsi
.LEHB149:
	call	__cxa_throw@PLT
.LEHE149:
.L864:
	movl	$8, %edi
	call	__cxa_allocate_exception@PLT
	leaq	16+_ZTVN5decaf17ProtocolExceptionE(%rip), %rsi
	leaq	_ZN5decaf17ProtocolExceptionD1Ev(%rip), %rdx
	movq	%rax, %rdi
	movq	%rsi, (%rax)
	leaq	_ZTIN5decaf17ProtocolExceptionE(%rip), %rsi
.LEHB150:
	call	__cxa_throw@PLT
.LEHE150:
.L658:
	cmpq	$-6, %rdx
	je	.L884
.L783:
	movq	%rax, %r12
	leaq	16+_ZTVN5decaf12SecureBufferE(%rip), %rax
	movq	%rdx, %r13
	movq	%rax, -2320(%rbp)
	leaq	-2320(%rbp), %rax
	leaq	16(%rax), %rsi
	leaq	8(%rax), %rdi
	vzeroupper
	call	_ZN5decaf12SecureBuffer5clearEv.isra.9
	leaq	16+_ZTVN5decaf5BlockE(%rip), %rax
	movq	%r13, %rdx
	movq	%rax, -2320(%rbp)
	movq	%r12, %rax
.L508:
	addq	$1, %rdx
	je	.L509
	movq	%rax, %r12
	jmp	.L502
.L867:
	movl	$8, %edi
	call	__cxa_allocate_exception@PLT
	leaq	16+_ZTVN5decaf15CryptoExceptionE(%rip), %rsi
	leaq	_ZN5decaf15CryptoExceptionD1Ev(%rip), %rdx
	movq	%rax, %rdi
	movq	%rsi, (%rax)
	leaq	_ZTIN5decaf15CryptoExceptionE(%rip), %rsi
.LEHB151:
	call	__cxa_throw@PLT
.LEHE151:
.L863:
	movl	$8, %edi
	call	__cxa_allocate_exception@PLT
	leaq	16+_ZTVN5decaf15LengthExceptionE(%rip), %rsi
	leaq	_ZN5decaf15LengthExceptionD1Ev(%rip), %rdx
	movq	%rax, %rdi
	movq	%rsi, (%rax)
	leaq	_ZTIN5decaf15LengthExceptionE(%rip), %rsi
.LEHB152:
	call	__cxa_throw@PLT
.LEHE152:
.L865:
	movl	$8, %edi
	call	__cxa_allocate_exception@PLT
	leaq	16+_ZTVN5decaf17ProtocolExceptionE(%rip), %rsi
	leaq	_ZN5decaf17ProtocolExceptionD1Ev(%rip), %rdx
	movq	%rax, %rdi
	movq	%rsi, (%rax)
	leaq	_ZTIN5decaf17ProtocolExceptionE(%rip), %rsi
.LEHB153:
	call	__cxa_throw@PLT
.LEHE153:
.L659:
	addq	$1, %rdx
	jne	.L789
	movq	%rax, %rdi
	vzeroupper
.LEHB154:
	call	__cxa_call_unexpected@PLT
.LEHE154:
.L874:
	movq	%rax, %rdi
	vzeroupper
.LEHB155:
	call	__cxa_call_unexpected@PLT
.L509:
	movq	%rax, %rdi
	call	__cxa_call_unexpected@PLT
.LEHE155:
.L884:
	movq	%rax, %rdi
	vzeroupper
.LEHB156:
	call	__cxa_call_unexpected@PLT
.LEHE156:
.L580:
	jmp	.L790
.L657:
	jmp	.L783
.L665:
	cmpq	$-3, %rdx
	movq	%rax, %rdi
	je	.L558
	vzeroupper
.LEHB157:
	call	_Unwind_Resume@PLT
.L666:
	cmpq	$-3, %rdx
	movq	%rax, %rdi
	je	.L555
	vzeroupper
	call	_Unwind_Resume@PLT
.L558:
	vzeroupper
	call	__cxa_call_unexpected@PLT
.L555:
	vzeroupper
	call	__cxa_call_unexpected@PLT
.L667:
	cmpq	$-3, %rdx
	movq	%rax, %rdi
	je	.L551
	vzeroupper
	call	_Unwind_Resume@PLT
.L668:
	cmpq	$-3, %rdx
	movq	%rax, %rdi
	je	.L548
	vzeroupper
	call	_Unwind_Resume@PLT
.L551:
	vzeroupper
	call	__cxa_call_unexpected@PLT
.L548:
	vzeroupper
	call	__cxa_call_unexpected@PLT
.L663:
	cmpq	$-3, %rdx
	movq	%rax, %rdi
	je	.L564
	vzeroupper
	call	_Unwind_Resume@PLT
.L664:
	cmpq	$-3, %rdx
	movq	%rax, %rdi
	je	.L561
	vzeroupper
	call	_Unwind_Resume@PLT
.L564:
	vzeroupper
	call	__cxa_call_unexpected@PLT
.L561:
	vzeroupper
	call	__cxa_call_unexpected@PLT
.L662:
	cmpq	$-3, %rdx
	movq	%rax, %rdi
	je	.L566
	vzeroupper
	call	_Unwind_Resume@PLT
.LEHE157:
.L876:
	movq	%rax, %rdi
	vzeroupper
.LEHB158:
	call	__cxa_call_unexpected@PLT
.LEHE158:
.L566:
	vzeroupper
.LEHB159:
	call	__cxa_call_unexpected@PLT
.LEHE159:
.L575:
	jmp	.L792
.L875:
	movq	%rax, %rdi
	vzeroupper
.LEHB160:
	call	__cxa_call_unexpected@PLT
.LEHE160:
.L878:
	movq	%rax, %rdi
	vzeroupper
.LEHB161:
	call	__cxa_call_unexpected@PLT
.LEHE161:
.L574:
	jmp	.L793
.L601:
	cmpq	$-3, %rdx
	movq	%rax, %rdi
	je	.L343
	vzeroupper
.LEHB162:
	call	_Unwind_Resume@PLT
.LEHE162:
.L877:
	movq	%rax, %rdi
	vzeroupper
.LEHB163:
	call	__cxa_call_unexpected@PLT
.LEHE163:
.L343:
	vzeroupper
.LEHB164:
	call	__cxa_call_unexpected@PLT
.L573:
	jmp	.L794
.L572:
	jmp	.L795
.L652:
	cmpq	$-3, %rdx
	movq	%rax, %rdi
	je	.L494
	vzeroupper
	call	_Unwind_Resume@PLT
.L653:
	cmpq	$-3, %rdx
	movq	%rax, %rdi
	je	.L491
	vzeroupper
	call	_Unwind_Resume@PLT
.L494:
	vzeroupper
	call	__cxa_call_unexpected@PLT
.L491:
	vzeroupper
	call	__cxa_call_unexpected@PLT
.L654:
	cmpq	$-3, %rdx
	movq	%rax, %rdi
	je	.L488
	vzeroupper
	call	_Unwind_Resume@PLT
.L655:
	cmpq	$-3, %rdx
	movq	%rax, %rdi
	je	.L485
	vzeroupper
	call	_Unwind_Resume@PLT
.L488:
	vzeroupper
	call	__cxa_call_unexpected@PLT
.L485:
	vzeroupper
	call	__cxa_call_unexpected@PLT
.L651:
	cmpq	$-3, %rdx
	movq	%rax, %rdi
	je	.L498
	vzeroupper
	call	_Unwind_Resume@PLT
.LEHE164:
.L656:
	vzeroupper
	jmp	.L508
.L873:
	movq	%rax, %rdi
	vzeroupper
.LEHB165:
	call	__cxa_call_unexpected@PLT
.LEHE165:
.L498:
	vzeroupper
.LEHB166:
	call	__cxa_call_unexpected@PLT
.L583:
	jmp	.L787
.L669:
	cmpq	$-3, %rdx
	movq	%rax, %rdi
	je	.L544
	vzeroupper
	call	_Unwind_Resume@PLT
.L670:
	cmpq	$-3, %rdx
	movq	%rax, %rdi
	je	.L541
	vzeroupper
	call	_Unwind_Resume@PLT
.L544:
	vzeroupper
	call	__cxa_call_unexpected@PLT
.L541:
	vzeroupper
	call	__cxa_call_unexpected@PLT
.L671:
	cmpq	$-3, %rdx
	movq	%rax, %rdi
	je	.L538
	vzeroupper
	call	_Unwind_Resume@PLT
.L672:
	cmpq	$-3, %rdx
	movq	%rax, %rdi
	je	.L535
	vzeroupper
	call	_Unwind_Resume@PLT
.L538:
	vzeroupper
	call	__cxa_call_unexpected@PLT
.L535:
	vzeroupper
	call	__cxa_call_unexpected@PLT
.L673:
	cmpq	$-3, %rdx
	movq	%rax, %rdi
	je	.L531
	vzeroupper
	call	_Unwind_Resume@PLT
.L674:
	cmpq	$-3, %rdx
	movq	%rax, %rdi
	je	.L528
	vzeroupper
	call	_Unwind_Resume@PLT
.L531:
	vzeroupper
	call	__cxa_call_unexpected@PLT
.L528:
	vzeroupper
	call	__cxa_call_unexpected@PLT
.L675:
	cmpq	$-3, %rdx
	movq	%rax, %rdi
	je	.L525
	vzeroupper
	call	_Unwind_Resume@PLT
.LEHE166:
.L882:
	movq	%rax, %rdi
	vzeroupper
.LEHB167:
	call	__cxa_call_unexpected@PLT
.LEHE167:
.L525:
	vzeroupper
.LEHB168:
	call	__cxa_call_unexpected@PLT
.LEHE168:
.L581:
	jmp	.L789
.L883:
	movq	%rax, %rdi
	vzeroupper
.LEHB169:
	call	__cxa_call_unexpected@PLT
.LEHE169:
.L578:
	jmp	.L791
.L881:
	movq	%rax, %rdi
	vzeroupper
.LEHB170:
	call	__cxa_call_unexpected@PLT
.LEHE170:
.L587:
	jmp	.L784
.L584:
	jmp	.L481
.L579:
	movq	%rax, %rbx
	vzeroupper
	jmp	.L567
.L632:
	cmpq	$-3, %rdx
	movq	%rax, %rdi
	je	.L437
	vzeroupper
.LEHB171:
	call	_Unwind_Resume@PLT
.L633:
	cmpq	$-3, %rdx
	movq	%rax, %rdi
	je	.L434
	vzeroupper
	call	_Unwind_Resume@PLT
.L634:
	cmpq	$-3, %rdx
	movq	%rax, %rdi
	je	.L431
	vzeroupper
	call	_Unwind_Resume@PLT
.L437:
	vzeroupper
	call	__cxa_call_unexpected@PLT
.L434:
	vzeroupper
	call	__cxa_call_unexpected@PLT
.L431:
	vzeroupper
	call	__cxa_call_unexpected@PLT
.L649:
	movq	%rax, %rbx
	movq	%rdx, %r12
	movq	%r13, %rdi
	vzeroupper
	call	_ZN5decaf5Ed4485PointD1Ev
	cmpq	$-3, %r12
	movq	%rbx, %rdi
	je	.L473
	call	_Unwind_Resume@PLT
.L645:
	cmpq	$-3, %rdx
	movq	%rax, %rdi
	je	.L467
	vzeroupper
	call	_Unwind_Resume@PLT
.L473:
	call	__cxa_call_unexpected@PLT
.L467:
	vzeroupper
	call	__cxa_call_unexpected@PLT
.L643:
	cmpq	$-3, %rdx
	movq	%rax, %rdi
	je	.L460
	vzeroupper
	call	_Unwind_Resume@PLT
.LEHE171:
.L872:
	movq	%rax, %rdi
	vzeroupper
.LEHB172:
	call	__cxa_call_unexpected@PLT
.LEHE172:
.L460:
	vzeroupper
.LEHB173:
	call	__cxa_call_unexpected@PLT
.L582:
	jmp	.L788
.L648:
	movq	%rax, %rbx
	leaq	16+_ZTVN5decaf12SecureBufferE(%rip), %rax
	movq	%rdx, %r12
	movq	%rax, -2320(%rbp)
	leaq	-2320(%rbp), %rax
	leaq	16(%rax), %rsi
	leaq	8(%rax), %rdi
	vzeroupper
	call	_ZN5decaf12SecureBuffer5clearEv.isra.9
	leaq	16+_ZTVN5decaf5BlockE(%rip), %rax
	movq	%rbx, %rdi
	movq	%r12, %rdx
	movq	%rax, -2320(%rbp)
.L476:
	cmpq	$-3, %rdx
	je	.L477
	call	_Unwind_Resume@PLT
.L647:
	movq	%rax, %rdi
	vzeroupper
	jmp	.L476
.L477:
	call	__cxa_call_unexpected@PLT
.LEHE173:
.L423:
	movq	%rax, %rdi
.LEHB174:
	call	__cxa_call_unexpected@PLT
.LEHE174:
.L880:
	movq	%rax, %rdi
	vzeroupper
.LEHB175:
	call	__cxa_call_unexpected@PLT
.LEHE175:
.L577:
	movq	%rax, %rbx
	vzeroupper
	jmp	.L424
.L624:
	jmp	.L782
.L626:
	cmpq	$-3, %rdx
	movq	%rax, %rdi
	je	.L413
	vzeroupper
.LEHB176:
	call	_Unwind_Resume@PLT
.L627:
	cmpq	$-3, %rdx
	movq	%rax, %rdi
	je	.L410
	vzeroupper
	call	_Unwind_Resume@PLT
.L413:
	vzeroupper
	call	__cxa_call_unexpected@PLT
.L410:
	vzeroupper
	call	__cxa_call_unexpected@PLT
.L623:
	vzeroupper
	jmp	.L422
.L625:
	cmpq	$-3, %rdx
	movq	%rax, %rdi
	je	.L416
	vzeroupper
	call	_Unwind_Resume@PLT
.L628:
	cmpq	$-3, %rdx
	movq	%rax, %rdi
	je	.L407
	vzeroupper
	call	_Unwind_Resume@PLT
.L629:
	cmpq	$-3, %rdx
	movq	%rax, %rdi
	je	.L404
	vzeroupper
	call	_Unwind_Resume@PLT
.L416:
	vzeroupper
	call	__cxa_call_unexpected@PLT
.L407:
	vzeroupper
	call	__cxa_call_unexpected@PLT
.L404:
	vzeroupper
	call	__cxa_call_unexpected@PLT
.L622:
	movq	%rax, %rbx
	movq	%rdx, %r12
	movq	%r13, %rdi
	vzeroupper
	call	_ZN5decaf5Ed4485PointD1Ev
	cmpq	$-3, %r12
	movq	%rbx, %rdi
	je	.L392
	call	_Unwind_Resume@PLT
.L618:
	cmpq	$-3, %rdx
	movq	%rax, %rdi
	je	.L386
	vzeroupper
	call	_Unwind_Resume@PLT
.L392:
	call	__cxa_call_unexpected@PLT
.L386:
	vzeroupper
	call	__cxa_call_unexpected@PLT
.L621:
	movq	%rax, %rbx
	leaq	16+_ZTVN5decaf12SecureBufferE(%rip), %rax
	movq	%rdx, %r12
	movq	%rax, -2320(%rbp)
	leaq	-2320(%rbp), %rax
	leaq	16(%rax), %rsi
	leaq	8(%rax), %rdi
	vzeroupper
	call	_ZN5decaf12SecureBuffer5clearEv.isra.9
	leaq	16+_ZTVN5decaf5BlockE(%rip), %rax
	movq	%rbx, %rdi
	movq	%r12, %rdx
	movq	%rax, -2320(%rbp)
.L395:
	cmpq	$-3, %rdx
	je	.L396
	call	_Unwind_Resume@PLT
.L620:
	movq	%rax, %rdi
	vzeroupper
	jmp	.L395
.L396:
	call	__cxa_call_unexpected@PLT
.L616:
	cmpq	$-3, %rdx
	movq	%rax, %rdi
	je	.L379
	vzeroupper
	call	_Unwind_Resume@PLT
.LEHE176:
.L870:
	movq	%rax, %rdi
	vzeroupper
.LEHB177:
	call	__cxa_call_unexpected@PLT
.LEHE177:
.L379:
	vzeroupper
.LEHB178:
	call	__cxa_call_unexpected@PLT
.L585:
	jmp	.L786
.L596:
	movq	%rax, %rbx
	movq	%rdx, %r12
	movq	%r13, %rdi
	vzeroupper
	call	_ZN5decaf5Ed4485PointD1Ev
	cmpq	$-3, %r12
	movq	%rbx, %rdi
	je	.L312
	call	_Unwind_Resume@PLT
.L639:
	movq	%rax, %rbx
	movq	%rdx, %r12
	movq	%r13, %rdi
	vzeroupper
	call	_ZN5decaf5Ed4486ScalarD1Ev
	cmpq	$-3, %r12
	movq	%rbx, %rdi
	je	.L448
	call	_Unwind_Resume@PLT
.L637:
	cmpq	$-3, %rdx
	movq	%rax, %rdi
	je	.L454
	vzeroupper
	call	_Unwind_Resume@PLT
.L641:
	cmpq	$-3, %rdx
	movq	%rax, %rdi
	je	.L443
	vzeroupper
	call	_Unwind_Resume@PLT
.L636:
	movq	-2432(%rbp), %rdi
	movq	%rax, %rbx
	movq	%rdx, %r12
	vzeroupper
	call	_ZN5decaf5Ed4486ScalarD1Ev
	cmpq	$-3, %r12
	movq	%rbx, %rdi
	je	.L456
	call	_Unwind_Resume@PLT
.L640:
	cmpq	$-3, %rdx
	movq	%rax, %rdi
	je	.L446
	vzeroupper
	call	_Unwind_Resume@PLT
.L638:
	movq	%rax, %r12
	movq	%rdx, %r13
	movq	%rbx, %rdi
	vzeroupper
	call	_ZN5decaf5Ed4486ScalarD1Ev
	cmpq	$-3, %r13
	movq	%r12, %rdi
	je	.L451
	call	_Unwind_Resume@PLT
.L642:
	cmpq	$-3, %rdx
	movq	%rax, %rdi
	je	.L440
	vzeroupper
	call	_Unwind_Resume@PLT
.LEHE178:
.L871:
	movq	%rax, %rdi
	vzeroupper
.LEHB179:
	call	__cxa_call_unexpected@PLT
.LEHE179:
.L312:
.LEHB180:
	call	__cxa_call_unexpected@PLT
.L448:
	call	__cxa_call_unexpected@PLT
.L446:
	vzeroupper
	call	__cxa_call_unexpected@PLT
.L443:
	vzeroupper
	call	__cxa_call_unexpected@PLT
.L440:
	vzeroupper
	call	__cxa_call_unexpected@PLT
.L454:
	vzeroupper
	call	__cxa_call_unexpected@PLT
.L451:
	call	__cxa_call_unexpected@PLT
.L456:
	call	__cxa_call_unexpected@PLT
.L586:
	jmp	.L785
.L602:
	movq	%rax, %rdi
	vzeroupper
.L339:
	cmpq	$-3, %rdx
	je	.L340
	call	_Unwind_Resume@PLT
.L594:
	movq	%rax, %rdi
	vzeroupper
.L315:
	cmpq	$-3, %rdx
	je	.L316
	call	_Unwind_Resume@PLT
.L340:
	call	__cxa_call_unexpected@PLT
.L316:
	call	__cxa_call_unexpected@PLT
.L590:
	movq	-2424(%rbp), %rdi
	movq	%rax, %rbx
	movq	%rdx, %r12
	vzeroupper
	call	_ZN5decaf12KeccakSpongeD2Ev
	cmpq	$-3, %r12
	movq	%rbx, %rdi
	je	.L299
	call	_Unwind_Resume@PLT
.LEHE180:
.L879:
	movq	%rax, %rdi
	vzeroupper
.LEHB181:
	call	__cxa_call_unexpected@PLT
.LEHE181:
.L299:
.LEHB182:
	call	__cxa_call_unexpected@PLT
.L604:
	movq	%rax, %rbx
	movq	%rdx, %r12
	movq	%r13, %rdi
	vzeroupper
	call	_ZN5decaf5Ed4485PointD1Ev
	cmpq	$-3, %r12
	movq	%rbx, %rdi
	je	.L336
	call	_Unwind_Resume@PLT
.L609:
	movq	%rax, %rbx
	movq	%rdx, %r13
	movq	%r12, %rdi
	vzeroupper
	call	_ZN5decaf5Ed4486ScalarD1Ev
	cmpq	$-3, %r13
	movq	%rbx, %rdi
	je	.L375
	call	_Unwind_Resume@PLT
.L336:
	call	__cxa_call_unexpected@PLT
.L375:
	call	__cxa_call_unexpected@PLT
.L610:
	cmpq	$-3, %rdx
	movq	%rax, %rdi
	je	.L373
	vzeroupper
	call	_Unwind_Resume@PLT
.L611:
	movq	-2456(%rbp), %rdi
	movq	%rax, %rbx
	movq	%rdx, %r12
	vzeroupper
	call	_ZN5decaf5Ed4486ScalarD1Ev
	cmpq	$-3, %r12
	movq	%rbx, %rdi
	je	.L370
	call	_Unwind_Resume@PLT
.L373:
	vzeroupper
	call	__cxa_call_unexpected@PLT
.L370:
	call	__cxa_call_unexpected@PLT
.L612:
	movq	%rax, %rbx
	movq	%rdx, %r12
	movq	%r13, %rdi
	vzeroupper
	call	_ZN5decaf5Ed4486ScalarD1Ev
	cmpq	$-3, %r12
	movq	%rbx, %rdi
	je	.L367
	call	_Unwind_Resume@PLT
.L613:
	cmpq	$-3, %rdx
	movq	%rax, %rdi
	je	.L365
	vzeroupper
	call	_Unwind_Resume@PLT
.L367:
	call	__cxa_call_unexpected@PLT
.L365:
	vzeroupper
	call	__cxa_call_unexpected@PLT
.L614:
	cmpq	$-3, %rdx
	movq	%rax, %rdi
	je	.L362
	vzeroupper
	call	_Unwind_Resume@PLT
.L615:
	cmpq	$-3, %rdx
	movq	%rax, %rdi
	je	.L359
	vzeroupper
	call	_Unwind_Resume@PLT
.L362:
	vzeroupper
	call	__cxa_call_unexpected@PLT
.L359:
	vzeroupper
	call	__cxa_call_unexpected@PLT
.L603:
	movq	%rax, %rbx
	leaq	16+_ZTVN5decaf12SecureBufferE(%rip), %rax
	movq	%rdx, %r12
	movq	%rax, -2384(%rbp)
	leaq	-2384(%rbp), %rax
	leaq	16(%rax), %rsi
	leaq	8(%rax), %rdi
	vzeroupper
	call	_ZN5decaf12SecureBuffer5clearEv.isra.9
	leaq	16+_ZTVN5decaf5BlockE(%rip), %rax
	movq	%rbx, %rdi
	movq	%r12, %rdx
	movq	%rax, -2384(%rbp)
	jmp	.L339
.L593:
	cmpq	$-3, %rdx
	movq	%rax, %rdi
	je	.L319
	vzeroupper
	call	_Unwind_Resume@PLT
.L595:
	movq	%rax, %rbx
	leaq	16+_ZTVN5decaf12SecureBufferE(%rip), %rax
	movq	%rdx, %r12
	movq	%rax, -2416(%rbp)
	leaq	-2416(%rbp), %rax
	leaq	16(%rax), %rsi
	leaq	8(%rax), %rdi
	vzeroupper
	call	_ZN5decaf12SecureBuffer5clearEv.isra.9
	leaq	16+_ZTVN5decaf5BlockE(%rip), %rax
	movq	%rbx, %rdi
	movq	%r12, %rdx
	movq	%rax, -2416(%rbp)
	jmp	.L315
.L589:
	movq	%rax, %rbx
	movq	%rdx, %r12
	movq	%r15, %rdi
	vzeroupper
	call	_ZN5decaf12KeccakSpongeD2Ev
	cmpq	$-3, %r12
	movq	%rbx, %rdi
	je	.L302
	call	_Unwind_Resume@PLT
.L319:
	vzeroupper
	call	__cxa_call_unexpected@PLT
.L302:
	call	__cxa_call_unexpected@PLT
.L576:
	movq	%rax, %rbx
	vzeroupper
	jmp	.L568
.L605:
	cmpq	$-3, %rdx
	movq	%rax, %rdi
	je	.L356
	vzeroupper
	call	_Unwind_Resume@PLT
.L606:
	cmpq	$-3, %rdx
	movq	%rax, %rdi
	je	.L353
	vzeroupper
	call	_Unwind_Resume@PLT
.L607:
	cmpq	$-3, %rdx
	movq	%rax, %rdi
	je	.L350
	vzeroupper
	call	_Unwind_Resume@PLT
.L356:
	vzeroupper
	call	__cxa_call_unexpected@PLT
.L353:
	vzeroupper
	call	__cxa_call_unexpected@PLT
.L350:
	vzeroupper
	call	__cxa_call_unexpected@PLT
.LEHE182:
	.cfi_endproc
.LFE1997:
	.section	.gcc_except_table._ZL5fhmqvRN5decaf9SpongeRngES1_NS_5Ed4486ScalarERKNS_5BlockES3_S6_.constprop.95,"a",@progbits
	.align 4
.LLSDA1997:
	.byte	0xff
	.byte	0x9b
	.uleb128 .LLSDATT1997-.LLSDATTD1997
.LLSDATTD1997:
	.byte	0x1
	.uleb128 .LLSDACSE1997-.LLSDACSB1997
.LLSDACSB1997:
	.uleb128 .LEHB41-.LFB1997
	.uleb128 .LEHE41-.LEHB41
	.uleb128 .L590-.LFB1997
	.uleb128 0x3
	.uleb128 .LEHB42-.LFB1997
	.uleb128 .LEHE42-.LEHB42
	.uleb128 .L589-.LFB1997
	.uleb128 0x3
	.uleb128 .LEHB43-.LFB1997
	.uleb128 .LEHE43-.LEHB43
	.uleb128 .L588-.LFB1997
	.uleb128 0x7
	.uleb128 .LEHB44-.LFB1997
	.uleb128 .LEHE44-.LEHB44
	.uleb128 .L591-.LFB1997
	.uleb128 0x7
	.uleb128 .LEHB45-.LFB1997
	.uleb128 .LEHE45-.LEHB45
	.uleb128 .L596-.LFB1997
	.uleb128 0x3
	.uleb128 .LEHB46-.LFB1997
	.uleb128 .LEHE46-.LEHB46
	.uleb128 .L594-.LFB1997
	.uleb128 0x1
	.uleb128 .LEHB47-.LFB1997
	.uleb128 .LEHE47-.LEHB47
	.uleb128 .L595-.LFB1997
	.uleb128 0x3
	.uleb128 .LEHB48-.LFB1997
	.uleb128 .LEHE48-.LEHB48
	.uleb128 .L593-.LFB1997
	.uleb128 0x1
	.uleb128 .LEHB49-.LFB1997
	.uleb128 .LEHE49-.LEHB49
	.uleb128 .L592-.LFB1997
	.uleb128 0x7
	.uleb128 .LEHB50-.LFB1997
	.uleb128 .LEHE50-.LEHB50
	.uleb128 .L597-.LFB1997
	.uleb128 0x7
	.uleb128 .LEHB51-.LFB1997
	.uleb128 .LEHE51-.LEHB51
	.uleb128 .L598-.LFB1997
	.uleb128 0x7
	.uleb128 .LEHB52-.LFB1997
	.uleb128 .LEHE52-.LEHB52
	.uleb128 .L599-.LFB1997
	.uleb128 0x7
	.uleb128 .LEHB53-.LFB1997
	.uleb128 .LEHE53-.LEHB53
	.uleb128 .L604-.LFB1997
	.uleb128 0x3
	.uleb128 .LEHB54-.LFB1997
	.uleb128 .LEHE54-.LEHB54
	.uleb128 .L602-.LFB1997
	.uleb128 0x1
	.uleb128 .LEHB55-.LFB1997
	.uleb128 .LEHE55-.LEHB55
	.uleb128 .L603-.LFB1997
	.uleb128 0x3
	.uleb128 .LEHB56-.LFB1997
	.uleb128 .LEHE56-.LEHB56
	.uleb128 .L601-.LFB1997
	.uleb128 0x1
	.uleb128 .LEHB57-.LFB1997
	.uleb128 .LEHE57-.LEHB57
	.uleb128 .L600-.LFB1997
	.uleb128 0x7
	.uleb128 .LEHB58-.LFB1997
	.uleb128 .LEHE58-.LEHB58
	.uleb128 .L575-.LFB1997
	.uleb128 0
	.uleb128 .LEHB59-.LFB1997
	.uleb128 .LEHE59-.LEHB59
	.uleb128 .L607-.LFB1997
	.uleb128 0x1
	.uleb128 .LEHB60-.LFB1997
	.uleb128 .LEHE60-.LEHB60
	.uleb128 .L606-.LFB1997
	.uleb128 0x1
	.uleb128 .LEHB61-.LFB1997
	.uleb128 .LEHE61-.LEHB61
	.uleb128 .L605-.LFB1997
	.uleb128 0x1
	.uleb128 .LEHB62-.LFB1997
	.uleb128 .LEHE62-.LEHB62
	.uleb128 .L576-.LFB1997
	.uleb128 0
	.uleb128 .LEHB63-.LFB1997
	.uleb128 .LEHE63-.LEHB63
	.uleb128 .L615-.LFB1997
	.uleb128 0x1
	.uleb128 .LEHB64-.LFB1997
	.uleb128 .LEHE64-.LEHB64
	.uleb128 .L614-.LFB1997
	.uleb128 0x1
	.uleb128 .LEHB65-.LFB1997
	.uleb128 .LEHE65-.LEHB65
	.uleb128 .L613-.LFB1997
	.uleb128 0x1
	.uleb128 .LEHB66-.LFB1997
	.uleb128 .LEHE66-.LEHB66
	.uleb128 .L612-.LFB1997
	.uleb128 0x3
	.uleb128 .LEHB67-.LFB1997
	.uleb128 .LEHE67-.LEHB67
	.uleb128 .L611-.LFB1997
	.uleb128 0x3
	.uleb128 .LEHB68-.LFB1997
	.uleb128 .LEHE68-.LEHB68
	.uleb128 .L610-.LFB1997
	.uleb128 0x1
	.uleb128 .LEHB69-.LFB1997
	.uleb128 .LEHE69-.LEHB69
	.uleb128 .L609-.LFB1997
	.uleb128 0x3
	.uleb128 .LEHB70-.LFB1997
	.uleb128 .LEHE70-.LEHB70
	.uleb128 .L608-.LFB1997
	.uleb128 0x9
	.uleb128 .LEHB71-.LFB1997
	.uleb128 .LEHE71-.LEHB71
	.uleb128 .L616-.LFB1997
	.uleb128 0x1
	.uleb128 .LEHB72-.LFB1997
	.uleb128 .LEHE72-.LEHB72
	.uleb128 .L617-.LFB1997
	.uleb128 0x9
	.uleb128 .LEHB73-.LFB1997
	.uleb128 .LEHE73-.LEHB73
	.uleb128 .L618-.LFB1997
	.uleb128 0x1
	.uleb128 .LEHB74-.LFB1997
	.uleb128 .LEHE74-.LEHB74
	.uleb128 .L622-.LFB1997
	.uleb128 0x3
	.uleb128 .LEHB75-.LFB1997
	.uleb128 .LEHE75-.LEHB75
	.uleb128 .L620-.LFB1997
	.uleb128 0x1
	.uleb128 .LEHB76-.LFB1997
	.uleb128 .LEHE76-.LEHB76
	.uleb128 .L621-.LFB1997
	.uleb128 0x3
	.uleb128 .LEHB77-.LFB1997
	.uleb128 .LEHE77-.LEHB77
	.uleb128 .L619-.LFB1997
	.uleb128 0x7
	.uleb128 .LEHB78-.LFB1997
	.uleb128 .LEHE78-.LEHB78
	.uleb128 .L629-.LFB1997
	.uleb128 0x1
	.uleb128 .LEHB79-.LFB1997
	.uleb128 .LEHE79-.LEHB79
	.uleb128 .L628-.LFB1997
	.uleb128 0x1
	.uleb128 .LEHB80-.LFB1997
	.uleb128 .LEHE80-.LEHB80
	.uleb128 .L627-.LFB1997
	.uleb128 0x1
	.uleb128 .LEHB81-.LFB1997
	.uleb128 .LEHE81-.LEHB81
	.uleb128 .L626-.LFB1997
	.uleb128 0x1
	.uleb128 .LEHB82-.LFB1997
	.uleb128 .LEHE82-.LEHB82
	.uleb128 .L625-.LFB1997
	.uleb128 0x1
	.uleb128 .LEHB83-.LFB1997
	.uleb128 .LEHE83-.LEHB83
	.uleb128 .L623-.LFB1997
	.uleb128 0x7
	.uleb128 .LEHB84-.LFB1997
	.uleb128 .LEHE84-.LEHB84
	.uleb128 .L630-.LFB1997
	.uleb128 0xb
	.uleb128 .LEHB85-.LFB1997
	.uleb128 .LEHE85-.LEHB85
	.uleb128 .L631-.LFB1997
	.uleb128 0x7
	.uleb128 .LEHB86-.LFB1997
	.uleb128 .LEHE86-.LEHB86
	.uleb128 .L578-.LFB1997
	.uleb128 0
	.uleb128 .LEHB87-.LFB1997
	.uleb128 .LEHE87-.LEHB87
	.uleb128 .L634-.LFB1997
	.uleb128 0x1
	.uleb128 .LEHB88-.LFB1997
	.uleb128 .LEHE88-.LEHB88
	.uleb128 .L633-.LFB1997
	.uleb128 0x1
	.uleb128 .LEHB89-.LFB1997
	.uleb128 .LEHE89-.LEHB89
	.uleb128 .L632-.LFB1997
	.uleb128 0x1
	.uleb128 .LEHB90-.LFB1997
	.uleb128 .LEHE90-.LEHB90
	.uleb128 .L579-.LFB1997
	.uleb128 0
	.uleb128 .LEHB91-.LFB1997
	.uleb128 .LEHE91-.LEHB91
	.uleb128 .L642-.LFB1997
	.uleb128 0x1
	.uleb128 .LEHB92-.LFB1997
	.uleb128 .LEHE92-.LEHB92
	.uleb128 .L641-.LFB1997
	.uleb128 0x1
	.uleb128 .LEHB93-.LFB1997
	.uleb128 .LEHE93-.LEHB93
	.uleb128 .L640-.LFB1997
	.uleb128 0x1
	.uleb128 .LEHB94-.LFB1997
	.uleb128 .LEHE94-.LEHB94
	.uleb128 .L639-.LFB1997
	.uleb128 0x3
	.uleb128 .LEHB95-.LFB1997
	.uleb128 .LEHE95-.LEHB95
	.uleb128 .L638-.LFB1997
	.uleb128 0x3
	.uleb128 .LEHB96-.LFB1997
	.uleb128 .LEHE96-.LEHB96
	.uleb128 .L637-.LFB1997
	.uleb128 0x1
	.uleb128 .LEHB97-.LFB1997
	.uleb128 .LEHE97-.LEHB97
	.uleb128 .L636-.LFB1997
	.uleb128 0x3
	.uleb128 .LEHB98-.LFB1997
	.uleb128 .LEHE98-.LEHB98
	.uleb128 .L635-.LFB1997
	.uleb128 0x9
	.uleb128 .LEHB99-.LFB1997
	.uleb128 .LEHE99-.LEHB99
	.uleb128 .L643-.LFB1997
	.uleb128 0x1
	.uleb128 .LEHB100-.LFB1997
	.uleb128 .LEHE100-.LEHB100
	.uleb128 .L644-.LFB1997
	.uleb128 0x9
	.uleb128 .LEHB101-.LFB1997
	.uleb128 .LEHE101-.LEHB101
	.uleb128 .L645-.LFB1997
	.uleb128 0x1
	.uleb128 .LEHB102-.LFB1997
	.uleb128 .LEHE102-.LEHB102
	.uleb128 .L649-.LFB1997
	.uleb128 0x3
	.uleb128 .LEHB103-.LFB1997
	.uleb128 .LEHE103-.LEHB103
	.uleb128 .L647-.LFB1997
	.uleb128 0x1
	.uleb128 .LEHB104-.LFB1997
	.uleb128 .LEHE104-.LEHB104
	.uleb128 .L648-.LFB1997
	.uleb128 0x3
	.uleb128 .LEHB105-.LFB1997
	.uleb128 .LEHE105-.LEHB105
	.uleb128 .L646-.LFB1997
	.uleb128 0x7
	.uleb128 .LEHB106-.LFB1997
	.uleb128 .LEHE106-.LEHB106
	.uleb128 .L655-.LFB1997
	.uleb128 0x1
	.uleb128 .LEHB107-.LFB1997
	.uleb128 .LEHE107-.LEHB107
	.uleb128 .L654-.LFB1997
	.uleb128 0x1
	.uleb128 .LEHB108-.LFB1997
	.uleb128 .LEHE108-.LEHB108
	.uleb128 .L653-.LFB1997
	.uleb128 0x1
	.uleb128 .LEHB109-.LFB1997
	.uleb128 .LEHE109-.LEHB109
	.uleb128 .L652-.LFB1997
	.uleb128 0x1
	.uleb128 .LEHB110-.LFB1997
	.uleb128 .LEHE110-.LEHB110
	.uleb128 .L651-.LFB1997
	.uleb128 0x1
	.uleb128 .LEHB111-.LFB1997
	.uleb128 .LEHE111-.LEHB111
	.uleb128 .L650-.LFB1997
	.uleb128 0xd
	.uleb128 .LEHB112-.LFB1997
	.uleb128 .LEHE112-.LEHB112
	.uleb128 .L656-.LFB1997
	.uleb128 0x7
	.uleb128 .LEHB113-.LFB1997
	.uleb128 .LEHE113-.LEHB113
	.uleb128 .L658-.LFB1997
	.uleb128 0xb
	.uleb128 .LEHB114-.LFB1997
	.uleb128 .LEHE114-.LEHB114
	.uleb128 .L659-.LFB1997
	.uleb128 0x7
	.uleb128 .LEHB115-.LFB1997
	.uleb128 .LEHE115-.LEHB115
	.uleb128 .L660-.LFB1997
	.uleb128 0xd
	.uleb128 .LEHB116-.LFB1997
	.uleb128 .LEHE116-.LEHB116
	.uleb128 .L661-.LFB1997
	.uleb128 0x7
	.uleb128 .LEHB117-.LFB1997
	.uleb128 .LEHE117-.LEHB117
	.uleb128 .L675-.LFB1997
	.uleb128 0x1
	.uleb128 .LEHB118-.LFB1997
	.uleb128 .LEHE118-.LEHB118
	.uleb128 .L674-.LFB1997
	.uleb128 0x1
	.uleb128 .LEHB119-.LFB1997
	.uleb128 .LEHE119-.LEHB119
	.uleb128 .L673-.LFB1997
	.uleb128 0x1
	.uleb128 .LEHB120-.LFB1997
	.uleb128 .LEHE120-.LEHB120
	.uleb128 .L672-.LFB1997
	.uleb128 0x1
	.uleb128 .LEHB121-.LFB1997
	.uleb128 .LEHE121-.LEHB121
	.uleb128 .L671-.LFB1997
	.uleb128 0x1
	.uleb128 .LEHB122-.LFB1997
	.uleb128 .LEHE122-.LEHB122
	.uleb128 .L670-.LFB1997
	.uleb128 0x1
	.uleb128 .LEHB123-.LFB1997
	.uleb128 .LEHE123-.LEHB123
	.uleb128 .L669-.LFB1997
	.uleb128 0x1
	.uleb128 .LEHB124-.LFB1997
	.uleb128 .LEHE124-.LEHB124
	.uleb128 .L668-.LFB1997
	.uleb128 0x1
	.uleb128 .LEHB125-.LFB1997
	.uleb128 .LEHE125-.LEHB125
	.uleb128 .L667-.LFB1997
	.uleb128 0x1
	.uleb128 .LEHB126-.LFB1997
	.uleb128 .LEHE126-.LEHB126
	.uleb128 .L666-.LFB1997
	.uleb128 0x1
	.uleb128 .LEHB127-.LFB1997
	.uleb128 .LEHE127-.LEHB127
	.uleb128 .L665-.LFB1997
	.uleb128 0x1
	.uleb128 .LEHB128-.LFB1997
	.uleb128 .LEHE128-.LEHB128
	.uleb128 .L664-.LFB1997
	.uleb128 0x1
	.uleb128 .LEHB129-.LFB1997
	.uleb128 .LEHE129-.LEHB129
	.uleb128 .L663-.LFB1997
	.uleb128 0x1
	.uleb128 .LEHB130-.LFB1997
	.uleb128 .LEHE130-.LEHB130
	.uleb128 .L662-.LFB1997
	.uleb128 0x1
	.uleb128 .LEHB131-.LFB1997
	.uleb128 .LEHE131-.LEHB131
	.uleb128 0
	.uleb128 0
	.uleb128 .LEHB132-.LFB1997
	.uleb128 .LEHE132-.LEHB132
	.uleb128 .L597-.LFB1997
	.uleb128 0x7
	.uleb128 .LEHB133-.LFB1997
	.uleb128 .LEHE133-.LEHB133
	.uleb128 .L588-.LFB1997
	.uleb128 0x7
	.uleb128 .LEHB134-.LFB1997
	.uleb128 .LEHE134-.LEHB134
	.uleb128 .L599-.LFB1997
	.uleb128 0x7
	.uleb128 .LEHB135-.LFB1997
	.uleb128 .LEHE135-.LEHB135
	.uleb128 .L592-.LFB1997
	.uleb128 0x7
	.uleb128 .LEHB136-.LFB1997
	.uleb128 .LEHE136-.LEHB136
	.uleb128 .L573-.LFB1997
	.uleb128 0
	.uleb128 .LEHB137-.LFB1997
	.uleb128 .LEHE137-.LEHB137
	.uleb128 .L598-.LFB1997
	.uleb128 0x7
	.uleb128 .LEHB138-.LFB1997
	.uleb128 .LEHE138-.LEHB138
	.uleb128 .L574-.LFB1997
	.uleb128 0
	.uleb128 .LEHB139-.LFB1997
	.uleb128 .LEHE139-.LEHB139
	.uleb128 .L591-.LFB1997
	.uleb128 0x7
	.uleb128 .LEHB140-.LFB1997
	.uleb128 .LEHE140-.LEHB140
	.uleb128 .L572-.LFB1997
	.uleb128 0
	.uleb128 .LEHB141-.LFB1997
	.uleb128 .LEHE141-.LEHB141
	.uleb128 .L600-.LFB1997
	.uleb128 0x7
	.uleb128 .LEHB142-.LFB1997
	.uleb128 .LEHE142-.LEHB142
	.uleb128 .L630-.LFB1997
	.uleb128 0xb
	.uleb128 .LEHB143-.LFB1997
	.uleb128 .LEHE143-.LEHB143
	.uleb128 .L646-.LFB1997
	.uleb128 0x7
	.uleb128 .LEHB144-.LFB1997
	.uleb128 .LEHE144-.LEHB144
	.uleb128 .L631-.LFB1997
	.uleb128 0x7
	.uleb128 .LEHB145-.LFB1997
	.uleb128 .LEHE145-.LEHB145
	.uleb128 .L661-.LFB1997
	.uleb128 0x7
	.uleb128 .LEHB146-.LFB1997
	.uleb128 .LEHE146-.LEHB146
	.uleb128 .L581-.LFB1997
	.uleb128 0
	.uleb128 .LEHB147-.LFB1997
	.uleb128 .LEHE147-.LEHB147
	.uleb128 .L619-.LFB1997
	.uleb128 0x7
	.uleb128 .LEHB148-.LFB1997
	.uleb128 .LEHE148-.LEHB148
	.uleb128 .L630-.LFB1997
	.uleb128 0xb
	.uleb128 .LEHB149-.LFB1997
	.uleb128 .LEHE149-.LEHB149
	.uleb128 .L650-.LFB1997
	.uleb128 0xd
	.uleb128 .LEHB150-.LFB1997
	.uleb128 .LEHE150-.LEHB150
	.uleb128 .L658-.LFB1997
	.uleb128 0xb
	.uleb128 .LEHB151-.LFB1997
	.uleb128 .LEHE151-.LEHB151
	.uleb128 .L660-.LFB1997
	.uleb128 0xd
	.uleb128 .LEHB152-.LFB1997
	.uleb128 .LEHE152-.LEHB152
	.uleb128 .L658-.LFB1997
	.uleb128 0xb
	.uleb128 .LEHB153-.LFB1997
	.uleb128 .LEHE153-.LEHB153
	.uleb128 .L659-.LFB1997
	.uleb128 0x7
	.uleb128 .LEHB154-.LFB1997
	.uleb128 .LEHE154-.LEHB154
	.uleb128 .L581-.LFB1997
	.uleb128 0
	.uleb128 .LEHB155-.LFB1997
	.uleb128 .LEHE155-.LEHB155
	.uleb128 .L580-.LFB1997
	.uleb128 0
	.uleb128 .LEHB156-.LFB1997
	.uleb128 .LEHE156-.LEHB156
	.uleb128 .L657-.LFB1997
	.uleb128 0x7
	.uleb128 .LEHB157-.LFB1997
	.uleb128 .LEHE157-.LEHB157
	.uleb128 0
	.uleb128 0
	.uleb128 .LEHB158-.LFB1997
	.uleb128 .LEHE158-.LEHB158
	.uleb128 .L573-.LFB1997
	.uleb128 0
	.uleb128 .LEHB159-.LFB1997
	.uleb128 .LEHE159-.LEHB159
	.uleb128 0
	.uleb128 0
	.uleb128 .LEHB160-.LFB1997
	.uleb128 .LEHE160-.LEHB160
	.uleb128 .L581-.LFB1997
	.uleb128 0
	.uleb128 .LEHB161-.LFB1997
	.uleb128 .LEHE161-.LEHB161
	.uleb128 .L574-.LFB1997
	.uleb128 0
	.uleb128 .LEHB162-.LFB1997
	.uleb128 .LEHE162-.LEHB162
	.uleb128 0
	.uleb128 0
	.uleb128 .LEHB163-.LFB1997
	.uleb128 .LEHE163-.LEHB163
	.uleb128 .L572-.LFB1997
	.uleb128 0
	.uleb128 .LEHB164-.LFB1997
	.uleb128 .LEHE164-.LEHB164
	.uleb128 0
	.uleb128 0
	.uleb128 .LEHB165-.LFB1997
	.uleb128 .LEHE165-.LEHB165
	.uleb128 .L583-.LFB1997
	.uleb128 0
	.uleb128 .LEHB166-.LFB1997
	.uleb128 .LEHE166-.LEHB166
	.uleb128 0
	.uleb128 0
	.uleb128 .LEHB167-.LFB1997
	.uleb128 .LEHE167-.LEHB167
	.uleb128 .L578-.LFB1997
	.uleb128 0
	.uleb128 .LEHB168-.LFB1997
	.uleb128 .LEHE168-.LEHB168
	.uleb128 0
	.uleb128 0
	.uleb128 .LEHB169-.LFB1997
	.uleb128 .LEHE169-.LEHB169
	.uleb128 .L587-.LFB1997
	.uleb128 0
	.uleb128 .LEHB170-.LFB1997
	.uleb128 .LEHE170-.LEHB170
	.uleb128 .L584-.LFB1997
	.uleb128 0
	.uleb128 .LEHB171-.LFB1997
	.uleb128 .LEHE171-.LEHB171
	.uleb128 0
	.uleb128 0
	.uleb128 .LEHB172-.LFB1997
	.uleb128 .LEHE172-.LEHB172
	.uleb128 .L582-.LFB1997
	.uleb128 0
	.uleb128 .LEHB173-.LFB1997
	.uleb128 .LEHE173-.LEHB173
	.uleb128 0
	.uleb128 0
	.uleb128 .LEHB174-.LFB1997
	.uleb128 .LEHE174-.LEHB174
	.uleb128 .L577-.LFB1997
	.uleb128 0
	.uleb128 .LEHB175-.LFB1997
	.uleb128 .LEHE175-.LEHB175
	.uleb128 .L624-.LFB1997
	.uleb128 0x7
	.uleb128 .LEHB176-.LFB1997
	.uleb128 .LEHE176-.LEHB176
	.uleb128 0
	.uleb128 0
	.uleb128 .LEHB177-.LFB1997
	.uleb128 .LEHE177-.LEHB177
	.uleb128 .L585-.LFB1997
	.uleb128 0
	.uleb128 .LEHB178-.LFB1997
	.uleb128 .LEHE178-.LEHB178
	.uleb128 0
	.uleb128 0
	.uleb128 .LEHB179-.LFB1997
	.uleb128 .LEHE179-.LEHB179
	.uleb128 .L586-.LFB1997
	.uleb128 0
	.uleb128 .LEHB180-.LFB1997
	.uleb128 .LEHE180-.LEHB180
	.uleb128 0
	.uleb128 0
	.uleb128 .LEHB181-.LFB1997
	.uleb128 .LEHE181-.LEHB181
	.uleb128 .L575-.LFB1997
	.uleb128 0
	.uleb128 .LEHB182-.LFB1997
	.uleb128 .LEHE182-.LEHB182
	.uleb128 0
	.uleb128 0
.LLSDACSE1997:
	.byte	0x7d
	.byte	0
	.byte	0
	.byte	0x7d
	.byte	0
	.byte	0
	.byte	0x7f
	.byte	0x7d
	.byte	0x7c
	.byte	0x7b
	.byte	0x7a
	.byte	0x7b
	.byte	0x77
	.byte	0x77
	.align 4
	.long	DW.ref._ZTIN5decaf15LengthExceptionE-.
	.long	DW.ref._ZTIN5decaf15CryptoExceptionE-.
	.long	DW.ref._ZTIN5decaf17ProtocolExceptionE-.
.LLSDATT1997:
	.byte	0x1
	.byte	0
	.byte	0
	.byte	0x2
	.byte	0
	.byte	0x1
	.byte	0x3
	.byte	0
	.byte	0x2
	.byte	0x3
	.byte	0
	.section	.text._ZL5fhmqvRN5decaf9SpongeRngES1_NS_5Ed4486ScalarERKNS_5BlockES3_S6_.constprop.95
	.size	_ZL5fhmqvRN5decaf9SpongeRngES1_NS_5Ed4486ScalarERKNS_5BlockES3_S6_.constprop.95, .-_ZL5fhmqvRN5decaf9SpongeRngES1_NS_5Ed4486ScalarERKNS_5BlockES3_S6_.constprop.95
	.section	.text.unlikely._ZL5fhmqvRN5decaf9SpongeRngES1_NS_5Ed4486ScalarERKNS_5BlockES3_S6_.constprop.95
.LCOLDE47:
	.section	.text._ZL5fhmqvRN5decaf9SpongeRngES1_NS_5Ed4486ScalarERKNS_5BlockES3_S6_.constprop.95
.LHOTE47:
	.section	.text.unlikely._ZN5decaf6StrobeC2ENS0_16client_or_serverERK9kparams_s,"axG",@progbits,_ZN5decaf6StrobeC5ENS0_16client_or_serverERK9kparams_s,comdat
	.align 2
.LCOLDB48:
	.section	.text._ZN5decaf6StrobeC2ENS0_16client_or_serverERK9kparams_s,"axG",@progbits,_ZN5decaf6StrobeC5ENS0_16client_or_serverERK9kparams_s,comdat
.LHOTB48:
	.align 2
	.p2align 4,,15
	.weak	_ZN5decaf6StrobeC2ENS0_16client_or_serverERK9kparams_s
	.hidden	_ZN5decaf6StrobeC2ENS0_16client_or_serverERK9kparams_s
	.type	_ZN5decaf6StrobeC2ENS0_16client_or_serverERK9kparams_s, @function
_ZN5decaf6StrobeC2ENS0_16client_or_serverERK9kparams_s:
.LFB961:
	.cfi_startproc
	.cfi_personality 0x9b,DW.ref.__gxx_personality_v0
	.cfi_lsda 0x1b,.LLSDA961
	pushq	%r12
	.cfi_def_cfa_offset 16
	.cfi_offset 12, -16
	movq	%rdx, %rax
	pushq	%rbp
	.cfi_def_cfa_offset 24
	.cfi_offset 6, -24
	xorl	%edx, %edx
	pushq	%rbx
	.cfi_def_cfa_offset 32
	.cfi_offset 3, -32
	cmpl	$1, %esi
	sete	%dl
	movq	%rax, %rsi
	movq	%rdi, %rbx
.LEHB183:
	call	strobe_init@PLT
.LEHE183:
	popq	%rbx
	.cfi_remember_state
	.cfi_def_cfa_offset 24
	popq	%rbp
	.cfi_def_cfa_offset 16
	popq	%r12
	.cfi_def_cfa_offset 8
	ret
.L888:
	.cfi_restore_state
	movq	%rax, %rbp
	movq	%rdx, %r12
.L886:
	movq	%rbx, %rdi
	vzeroupper
	call	_ZN5decaf12KeccakSpongeD2Ev
	addq	$1, %r12
	movq	%rbp, %rdi
	je	.L887
.LEHB184:
	call	_Unwind_Resume@PLT
.L887:
	call	__cxa_call_unexpected@PLT
.LEHE184:
	.cfi_endproc
.LFE961:
	.section	.gcc_except_table._ZN5decaf6StrobeC2ENS0_16client_or_serverERK9kparams_s,"aG",@progbits,_ZN5decaf6StrobeC5ENS0_16client_or_serverERK9kparams_s,comdat
	.align 4
.LLSDA961:
	.byte	0xff
	.byte	0x9b
	.uleb128 .LLSDATT961-.LLSDATTD961
.LLSDATTD961:
	.byte	0x1
	.uleb128 .LLSDACSE961-.LLSDACSB961
.LLSDACSB961:
	.uleb128 .LEHB183-.LFB961
	.uleb128 .LEHE183-.LEHB183
	.uleb128 .L888-.LFB961
	.uleb128 0x3
	.uleb128 .LEHB184-.LFB961
	.uleb128 .LEHE184-.LEHB184
	.uleb128 0
	.uleb128 0
.LLSDACSE961:
	.byte	0x7f
	.byte	0
	.byte	0
	.byte	0x7d
	.align 4
.LLSDATT961:
	.byte	0
	.section	.text._ZN5decaf6StrobeC2ENS0_16client_or_serverERK9kparams_s,"axG",@progbits,_ZN5decaf6StrobeC5ENS0_16client_or_serverERK9kparams_s,comdat
	.size	_ZN5decaf6StrobeC2ENS0_16client_or_serverERK9kparams_s, .-_ZN5decaf6StrobeC2ENS0_16client_or_serverERK9kparams_s
	.section	.text.unlikely._ZN5decaf6StrobeC2ENS0_16client_or_serverERK9kparams_s,"axG",@progbits,_ZN5decaf6StrobeC5ENS0_16client_or_serverERK9kparams_s,comdat
.LCOLDE48:
	.section	.text._ZN5decaf6StrobeC2ENS0_16client_or_serverERK9kparams_s,"axG",@progbits,_ZN5decaf6StrobeC5ENS0_16client_or_serverERK9kparams_s,comdat
.LHOTE48:
	.weak	_ZN5decaf6StrobeC1ENS0_16client_or_serverERK9kparams_s
	.hidden	_ZN5decaf6StrobeC1ENS0_16client_or_serverERK9kparams_s
	.set	_ZN5decaf6StrobeC1ENS0_16client_or_serverERK9kparams_s,_ZN5decaf6StrobeC2ENS0_16client_or_serverERK9kparams_s
	.section	.text.unlikely._ZN5decaf6Strobe3keyERKNS_5BlockEb,"axG",@progbits,_ZN5decaf6Strobe3keyERKNS_5BlockEb,comdat
	.align 2
.LCOLDB49:
	.section	.text._ZN5decaf6Strobe3keyERKNS_5BlockEb,"axG",@progbits,_ZN5decaf6Strobe3keyERKNS_5BlockEb,comdat
.LHOTB49:
	.align 2
	.p2align 4,,15
	.weak	_ZN5decaf6Strobe3keyERKNS_5BlockEb
	.hidden	_ZN5decaf6Strobe3keyERKNS_5BlockEb
	.type	_ZN5decaf6Strobe3keyERKNS_5BlockEb, @function
_ZN5decaf6Strobe3keyERKNS_5BlockEb:
.LFB963:
	.cfi_startproc
	.cfi_personality 0x9b,DW.ref.__gxx_personality_v0
	.cfi_lsda 0x1b,.LLSDA963
	subq	$8, %rsp
	.cfi_def_cfa_offset 16
	movzbl	%dl, %ecx
	movq	16(%rsi), %rdx
	movq	8(%rsi), %rsi
.LEHB185:
	call	strobe_key@PLT
	testq	%rax, %rax
	je	.L900
	addq	$8, %rsp
	.cfi_remember_state
	.cfi_def_cfa_offset 8
	ret
.L900:
	.cfi_restore_state
	movl	$8, %edi
	call	__cxa_allocate_exception@PLT
	leaq	16+_ZTVN5decaf17ProtocolExceptionE(%rip), %rcx
	leaq	_ZN5decaf17ProtocolExceptionD1Ev(%rip), %rdx
	leaq	_ZTIN5decaf17ProtocolExceptionE(%rip), %rsi
	movq	%rax, %rdi
	movq	%rcx, (%rax)
	call	__cxa_throw@PLT
.LEHE185:
.L897:
	movq	%rax, %rdi
.L895:
	addq	$1, %rdx
	je	.L896
	vzeroupper
.LEHB186:
	call	_Unwind_Resume@PLT
.L896:
	vzeroupper
	call	__cxa_call_unexpected@PLT
.LEHE186:
	.cfi_endproc
.LFE963:
	.section	.gcc_except_table._ZN5decaf6Strobe3keyERKNS_5BlockEb,"aG",@progbits,_ZN5decaf6Strobe3keyERKNS_5BlockEb,comdat
	.align 4
.LLSDA963:
	.byte	0xff
	.byte	0x9b
	.uleb128 .LLSDATT963-.LLSDATTD963
.LLSDATTD963:
	.byte	0x1
	.uleb128 .LLSDACSE963-.LLSDACSB963
.LLSDACSB963:
	.uleb128 .LEHB185-.LFB963
	.uleb128 .LEHE185-.LEHB185
	.uleb128 .L897-.LFB963
	.uleb128 0x1
	.uleb128 .LEHB186-.LFB963
	.uleb128 .LEHE186-.LEHB186
	.uleb128 0
	.uleb128 0
.LLSDACSE963:
	.byte	0x7f
	.byte	0
	.align 4
	.long	DW.ref._ZTIN5decaf17ProtocolExceptionE-.
.LLSDATT963:
	.byte	0x1
	.byte	0
	.section	.text._ZN5decaf6Strobe3keyERKNS_5BlockEb,"axG",@progbits,_ZN5decaf6Strobe3keyERKNS_5BlockEb,comdat
	.size	_ZN5decaf6Strobe3keyERKNS_5BlockEb, .-_ZN5decaf6Strobe3keyERKNS_5BlockEb
	.section	.text.unlikely._ZN5decaf6Strobe3keyERKNS_5BlockEb,"axG",@progbits,_ZN5decaf6Strobe3keyERKNS_5BlockEb,comdat
.LCOLDE49:
	.section	.text._ZN5decaf6Strobe3keyERKNS_5BlockEb,"axG",@progbits,_ZN5decaf6Strobe3keyERKNS_5BlockEb,comdat
.LHOTE49:
	.section	.text.unlikely._ZN5decaf6Strobe11verify_authERKNS_5BlockE,"axG",@progbits,_ZN5decaf6Strobe11verify_authERKNS_5BlockE,comdat
	.align 2
.LCOLDB50:
	.section	.text._ZN5decaf6Strobe11verify_authERKNS_5BlockE,"axG",@progbits,_ZN5decaf6Strobe11verify_authERKNS_5BlockE,comdat
.LHOTB50:
	.align 2
	.p2align 4,,15
	.weak	_ZN5decaf6Strobe11verify_authERKNS_5BlockE
	.hidden	_ZN5decaf6Strobe11verify_authERKNS_5BlockE
	.type	_ZN5decaf6Strobe11verify_authERKNS_5BlockE, @function
_ZN5decaf6Strobe11verify_authERKNS_5BlockE:
.LFB989:
	.cfi_startproc
	.cfi_personality 0x9b,DW.ref.__gxx_personality_v0
	.cfi_lsda 0x1b,.LLSDA989
	subq	$8, %rsp
	.cfi_def_cfa_offset 16
	movq	16(%rsi), %rdx
	leaq	-1(%rdx), %rax
	cmpq	$254, %rax
	jbe	.L915
	movl	$8, %edi
	call	__cxa_allocate_exception@PLT
	leaq	16+_ZTVN5decaf15LengthExceptionE(%rip), %rcx
	leaq	_ZN5decaf15LengthExceptionD1Ev(%rip), %rdx
	leaq	_ZTIN5decaf15LengthExceptionE(%rip), %rsi
	movq	%rax, %rdi
	movq	%rcx, (%rax)
.LEHB187:
	call	__cxa_throw@PLT
	.p2align 4,,10
	.p2align 3
.L915:
	movq	8(%rsi), %rsi
	call	strobe_verify_auth@PLT
	testq	%rax, %rax
	je	.L916
	addq	$8, %rsp
	.cfi_remember_state
	.cfi_def_cfa_offset 8
	ret
.L908:
	.cfi_restore_state
	movq	%rax, %rdi
	jmp	.L905
.L916:
	movl	$8, %edi
	call	__cxa_allocate_exception@PLT
	leaq	16+_ZTVN5decaf15CryptoExceptionE(%rip), %rcx
	leaq	_ZN5decaf15CryptoExceptionD1Ev(%rip), %rdx
	leaq	_ZTIN5decaf15CryptoExceptionE(%rip), %rsi
	movq	%rax, %rdi
	movq	%rcx, (%rax)
	call	__cxa_throw@PLT
.LEHE187:
.L905:
	addq	$1, %rdx
	je	.L906
	vzeroupper
.LEHB188:
	call	_Unwind_Resume@PLT
.L906:
	vzeroupper
	call	__cxa_call_unexpected@PLT
.LEHE188:
	.cfi_endproc
.LFE989:
	.section	.gcc_except_table._ZN5decaf6Strobe11verify_authERKNS_5BlockE,"aG",@progbits,_ZN5decaf6Strobe11verify_authERKNS_5BlockE,comdat
	.align 4
.LLSDA989:
	.byte	0xff
	.byte	0x9b
	.uleb128 .LLSDATT989-.LLSDATTD989
.LLSDATTD989:
	.byte	0x1
	.uleb128 .LLSDACSE989-.LLSDACSB989
.LLSDACSB989:
	.uleb128 .LEHB187-.LFB989
	.uleb128 .LEHE187-.LEHB187
	.uleb128 .L908-.LFB989
	.uleb128 0x1
	.uleb128 .LEHB188-.LFB989
	.uleb128 .LEHE188-.LEHB188
	.uleb128 0
	.uleb128 0
.LLSDACSE989:
	.byte	0x7f
	.byte	0
	.align 4
	.long	DW.ref._ZTIN5decaf15LengthExceptionE-.
	.long	DW.ref._ZTIN5decaf15CryptoExceptionE-.
.LLSDATT989:
	.byte	0x1
	.byte	0x2
	.byte	0
	.section	.text._ZN5decaf6Strobe11verify_authERKNS_5BlockE,"axG",@progbits,_ZN5decaf6Strobe11verify_authERKNS_5BlockE,comdat
	.size	_ZN5decaf6Strobe11verify_authERKNS_5BlockE, .-_ZN5decaf6Strobe11verify_authERKNS_5BlockE
	.section	.text.unlikely._ZN5decaf6Strobe11verify_authERKNS_5BlockE,"axG",@progbits,_ZN5decaf6Strobe11verify_authERKNS_5BlockE,comdat
.LCOLDE50:
	.section	.text._ZN5decaf6Strobe11verify_authERKNS_5BlockE,"axG",@progbits,_ZN5decaf6Strobe11verify_authERKNS_5BlockE,comdat
.LHOTE50:
	.section	.text.unlikely._ZL8spake2eeRN5decaf9SpongeRngES1_RKNS_5BlockEb.constprop.94,"ax",@progbits
.LCOLDB51:
	.section	.text._ZL8spake2eeRN5decaf9SpongeRngES1_RKNS_5BlockEb.constprop.94,"ax",@progbits
.LHOTB51:
	.p2align 4,,15
	.type	_ZL8spake2eeRN5decaf9SpongeRngES1_RKNS_5BlockEb.constprop.94, @function
_ZL8spake2eeRN5decaf9SpongeRngES1_RKNS_5BlockEb.constprop.94:
.LFB1998:
	.cfi_startproc
	.cfi_personality 0x9b,DW.ref.__gxx_personality_v0
	.cfi_lsda 0x1b,.LLSDA1998
	leaq	8(%rsp), %r10
	.cfi_def_cfa 10, 0
	andq	$-32, %rsp
	pushq	-8(%r10)
	pushq	%rbp
	.cfi_escape 0x10,0x6,0x2,0x76,0
	movq	%rsp, %rbp
	pushq	%r15
	pushq	%r14
	pushq	%r13
	pushq	%r12
	.cfi_escape 0x10,0xf,0x2,0x76,0x78
	.cfi_escape 0x10,0xe,0x2,0x76,0x70
	.cfi_escape 0x10,0xd,0x2,0x76,0x68
	.cfi_escape 0x10,0xc,0x2,0x76,0x60
	leaq	-2240(%rbp), %r14
	pushq	%r10
	.cfi_escape 0xf,0x3,0x76,0x58,0x6
	pushq	%rbx
	movq	%rdi, %r15
	.cfi_escape 0x10,0x3,0x2,0x76,0x50
	movq	%rdx, %rbx
	movq	%r14, %rdi
	movl	$1, %edx
	subq	$2688, %rsp
	movq	STROBE_256@GOTPCREL(%rip), %r12
	movq	%rsi, -2672(%rbp)
	movl	%ecx, -2704(%rbp)
	movq	%fs:40, %rax
	movq	%rax, -56(%rbp)
	xorl	%eax, %eax
	movq	%r12, %rsi
.LEHB189:
	call	strobe_init@PLT
.LEHE189:
	leaq	-2032(%rbp), %r13
	xorl	%edx, %edx
	movq	%r12, %rsi
	movq	%r13, %rdi
.LEHB190:
	call	strobe_init@PLT
.LEHE190:
	leaq	-2432(%rbp), %rax
	movq	%r15, %rsi
	movq	%rax, %rdi
	movq	%rax, -2688(%rbp)
	call	_ZN5decaf5Ed4486ScalarC1ERNS_9SpongeRngE
	leaq	-1824(%rbp), %rax
	movq	SHAKE256_params_s@GOTPCREL(%rip), %rsi
	movq	%rax, %rdi
	movq	%rax, -2664(%rbp)
.LEHB191:
	call	sponge_init@PLT
.LEHE191:
	movq	16(%rbx), %rdx
	movq	8(%rbx), %rsi
	movq	-2664(%rbp), %rbx
	movq	%rbx, %rdi
.LEHB192:
	call	sha3_update@PLT
	leaq	16+_ZTVN5decaf12SecureBufferE(%rip), %rax
	movl	$56, %edi
	movq	$0, -2648(%rbp)
	movq	$56, -2640(%rbp)
	movq	%rax, -2656(%rbp)
	call	_Znam@PLT
.LEHE192:
	leaq	8(%rax), %rdi
	movq	%rax, %rcx
	movq	%rax, -2648(%rbp)
	movq	%rax, %rsi
	movq	$0, (%rax)
	movq	$0, 48(%rax)
	andq	$-8, %rdi
	xorl	%eax, %eax
	movl	$56, %edx
	subq	%rdi, %rcx
	addl	$56, %ecx
	shrl	$3, %ecx
	rep stosq
	movq	%rbx, %rdi
.LEHB193:
	call	sha3_output@PLT
.LEHE193:
	leaq	16+_ZTVN5decaf12SecureBufferE(%rip), %rax
	movl	$56, %edi
	movq	$0, -2616(%rbp)
	movq	$56, -2608(%rbp)
	movq	%rax, -2624(%rbp)
.LEHB194:
	call	_Znam@PLT
.LEHE194:
	leaq	8(%rax), %rdi
	movq	%rax, %rcx
	movq	%rax, -2616(%rbp)
	movq	%rax, %rsi
	movq	$0, (%rax)
	movq	$0, 48(%rax)
	andq	$-8, %rdi
	xorl	%eax, %eax
	movl	$56, %edx
	subq	%rdi, %rcx
	addl	$56, %ecx
	shrl	$3, %ecx
	rep stosq
	movq	-2664(%rbp), %rdi
.LEHB195:
	call	sha3_output@PLT
.LEHE195:
	leaq	16+_ZTVN5decaf12SecureBufferE(%rip), %rax
	movl	$56, %edi
	movq	$0, -2584(%rbp)
	movq	$56, -2576(%rbp)
	movq	%rax, -2592(%rbp)
.LEHB196:
	call	_Znam@PLT
.LEHE196:
	leaq	8(%rax), %rdi
	movq	%rax, %rcx
	movq	%rax, -2584(%rbp)
	movq	%rax, %rsi
	movq	$0, (%rax)
	movq	$0, 48(%rax)
	andq	$-8, %rdi
	xorl	%eax, %eax
	movl	$56, %edx
	subq	%rdi, %rcx
	addl	$56, %ecx
	shrl	$3, %ecx
	rep stosq
	movq	-2664(%rbp), %rdi
.LEHB197:
	call	sha3_output@PLT
.LEHE197:
	leaq	-2368(%rbp), %rax
	movq	-2576(%rbp), %rdx
	movq	-2584(%rbp), %rsi
	movq	%rax, %rdi
	movq	%rax, -2712(%rbp)
.LEHB198:
	call	decaf_448_scalar_decode_long@PLT
.LEHE198:
	leaq	-2656(%rbp), %rax
	leaq	-1616(%rbp), %rdi
	leaq	-336(%rbp), %rbx
	movq	%rax, %r15
	movq	%rax, %rsi
	movq	%rdi, %r12
	movq	%rdi, -2680(%rbp)
	movq	%rax, -2728(%rbp)
	call	_ZN5decaf5Ed4485Point11set_to_hashERKNS_5BlockE
	movq	%r15, %rsi
	movq	%rbx, %rdi
	call	_ZN5decaf5Ed4485Point11set_to_hashERKNS_5BlockE
	movl	$32, %ecx
	movq	%r12, %rdi
	movq	%rbx, %rsi
	rep movsq
	movq	%rbx, %rdi
.LEHB199:
	call	decaf_448_point_destroy@PLT
.LEHE199:
	leaq	-2624(%rbp), %rax
	leaq	-1360(%rbp), %rdi
	movq	%rax, %r15
	movq	%rax, %rsi
	movq	%rdi, %r12
	movq	%rdi, -2696(%rbp)
	movq	%rax, -2736(%rbp)
	call	_ZN5decaf5Ed4485Point11set_to_hashERKNS_5BlockE
	movq	%r15, %rsi
	movq	%rbx, %rdi
	call	_ZN5decaf5Ed4485Point11set_to_hashERKNS_5BlockE
	movl	$32, %ecx
	movq	%r12, %rdi
	movq	%rbx, %rsi
	rep movsq
	movq	%rbx, %rdi
.LEHB200:
	call	decaf_448_point_destroy@PLT
.LEHE200:
	movq	decaf_448_precomputed_base@GOTPCREL(%rip), %r15
	leaq	-592(%rbp), %rdi
	movl	$32, %ecx
	movq	decaf_448_point_identity@GOTPCREL(%rip), %rsi
	leaq	-592(%rbp), %r12
	movq	-2688(%rbp), %rdx
	rep movsq
	movq	(%r15), %rsi
	movq	%r12, %rdi
.LEHB201:
	call	decaf_448_precomputed_scalarmul@PLT
.LEHE201:
	movq	-2680(%rbp), %rdx
	movq	%r12, %rsi
	movq	%rbx, %rdi
.LEHB202:
	call	decaf_448_point_add@PLT
.LEHE202:
	leaq	16+_ZTVN5decaf12SecureBufferE(%rip), %rax
	movl	$56, %edi
	movq	$0, -2552(%rbp)
	movq	$56, -2544(%rbp)
	movq	%rax, -2560(%rbp)
.LEHB203:
	call	_Znam@PLT
.LEHE203:
	leaq	8(%rax), %rdi
	movq	%rax, %rcx
	movq	%rax, -2552(%rbp)
	movq	%rax, %rdx
	movq	$0, (%rax)
	movq	$0, 48(%rax)
	andq	$-8, %rdi
	xorl	%eax, %eax
	movq	%rbx, %rsi
	subq	%rdi, %rcx
	addl	$56, %ecx
	shrl	$3, %ecx
	rep stosq
	movq	%rdx, %rdi
.LEHB204:
	call	decaf_448_point_encode@PLT
.LEHE204:
	movq	%rbx, %rdi
.LEHB205:
	call	decaf_448_point_destroy@PLT
.LEHE205:
	movq	%r12, %rdi
.LEHB206:
	call	decaf_448_point_destroy@PLT
.LEHE206:
	movq	-2544(%rbp), %rdx
	movq	-2552(%rbp), %rsi
	xorl	%r8d, %r8d
	movl	$1, %ecx
	movq	%r14, %rdi
.LEHB207:
	call	strobe_plaintext@PLT
.LEHE207:
	testq	%rax, %rax
	je	.L1476
	movq	-2544(%rbp), %rdx
	movq	-2552(%rbp), %rsi
	xorl	%r8d, %r8d
	xorl	%ecx, %ecx
	movq	%r13, %rdi
.LEHB208:
	call	strobe_plaintext@PLT
.LEHE208:
	testq	%rax, %rax
	je	.L1477
	leaq	-2304(%rbp), %rax
	movq	-2672(%rbp), %rsi
	movq	%rax, %rdi
	movq	%rax, -2672(%rbp)
	call	_ZN5decaf5Ed4486ScalarC1ERNS_9SpongeRngE
	movq	%r12, %rdi
	movl	$32, %ecx
	movq	decaf_448_point_identity@GOTPCREL(%rip), %rsi
	rep movsq
	leaq	-592(%rbp), %r12
	movq	-2672(%rbp), %rdx
	movq	(%r15), %rsi
	movq	%r12, %rdi
.LEHB209:
	call	decaf_448_precomputed_scalarmul@PLT
.LEHE209:
	movq	-2696(%rbp), %rdx
	movq	%r12, %rsi
	movq	%rbx, %rdi
.LEHB210:
	call	decaf_448_point_add@PLT
.LEHE210:
	leaq	16+_ZTVN5decaf12SecureBufferE(%rip), %rax
	movl	$56, %edi
	movq	$0, -2520(%rbp)
	movq	$56, -2512(%rbp)
	movq	%rax, -2528(%rbp)
.LEHB211:
	call	_Znam@PLT
.LEHE211:
	leaq	8(%rax), %rdi
	movq	%rax, %rcx
	movq	%rax, -2520(%rbp)
	movq	%rax, %rdx
	movq	$0, (%rax)
	movq	$0, 48(%rax)
	andq	$-8, %rdi
	xorl	%eax, %eax
	movq	%rbx, %rsi
	subq	%rdi, %rcx
	addl	$56, %ecx
	shrl	$3, %ecx
	rep stosq
	movq	%rdx, %rdi
.LEHB212:
	call	decaf_448_point_encode@PLT
.LEHE212:
	movq	%rbx, %rdi
.LEHB213:
	call	decaf_448_point_destroy@PLT
.LEHE213:
	movq	%r12, %rdi
.LEHB214:
	call	decaf_448_point_destroy@PLT
.LEHE214:
	movq	-2512(%rbp), %rdx
	movq	-2520(%rbp), %rsi
	xorl	%r8d, %r8d
	movl	$1, %ecx
	movq	%r13, %rdi
.LEHB215:
	call	strobe_plaintext@PLT
.LEHE215:
	testq	%rax, %rax
	je	.L1478
	movq	-2512(%rbp), %rdx
	movq	-2520(%rbp), %rsi
	xorl	%r8d, %r8d
	xorl	%ecx, %ecx
	movq	%r14, %rdi
.LEHB216:
	call	strobe_plaintext@PLT
.LEHE216:
	testq	%rax, %rax
	je	.L1479
	movq	-2608(%rbp), %rdx
	movq	-2616(%rbp), %rsi
	xorl	%ecx, %ecx
	movq	%r13, %rdi
.LEHB217:
	call	strobe_key@PLT
.LEHE217:
	testq	%rax, %rax
	je	.L1480
	cmpq	$56, -2544(%rbp)
	je	.L1481
.L993:
	movl	$8, %edi
	leaq	16+_ZTVN5decaf15CryptoExceptionE(%rip), %rbx
	call	__cxa_allocate_exception@PLT
	leaq	_ZN5decaf15CryptoExceptionD1Ev(%rip), %rdx
	leaq	_ZTIN5decaf15CryptoExceptionE(%rip), %rsi
	movq	%rbx, (%rax)
	movq	%rax, %rdi
.LEHB218:
	call	__cxa_throw@PLT
.LEHE218:
	.p2align 4,,10
	.p2align 3
.L1481:
	leaq	-848(%rbp), %rax
	movq	-2552(%rbp), %rsi
	movq	$-1, %rdx
	movq	%rax, %rdi
	movq	%rax, -2720(%rbp)
.LEHB219:
	call	decaf_448_point_decode@PLT
.LEHE219:
	testq	%rax, %rax
	je	.L993
	movq	-2680(%rbp), %rdx
	movq	-2720(%rbp), %rsi
	movq	%r12, %rdi
.LEHB220:
	call	decaf_448_point_sub@PLT
.LEHE220:
	movq	-2672(%rbp), %rdx
	movq	%r12, %rsi
	movq	%rbx, %rdi
.LEHB221:
	call	decaf_448_point_scalarmul@PLT
.LEHE221:
	leaq	16+_ZTVN5decaf12SecureBufferE(%rip), %rax
	movl	$56, %edi
	movq	$0, -2456(%rbp)
	movq	$56, -2448(%rbp)
	movq	%rax, -2464(%rbp)
.LEHB222:
	call	_Znam@PLT
.LEHE222:
	leaq	8(%rax), %rdi
	movq	%rax, %rcx
	movq	%rax, -2456(%rbp)
	movq	%rax, %rdx
	movq	$0, (%rax)
	movq	$0, 48(%rax)
	andq	$-8, %rdi
	xorl	%eax, %eax
	movq	%rbx, %rsi
	subq	%rdi, %rcx
	addl	$56, %ecx
	shrl	$3, %ecx
	rep stosq
	movq	%rdx, %rdi
.LEHB223:
	call	decaf_448_point_encode@PLT
.LEHE223:
	movq	-2448(%rbp), %rdx
	movq	-2456(%rbp), %rsi
	xorl	%ecx, %ecx
	movq	%r13, %rdi
.LEHB224:
	call	strobe_key@PLT
.LEHE224:
	testq	%rax, %rax
	je	.L1482
	movq	-2456(%rbp), %rdi
	leaq	16+_ZTVN5decaf12SecureBufferE(%rip), %rax
	movq	%rax, -2464(%rbp)
	testq	%rdi, %rdi
	je	.L1013
	movq	-2448(%rbp), %rsi
.LEHB225:
	call	decaf_bzero@PLT
.LEHE225:
	movq	-2456(%rbp), %rdi
	testq	%rdi, %rdi
	je	.L1013
	call	_ZdaPv@PLT
.L1013:
	movq	%rbx, %rdi
.LEHB226:
	call	decaf_448_point_destroy@PLT
.LEHE226:
	movq	%r12, %rdi
.LEHB227:
	call	decaf_448_point_destroy@PLT
.LEHE227:
	movq	-2720(%rbp), %rdi
.LEHB228:
	call	decaf_448_point_destroy@PLT
.LEHE228:
	cmpb	$0, -2704(%rbp)
	je	.L1024
	movq	%rbx, %rdi
	movl	$32, %ecx
	movq	decaf_448_point_identity@GOTPCREL(%rip), %rsi
	rep movsq
	movq	(%r15), %rax
	leaq	-336(%rbp), %rbx
	movq	-2712(%rbp), %rdx
	movq	%rbx, %rdi
	movq	%rax, %rsi
.LEHB229:
	call	decaf_448_precomputed_scalarmul@PLT
.LEHE229:
	leaq	-2496(%rbp), %r15
	movq	%rbx, %rsi
	movq	%r15, %rdi
	call	_ZNK5decaf5Ed4485PointcvNS_12SecureBufferEEv
	movq	%rbx, %rdi
.LEHB230:
	call	decaf_448_point_destroy@PLT
.LEHE230:
	movq	%r15, %rsi
	movq	%r12, %rdi
.LEHB231:
	call	_ZN5decaf5Ed4485PointC2ERKNS_5BlockEm.constprop.101
.LEHE231:
	movq	-2672(%rbp), %rdx
	movq	%r12, %rsi
	movq	%rbx, %rdi
.LEHB232:
	call	decaf_448_point_scalarmul@PLT
.LEHE232:
	leaq	-2464(%rbp), %rax
	movq	%rbx, %rsi
	movq	%rax, %rdi
	movq	%rax, -2720(%rbp)
	call	_ZNK5decaf5Ed4485PointcvNS_12SecureBufferEEv
	movq	-2448(%rbp), %rdx
	movq	-2456(%rbp), %rsi
	xorl	%ecx, %ecx
	movq	%r13, %rdi
.LEHB233:
	call	strobe_key@PLT
.LEHE233:
	testq	%rax, %rax
	je	.L1483
	movq	-2456(%rbp), %rdi
	leaq	16+_ZTVN5decaf12SecureBufferE(%rip), %rax
	movq	%rax, -2464(%rbp)
	testq	%rdi, %rdi
	je	.L1040
	movq	-2448(%rbp), %rsi
.LEHB234:
	call	decaf_bzero@PLT
.LEHE234:
	movq	-2456(%rbp), %rdi
	testq	%rdi, %rdi
	je	.L1040
	call	_ZdaPv@PLT
.L1040:
	movq	%rbx, %rdi
.LEHB235:
	call	decaf_448_point_destroy@PLT
.LEHE235:
	movq	%r12, %rdi
.LEHB236:
	call	decaf_448_point_destroy@PLT
.LEHE236:
	movq	-2488(%rbp), %rdi
	leaq	16+_ZTVN5decaf12SecureBufferE(%rip), %rax
	movq	%rax, -2496(%rbp)
	testq	%rdi, %rdi
	je	.L1024
	movq	-2480(%rbp), %rsi
.LEHB237:
	call	decaf_bzero@PLT
.LEHE237:
	movq	-2488(%rbp), %rdi
	testq	%rdi, %rdi
	je	.L1024
	call	_ZdaPv@PLT
.L1024:
	leaq	16+_ZTVN5decaf12SecureBufferE(%rip), %rax
	movl	$8, %edi
	movq	$0, -2488(%rbp)
	movq	$8, -2480(%rbp)
	movq	%rax, -2496(%rbp)
.LEHB238:
	call	_Znam@PLT
.LEHE238:
	movq	-2480(%rbp), %rdx
	movq	%rax, -2488(%rbp)
	movq	$0, (%rax)
	cmpq	$255, %rdx
	ja	.L1484
	movq	%rax, %rsi
	movq	%r13, %rdi
.LEHB239:
	call	strobe_produce_auth@PLT
.LEHE239:
	testq	%rax, %rax
	je	.L1485
	movq	-2608(%rbp), %rdx
	movq	-2616(%rbp), %rsi
	xorl	%ecx, %ecx
	movq	%r14, %rdi
.LEHB240:
	call	strobe_key@PLT
.LEHE240:
	testq	%rax, %rax
	je	.L1486
	cmpq	$56, -2512(%rbp)
	je	.L1487
.L1064:
	movl	$8, %edi
	leaq	16+_ZTVN5decaf15CryptoExceptionE(%rip), %rbx
	call	__cxa_allocate_exception@PLT
	leaq	_ZN5decaf15CryptoExceptionD1Ev(%rip), %rdx
	leaq	_ZTIN5decaf15CryptoExceptionE(%rip), %rsi
	movq	%rbx, (%rax)
	movq	%rax, %rdi
.LEHB241:
	call	__cxa_throw@PLT
.LEHE241:
	.p2align 4,,10
	.p2align 3
.L1487:
	leaq	-1104(%rbp), %r12
	movq	-2520(%rbp), %rsi
	movq	$-1, %rdx
	movq	%r12, %rdi
.LEHB242:
	call	decaf_448_point_decode@PLT
.LEHE242:
	testq	%rax, %rax
	je	.L1064
	movq	-2696(%rbp), %rdx
	movq	%r12, %rsi
	movq	%r12, %rdi
.LEHB243:
	call	decaf_448_point_sub@PLT
.LEHE243:
	movq	-2688(%rbp), %rdx
	movq	%r12, %rsi
	movq	%rbx, %rdi
.LEHB244:
	call	decaf_448_point_scalarmul@PLT
.LEHE244:
	leaq	16+_ZTVN5decaf12SecureBufferE(%rip), %rax
	movl	$56, %edi
	movq	$0, -2456(%rbp)
	movq	$56, -2448(%rbp)
	movq	%rax, -2464(%rbp)
.LEHB245:
	call	_Znam@PLT
.LEHE245:
	leaq	8(%rax), %rdi
	movq	%rax, %rcx
	movq	%rax, -2456(%rbp)
	movq	%rax, %rdx
	movq	$0, (%rax)
	movq	$0, 48(%rax)
	andq	$-8, %rdi
	xorl	%eax, %eax
	movq	%rbx, %rsi
	subq	%rdi, %rcx
	addl	$56, %ecx
	shrl	$3, %ecx
	rep stosq
	movq	%rdx, %rdi
.LEHB246:
	call	decaf_448_point_encode@PLT
.LEHE246:
	movq	-2448(%rbp), %rdx
	movq	-2456(%rbp), %rsi
	xorl	%ecx, %ecx
	movq	%r14, %rdi
.LEHB247:
	call	strobe_key@PLT
.LEHE247:
	testq	%rax, %rax
	je	.L1488
	movq	-2456(%rbp), %rdi
	leaq	16+_ZTVN5decaf12SecureBufferE(%rip), %rax
	movq	%rax, -2464(%rbp)
	testq	%rdi, %rdi
	je	.L1083
	movq	-2448(%rbp), %rsi
.LEHB248:
	call	decaf_bzero@PLT
.LEHE248:
	movq	-2456(%rbp), %rdi
	testq	%rdi, %rdi
	je	.L1083
	call	_ZdaPv@PLT
.L1083:
	movq	%rbx, %rdi
.LEHB249:
	call	decaf_448_point_destroy@PLT
.LEHE249:
	cmpb	$0, -2704(%rbp)
	je	.L1088
	movq	-2712(%rbp), %rdx
	movq	%r12, %rsi
	movq	%rbx, %rdi
.LEHB250:
	call	decaf_448_point_scalarmul@PLT
.LEHE250:
	leaq	-2464(%rbp), %rax
	movq	%rbx, %rsi
	movq	%rax, %r15
	movq	%rax, %rdi
	movq	%rax, -2720(%rbp)
	call	_ZNK5decaf5Ed4485PointcvNS_12SecureBufferEEv
	xorl	%edx, %edx
	movq	%r15, %rsi
	movq	%r14, %rdi
.LEHB251:
	call	_ZN5decaf6Strobe3keyERKNS_5BlockEb
.LEHE251:
	movq	-2456(%rbp), %rdi
	leaq	16+_ZTVN5decaf12SecureBufferE(%rip), %rax
	movq	%rax, -2464(%rbp)
	testq	%rdi, %rdi
	je	.L1094
	movq	-2448(%rbp), %rsi
.LEHB252:
	call	decaf_bzero@PLT
.LEHE252:
	movq	-2456(%rbp), %rdi
	testq	%rdi, %rdi
	je	.L1094
	call	_ZdaPv@PLT
.L1094:
	movq	%rbx, %rdi
.LEHB253:
	call	decaf_448_point_destroy@PLT
.LEHE253:
.L1088:
	movq	-2480(%rbp), %rdx
	leaq	-1(%rdx), %rax
	cmpq	$254, %rax
	jbe	.L1489
	movl	$8, %edi
	leaq	16+_ZTVN5decaf15LengthExceptionE(%rip), %rbx
	call	__cxa_allocate_exception@PLT
	leaq	_ZN5decaf15LengthExceptionD1Ev(%rip), %rdx
	leaq	_ZTIN5decaf15LengthExceptionE(%rip), %rsi
	movq	%rbx, (%rax)
	movq	%rax, %rdi
.LEHB254:
	call	__cxa_throw@PLT
	.p2align 4,,10
	.p2align 3
.L1489:
	movq	-2488(%rbp), %rsi
	movq	%r14, %rdi
	call	strobe_verify_auth@PLT
.LEHE254:
	testq	%rax, %rax
	je	.L1490
	leaq	16+_ZTVN5decaf12SecureBufferE(%rip), %rax
	movl	$8, %edi
	movq	$0, -2456(%rbp)
	movq	$8, -2448(%rbp)
	movq	%rax, -2464(%rbp)
.LEHB255:
	call	_Znam@PLT
.LEHE255:
	movq	-2448(%rbp), %rdx
	movq	%rax, -2456(%rbp)
	movq	$0, (%rax)
	cmpq	$255, %rdx
	ja	.L1491
	movq	%rax, %rsi
	movq	%r14, %rdi
.LEHB256:
	call	strobe_produce_auth@PLT
.LEHE256:
	testq	%rax, %rax
	je	.L1492
	movq	-2488(%rbp), %rdi
	testq	%rdi, %rdi
	je	.L1113
	movq	-2480(%rbp), %rsi
.LEHB257:
	call	decaf_bzero@PLT
.LEHE257:
	movq	-2488(%rbp), %rdi
	testq	%rdi, %rdi
	je	.L1114
	call	_ZdaPv@PLT
.L1114:
	movq	$0, -2488(%rbp)
.L1113:
	movq	-2448(%rbp), %rdi
	movq	%rdi, -2480(%rbp)
.LEHB258:
	call	_Znam@PLT
.LEHE258:
	movq	-2456(%rbp), %rbx
	movq	-2480(%rbp), %rdx
	movq	%rax, %rdi
	movq	%rax, -2488(%rbp)
	movq	%rbx, %rsi
	call	memcpy@PLT
	movq	-2448(%rbp), %rsi
	leaq	16+_ZTVN5decaf12SecureBufferE(%rip), %rax
	movq	%rbx, %rdi
	movq	%rax, -2464(%rbp)
.LEHB259:
	call	decaf_bzero@PLT
.LEHE259:
	movq	-2456(%rbp), %rdi
	testq	%rdi, %rdi
	je	.L1121
	call	_ZdaPv@PLT
.L1121:
	movq	STROBE_KEYED_128@GOTPCREL(%rip), %rbx
	movq	%r14, %rdi
	movq	%rbx, %rsi
.LEHB260:
	call	strobe_respec@PLT
.LEHE260:
	testq	%rax, %rax
	je	.L1493
	leaq	-2496(%rbp), %r15
	movq	%r13, %rdi
	movq	%r15, %rsi
.LEHB261:
	call	_ZN5decaf6Strobe11verify_authERKNS_5BlockE
.LEHE261:
	movq	%rbx, %rsi
	movq	%r13, %rdi
.LEHB262:
	call	strobe_respec@PLT
.LEHE262:
	testq	%rax, %rax
	je	.L1494
	movq	%r12, %rdi
.LEHB263:
	call	decaf_448_point_destroy@PLT
.LEHE263:
	movq	-2488(%rbp), %rdi
	leaq	16+_ZTVN5decaf12SecureBufferE(%rip), %rax
	movq	%rax, -2496(%rbp)
	testq	%rdi, %rdi
	je	.L1131
	movq	-2480(%rbp), %rsi
.LEHB264:
	call	decaf_bzero@PLT
.LEHE264:
	movq	-2488(%rbp), %rdi
	testq	%rdi, %rdi
	je	.L1131
	call	_ZdaPv@PLT
.L1131:
	movq	-2520(%rbp), %rdi
	leaq	16+_ZTVN5decaf12SecureBufferE(%rip), %rax
	movq	%rax, -2528(%rbp)
	testq	%rdi, %rdi
	je	.L1135
	movq	-2512(%rbp), %rsi
.LEHB265:
	call	decaf_bzero@PLT
.LEHE265:
	movq	-2520(%rbp), %rdi
	testq	%rdi, %rdi
	je	.L1135
	call	_ZdaPv@PLT
.L1135:
	movq	-2672(%rbp), %rdi
.LEHB266:
	call	decaf_448_scalar_destroy@PLT
.LEHE266:
	movq	-2552(%rbp), %rdi
	leaq	16+_ZTVN5decaf12SecureBufferE(%rip), %rax
	movq	%rax, -2560(%rbp)
	testq	%rdi, %rdi
	je	.L1142
	movq	-2544(%rbp), %rsi
.LEHB267:
	call	decaf_bzero@PLT
.LEHE267:
	movq	-2552(%rbp), %rdi
	testq	%rdi, %rdi
	je	.L1142
	call	_ZdaPv@PLT
.L1142:
	movq	-2696(%rbp), %rdi
.LEHB268:
	call	decaf_448_point_destroy@PLT
.LEHE268:
	movq	-2680(%rbp), %rdi
.LEHB269:
	call	decaf_448_point_destroy@PLT
.LEHE269:
	movq	-2712(%rbp), %rdi
.LEHB270:
	call	decaf_448_scalar_destroy@PLT
.LEHE270:
	movq	-2584(%rbp), %rdi
	leaq	16+_ZTVN5decaf12SecureBufferE(%rip), %rax
	movq	%rax, -2592(%rbp)
	testq	%rdi, %rdi
	je	.L1155
	movq	-2576(%rbp), %rsi
.LEHB271:
	call	decaf_bzero@PLT
.LEHE271:
	movq	-2584(%rbp), %rdi
	testq	%rdi, %rdi
	je	.L1155
	call	_ZdaPv@PLT
.L1155:
	movq	-2616(%rbp), %rdi
	leaq	16+_ZTVN5decaf12SecureBufferE(%rip), %rax
	movq	%rax, -2624(%rbp)
	testq	%rdi, %rdi
	je	.L1159
	movq	-2608(%rbp), %rsi
.LEHB272:
	call	decaf_bzero@PLT
.LEHE272:
	movq	-2616(%rbp), %rdi
	testq	%rdi, %rdi
	je	.L1159
	call	_ZdaPv@PLT
.L1159:
	movq	-2648(%rbp), %rdi
	leaq	16+_ZTVN5decaf12SecureBufferE(%rip), %rax
	movq	%rax, -2656(%rbp)
	testq	%rdi, %rdi
	je	.L1163
	movq	-2640(%rbp), %rsi
.LEHB273:
	call	decaf_bzero@PLT
.LEHE273:
	movq	-2648(%rbp), %rdi
	testq	%rdi, %rdi
	je	.L1163
	call	_ZdaPv@PLT
.L1163:
	movq	-2664(%rbp), %rdi
.LEHB274:
	call	sponge_destroy@PLT
.LEHE274:
	movq	-2688(%rbp), %rdi
.LEHB275:
	call	decaf_448_scalar_destroy@PLT
.LEHE275:
	movq	%r13, %rdi
.LEHB276:
	call	sponge_destroy@PLT
.LEHE276:
	movq	%r14, %rdi
.LEHB277:
	call	sponge_destroy@PLT
.LEHE277:
	movq	-56(%rbp), %rax
	xorq	%fs:40, %rax
	jne	.L1495
	addq	$2688, %rsp
	popq	%rbx
	popq	%r10
	.cfi_remember_state
	.cfi_def_cfa 10, 0
	popq	%r12
	popq	%r13
	popq	%r14
	popq	%r15
	popq	%rbp
	leaq	-8(%r10), %rsp
	.cfi_def_cfa 7, 8
	ret
.L1224:
	.cfi_restore_state
	cmpq	$-4, %rdx
	je	.L1496
.L1429:
	movq	%rax, %rbx
	vzeroupper
.L986:
	leaq	16+_ZTVN5decaf12SecureBufferE(%rip), %rax
	movq	%rax, -2528(%rbp)
	leaq	-2528(%rbp), %rax
	leaq	8(%rax), %rdi
	leaq	16(%rax), %rsi
	call	_ZN5decaf12SecureBuffer5clearEv.isra.9
	movq	-2672(%rbp), %rdi
	call	_ZN5decaf5Ed4486ScalarD1Ev
.L963:
	leaq	16+_ZTVN5decaf12SecureBufferE(%rip), %rax
	movq	%rax, -2560(%rbp)
	leaq	-2560(%rbp), %rax
	leaq	16(%rax), %rsi
	leaq	8(%rax), %rdi
	call	_ZN5decaf12SecureBuffer5clearEv.isra.9
	movq	-2696(%rbp), %rdi
	call	_ZN5decaf5Ed4485PointD1Ev
	movq	-2680(%rbp), %rdi
	call	_ZN5decaf5Ed4485PointD1Ev
	movq	-2712(%rbp), %rdi
	call	_ZN5decaf5Ed4486ScalarD1Ev
	leaq	16+_ZTVN5decaf12SecureBufferE(%rip), %rax
	movq	%rax, -2592(%rbp)
	leaq	-2592(%rbp), %rax
	leaq	16(%rax), %rsi
	leaq	8(%rax), %rdi
	call	_ZN5decaf12SecureBuffer5clearEv.isra.9
.L935:
	leaq	16+_ZTVN5decaf12SecureBufferE(%rip), %rax
	movq	%rax, -2624(%rbp)
	movq	-2736(%rbp), %rax
	leaq	16(%rax), %rsi
	leaq	8(%rax), %rdi
	call	_ZN5decaf12SecureBuffer5clearEv.isra.9
.L932:
	leaq	16+_ZTVN5decaf12SecureBufferE(%rip), %rax
	movq	%rax, -2656(%rbp)
	movq	-2728(%rbp), %rax
	leaq	16(%rax), %rsi
	leaq	8(%rax), %rdi
	call	_ZN5decaf12SecureBuffer5clearEv.isra.9
.L929:
	movq	-2664(%rbp), %rdi
	call	_ZN5decaf12KeccakSpongeD2Ev
	movq	-2688(%rbp), %rdi
	call	_ZN5decaf5Ed4486ScalarD1Ev
	movq	%r13, %rdi
	call	_ZN5decaf12KeccakSpongeD2Ev
	movq	%r14, %rdi
	call	_ZN5decaf12KeccakSpongeD2Ev
	movq	%rbx, %rdi
.LEHB278:
	call	_Unwind_Resume@PLT
.LEHE278:
.L1247:
	cmpq	$-4, %rdx
	je	.L1497
.L1428:
	leaq	-2496(%rbp), %r15
	movq	%rax, %rbx
	vzeroupper
.L1063:
	leaq	16+_ZTVN5decaf12SecureBufferE(%rip), %rax
	leaq	16(%r15), %rsi
	leaq	8(%r15), %rdi
	movq	%rax, -2496(%rbp)
	call	_ZN5decaf12SecureBuffer5clearEv.isra.9
	jmp	.L986
.L1259:
	cmpq	$-9, %rdx
	je	.L1498
.L1425:
	leaq	-2496(%rbp), %r15
	movq	%rax, %rbx
	vzeroupper
.L1105:
	movq	%r12, %rdi
	call	_ZN5decaf5Ed4485PointD1Ev
	jmp	.L1063
.L1477:
	movl	$8, %edi
	leaq	16+_ZTVN5decaf17ProtocolExceptionE(%rip), %rbx
	call	__cxa_allocate_exception@PLT
	leaq	_ZN5decaf17ProtocolExceptionD1Ev(%rip), %rdx
	leaq	_ZTIN5decaf17ProtocolExceptionE(%rip), %rsi
	movq	%rbx, (%rax)
	movq	%rax, %rdi
.LEHB279:
	call	__cxa_throw@PLT
.LEHE279:
.L1214:
	cmpq	$-2, %rdx
	je	.L1499
.L1430:
	movq	%rax, %rbx
	vzeroupper
	jmp	.L963
.L1480:
	movl	$8, %edi
	leaq	16+_ZTVN5decaf17ProtocolExceptionE(%rip), %rbx
	call	__cxa_allocate_exception@PLT
	leaq	_ZN5decaf17ProtocolExceptionD1Ev(%rip), %rdx
	leaq	_ZTIN5decaf17ProtocolExceptionE(%rip), %rsi
	movq	%rbx, (%rax)
	movq	%rax, %rdi
.LEHB280:
	call	__cxa_throw@PLT
.LEHE280:
.L1223:
	cmpq	$-2, %rdx
	jne	.L1429
	movq	%rax, %rdi
	vzeroupper
.LEHB281:
	call	__cxa_call_unexpected@PLT
.LEHE281:
.L1479:
	movl	$8, %edi
	leaq	16+_ZTVN5decaf17ProtocolExceptionE(%rip), %rbx
	call	__cxa_allocate_exception@PLT
	leaq	_ZN5decaf17ProtocolExceptionD1Ev(%rip), %rdx
	leaq	_ZTIN5decaf17ProtocolExceptionE(%rip), %rsi
	movq	%rbx, (%rax)
	movq	%rax, %rdi
.LEHB282:
	call	__cxa_throw@PLT
.LEHE282:
.L1222:
	cmpq	$-2, %rdx
	jne	.L1429
	movq	%rax, %rdi
	vzeroupper
.LEHB283:
	call	__cxa_call_unexpected@PLT
.LEHE283:
.L1495:
	call	__stack_chk_fail@PLT
.L1476:
	movl	$8, %edi
	leaq	16+_ZTVN5decaf17ProtocolExceptionE(%rip), %rbx
	call	__cxa_allocate_exception@PLT
	leaq	_ZN5decaf17ProtocolExceptionD1Ev(%rip), %rdx
	leaq	_ZTIN5decaf17ProtocolExceptionE(%rip), %rsi
	movq	%rbx, (%rax)
	movq	%rax, %rdi
.LEHB284:
	call	__cxa_throw@PLT
.LEHE284:
.L1204:
	cmpq	$-2, %rdx
	jne	.L1430
	movq	%rax, %rdi
	vzeroupper
.LEHB285:
	call	__cxa_call_unexpected@PLT
.LEHE285:
.L1478:
	movl	$8, %edi
	leaq	16+_ZTVN5decaf17ProtocolExceptionE(%rip), %rbx
	call	__cxa_allocate_exception@PLT
	leaq	_ZN5decaf17ProtocolExceptionD1Ev(%rip), %rdx
	leaq	_ZTIN5decaf17ProtocolExceptionE(%rip), %rsi
	movq	%rbx, (%rax)
	movq	%rax, %rdi
.LEHB286:
	call	__cxa_throw@PLT
.LEHE286:
.L1215:
	cmpq	$-2, %rdx
	jne	.L1429
	movq	%rax, %rdi
	vzeroupper
.LEHB287:
	call	__cxa_call_unexpected@PLT
.LEHE287:
.L1482:
	movl	$8, %edi
	call	__cxa_allocate_exception@PLT
	leaq	16+_ZTVN5decaf17ProtocolExceptionE(%rip), %rdx
	leaq	_ZTIN5decaf17ProtocolExceptionE(%rip), %rsi
	movq	%rax, %rdi
	movq	%rdx, (%rax)
	leaq	_ZN5decaf17ProtocolExceptionD1Ev(%rip), %rdx
.LEHB288:
	call	__cxa_throw@PLT
.LEHE288:
.L1226:
	cmpq	$-2, %rdx
	je	.L1500
.L1422:
	movq	%rax, %r15
	leaq	16+_ZTVN5decaf12SecureBufferE(%rip), %rax
	movq	%rax, -2464(%rbp)
	leaq	-2464(%rbp), %rax
	leaq	16(%rax), %rsi
	leaq	8(%rax), %rdi
	vzeroupper
	call	_ZN5decaf12SecureBuffer5clearEv.isra.9
	movq	%rbx, %rdi
	movq	%r15, %rbx
	call	_ZN5decaf5Ed4485PointD1Ev
	movq	%r12, %rdi
	call	_ZN5decaf5Ed4485PointD1Ev
	movq	-2720(%rbp), %rdi
	call	_ZN5decaf5Ed4485PointD1Ev
	jmp	.L986
.L1484:
	movl	$8, %edi
	leaq	16+_ZTVN5decaf15LengthExceptionE(%rip), %rbx
	call	__cxa_allocate_exception@PLT
	leaq	_ZN5decaf15LengthExceptionD1Ev(%rip), %rdx
	leaq	_ZTIN5decaf15LengthExceptionE(%rip), %rsi
	movq	%rbx, (%rax)
	movq	%rax, %rdi
.LEHB289:
	call	__cxa_throw@PLT
.L1245:
	cmpq	$-6, %rdx
	je	.L1501
.L1420:
	movq	%rax, %rbx
	leaq	16+_ZTVN5decaf12SecureBufferE(%rip), %rax
	movq	%rdx, %r12
	movq	%rax, -2496(%rbp)
	leaq	-2496(%rbp), %rax
	leaq	16(%rax), %rsi
	leaq	8(%rax), %rdi
	vzeroupper
	call	_ZN5decaf12SecureBuffer5clearEv.isra.9
	leaq	16+_ZTVN5decaf5BlockE(%rip), %rax
	movq	%r12, %rdx
	movq	%rax, -2496(%rbp)
	movq	%rbx, %rax
.L1058:
	cmpq	$-2, %rdx
	je	.L1059
	movq	%rax, %rbx
	jmp	.L986
.L1485:
	movl	$8, %edi
	leaq	16+_ZTVN5decaf17ProtocolExceptionE(%rip), %rbx
	call	__cxa_allocate_exception@PLT
	leaq	_ZN5decaf17ProtocolExceptionD1Ev(%rip), %rdx
	leaq	_ZTIN5decaf17ProtocolExceptionE(%rip), %rsi
	movq	%rbx, (%rax)
	movq	%rax, %rdi
	call	__cxa_throw@PLT
.LEHE289:
.L1486:
	movl	$8, %edi
	leaq	16+_ZTVN5decaf17ProtocolExceptionE(%rip), %rbx
	call	__cxa_allocate_exception@PLT
	leaq	_ZN5decaf17ProtocolExceptionD1Ev(%rip), %rdx
	leaq	_ZTIN5decaf17ProtocolExceptionE(%rip), %rsi
	movq	%rbx, (%rax)
	movq	%rax, %rdi
.LEHB290:
	call	__cxa_throw@PLT
.LEHE290:
.L1246:
	cmpq	$-2, %rdx
	jne	.L1428
	movq	%rax, %rdi
	vzeroupper
.LEHB291:
	call	__cxa_call_unexpected@PLT
.LEHE291:
.L1494:
	movl	$8, %edi
	leaq	16+_ZTVN5decaf17ProtocolExceptionE(%rip), %rbx
	call	__cxa_allocate_exception@PLT
	leaq	_ZN5decaf17ProtocolExceptionD1Ev(%rip), %rdx
	leaq	_ZTIN5decaf17ProtocolExceptionE(%rip), %rsi
	movq	%rbx, (%rax)
	movq	%rax, %rdi
.LEHB292:
	call	__cxa_throw@PLT
.LEHE292:
.L1267:
	cmpq	$-2, %rdx
	je	.L1502
.L1426:
	movq	%rax, %rbx
	vzeroupper
	jmp	.L1105
.L1488:
	movl	$8, %edi
	call	__cxa_allocate_exception@PLT
	leaq	16+_ZTVN5decaf17ProtocolExceptionE(%rip), %rdx
	leaq	_ZTIN5decaf17ProtocolExceptionE(%rip), %rsi
	movq	%rax, %rdi
	movq	%rdx, (%rax)
	leaq	_ZN5decaf17ProtocolExceptionD1Ev(%rip), %rdx
.LEHB293:
	call	__cxa_throw@PLT
.LEHE293:
.L1249:
	cmpq	$-2, %rdx
	je	.L1503
.L1423:
	movq	%rax, %r15
	leaq	16+_ZTVN5decaf12SecureBufferE(%rip), %rax
	movq	%rax, -2464(%rbp)
	leaq	-2464(%rbp), %rax
.L1427:
	leaq	16(%rax), %rsi
	leaq	8(%rax), %rdi
	vzeroupper
	call	_ZN5decaf12SecureBuffer5clearEv.isra.9
	movq	%rbx, %rdi
	movq	%r15, %rbx
	leaq	-2496(%rbp), %r15
	call	_ZN5decaf5Ed4485PointD1Ev
	jmp	.L1105
.L1493:
	movl	$8, %edi
	leaq	16+_ZTVN5decaf17ProtocolExceptionE(%rip), %rbx
	call	__cxa_allocate_exception@PLT
	leaq	_ZN5decaf17ProtocolExceptionD1Ev(%rip), %rdx
	leaq	_ZTIN5decaf17ProtocolExceptionE(%rip), %rsi
	movq	%rbx, (%rax)
	movq	%rax, %rdi
.LEHB294:
	call	__cxa_throw@PLT
.LEHE294:
.L1265:
	cmpq	$-2, %rdx
	jne	.L1425
	leaq	-2496(%rbp), %r15
	movq	%rax, %rdi
	vzeroupper
.LEHB295:
	call	__cxa_call_unexpected@PLT
.LEHE295:
.L1492:
	movl	$8, %edi
	leaq	16+_ZTVN5decaf17ProtocolExceptionE(%rip), %rbx
	call	__cxa_allocate_exception@PLT
	leaq	_ZN5decaf17ProtocolExceptionD1Ev(%rip), %rdx
	leaq	_ZTIN5decaf17ProtocolExceptionE(%rip), %rsi
	movq	%rbx, (%rax)
	movq	%rax, %rdi
.LEHB296:
	call	__cxa_throw@PLT
.L1262:
	cmpq	$-6, %rdx
	je	.L1504
.L1421:
	movq	%rax, %rbx
	leaq	16+_ZTVN5decaf12SecureBufferE(%rip), %rax
	movq	%rdx, %r15
	movq	%rax, -2464(%rbp)
	leaq	-2464(%rbp), %rax
	leaq	16(%rax), %rsi
	leaq	8(%rax), %rdi
	vzeroupper
	call	_ZN5decaf12SecureBuffer5clearEv.isra.9
	leaq	16+_ZTVN5decaf5BlockE(%rip), %rax
	movq	%r15, %rdx
	movq	%rax, -2464(%rbp)
	movq	%rbx, %rax
.L1111:
	cmpq	$-2, %rdx
	je	.L1112
	movq	%rax, %rbx
	leaq	-2496(%rbp), %r15
	jmp	.L1105
.L1491:
	movl	$8, %edi
	leaq	16+_ZTVN5decaf15LengthExceptionE(%rip), %rbx
	call	__cxa_allocate_exception@PLT
	leaq	_ZN5decaf15LengthExceptionD1Ev(%rip), %rdx
	leaq	_ZTIN5decaf15LengthExceptionE(%rip), %rsi
	movq	%rbx, (%rax)
	movq	%rax, %rdi
	call	__cxa_throw@PLT
.LEHE296:
.L1490:
	movl	$8, %edi
	leaq	16+_ZTVN5decaf15CryptoExceptionE(%rip), %rbx
	call	__cxa_allocate_exception@PLT
	leaq	_ZN5decaf15CryptoExceptionD1Ev(%rip), %rdx
	leaq	_ZTIN5decaf15CryptoExceptionE(%rip), %rsi
	movq	%rbx, (%rax)
	movq	%rax, %rdi
.LEHB297:
	call	__cxa_throw@PLT
.LEHE297:
.L1483:
	movl	$8, %edi
	call	__cxa_allocate_exception@PLT
	leaq	16+_ZTVN5decaf17ProtocolExceptionE(%rip), %rdx
	leaq	_ZTIN5decaf17ProtocolExceptionE(%rip), %rsi
	movq	%rax, %rdi
	movq	%rdx, (%rax)
	leaq	_ZN5decaf17ProtocolExceptionD1Ev(%rip), %rdx
.LEHB298:
	call	__cxa_throw@PLT
.LEHE298:
.L1237:
	cmpq	$-2, %rdx
	je	.L1505
.L1039:
	movq	%rax, -2704(%rbp)
	leaq	16+_ZTVN5decaf12SecureBufferE(%rip), %rax
	movq	%rax, -2464(%rbp)
	movq	-2720(%rbp), %rax
	leaq	16(%rax), %rsi
	leaq	8(%rax), %rdi
	vzeroupper
	call	_ZN5decaf12SecureBuffer5clearEv.isra.9
	movq	%rbx, %rdi
	call	_ZN5decaf5Ed4485PointD1Ev
	movq	%r12, %rdi
	call	_ZN5decaf5Ed4485PointD1Ev
	movq	-2704(%rbp), %rax
	movq	%rax, %rbx
	jmp	.L1063
.L1059:
	movq	%rax, %rdi
.LEHB299:
	call	__cxa_call_unexpected@PLT
.LEHE299:
.L1266:
	addq	$1, %rdx
	movq	%rax, %rdi
	je	.L1124
	vzeroupper
.LEHB300:
	call	_Unwind_Resume@PLT
.L1263:
	cmpq	$-12, %rdx
	je	.L1506
.L1424:
	movq	%rax, %rbx
	leaq	16+_ZTVN5decaf12SecureBufferE(%rip), %rax
	movq	%rax, -2464(%rbp)
	leaq	-2464(%rbp), %rax
	leaq	16(%rax), %rsi
	leaq	8(%rax), %rdi
	vzeroupper
	call	_ZN5decaf12SecureBuffer5clearEv.isra.9
	leaq	-2496(%rbp), %r15
	jmp	.L1105
.L1124:
	vzeroupper
	call	__cxa_call_unexpected@PLT
.LEHE300:
.L1506:
	movq	%rax, %rdi
	vzeroupper
.LEHB301:
	call	__cxa_call_unexpected@PLT
.LEHE301:
.L1255:
	addq	$1, %rdx
	movq	%rax, %rdi
	je	.L1086
	vzeroupper
.LEHB302:
	call	_Unwind_Resume@PLT
.LEHE302:
.L1501:
	movq	%rax, %rdi
	vzeroupper
.LEHB303:
	call	__cxa_call_unexpected@PLT
.LEHE303:
.L1502:
	movq	%rax, %rdi
	vzeroupper
.LEHB304:
	call	__cxa_call_unexpected@PLT
.LEHE304:
.L1505:
	movq	%rax, %rdi
	vzeroupper
.LEHB305:
	call	__cxa_call_unexpected@PLT
.LEHE305:
.L1086:
	vzeroupper
.LEHB306:
	call	__cxa_call_unexpected@PLT
.L1196:
	jmp	.L1039
.L1192:
	jmp	.L1424
.L1244:
	jmp	.L1420
.L1274:
	addq	$1, %rdx
	movq	%rax, %rdi
	je	.L1162
	vzeroupper
	call	_Unwind_Resume@PLT
.L1275:
	addq	$1, %rdx
	movq	%rax, %rdi
	je	.L1158
	vzeroupper
	call	_Unwind_Resume@PLT
.L1162:
	vzeroupper
	call	__cxa_call_unexpected@PLT
.L1158:
	vzeroupper
	call	__cxa_call_unexpected@PLT
.L1276:
	addq	$1, %rdx
	movq	%rax, %rdi
	je	.L1154
	vzeroupper
	call	_Unwind_Resume@PLT
.L1277:
	addq	$1, %rdx
	movq	%rax, %rdi
	je	.L1151
	vzeroupper
	call	_Unwind_Resume@PLT
.L1154:
	vzeroupper
	call	__cxa_call_unexpected@PLT
.L1151:
	vzeroupper
	call	__cxa_call_unexpected@PLT
.L1278:
	addq	$1, %rdx
	movq	%rax, %rdi
	je	.L1148
	vzeroupper
	call	_Unwind_Resume@PLT
.L1279:
	addq	$1, %rdx
	movq	%rax, %rdi
	je	.L1145
	vzeroupper
	call	_Unwind_Resume@PLT
.L1148:
	vzeroupper
	call	__cxa_call_unexpected@PLT
.L1145:
	vzeroupper
	call	__cxa_call_unexpected@PLT
.L1280:
	addq	$1, %rdx
	movq	%rax, %rdi
	je	.L1141
	vzeroupper
	call	_Unwind_Resume@PLT
.L1281:
	addq	$1, %rdx
	movq	%rax, %rdi
	je	.L1138
	vzeroupper
	call	_Unwind_Resume@PLT
.L1141:
	vzeroupper
	call	__cxa_call_unexpected@PLT
.L1138:
	vzeroupper
	call	__cxa_call_unexpected@PLT
.L1264:
	addq	$1, %rdx
	movq	%rax, %rdi
	je	.L1116
	vzeroupper
	call	_Unwind_Resume@PLT
.L1260:
	vzeroupper
	jmp	.L1111
.L1116:
	vzeroupper
	call	__cxa_call_unexpected@PLT
.L1257:
	addq	$1, %rdx
	movq	%rax, %rdi
	je	.L1099
	vzeroupper
	call	_Unwind_Resume@PLT
.LEHE306:
.L1497:
	movq	%rax, %rdi
	vzeroupper
.LEHB307:
	call	__cxa_call_unexpected@PLT
.LEHE307:
.L1099:
	vzeroupper
.LEHB308:
	call	__cxa_call_unexpected@PLT
.L1258:
	addq	$1, %rdx
	movq	%rax, %rdi
	je	.L1097
	vzeroupper
	call	_Unwind_Resume@PLT
.L1193:
	movq	%rax, %r15
	leaq	16+_ZTVN5decaf12SecureBufferE(%rip), %rax
	movq	%rax, -2464(%rbp)
	movq	-2720(%rbp), %rax
	jmp	.L1427
.L1097:
	vzeroupper
	call	__cxa_call_unexpected@PLT
.L1256:
	movq	%rax, %r12
	movq	%rdx, %r13
	movq	%rbx, %rdi
	vzeroupper
	call	_ZN5decaf5Ed4485PointD1Ev
	addq	$1, %r13
	movq	%r12, %rdi
	je	.L1093
	call	_Unwind_Resume@PLT
.L1254:
	addq	$1, %rdx
	movq	%rax, %rdi
	je	.L1090
	vzeroupper
	call	_Unwind_Resume@PLT
.L1093:
	call	__cxa_call_unexpected@PLT
.L1090:
	vzeroupper
	call	__cxa_call_unexpected@PLT
.L1242:
	addq	$1, %rdx
	movq	%rax, %rdi
	je	.L1043
	vzeroupper
	call	_Unwind_Resume@PLT
.L1238:
	movq	%rax, %r12
	movq	%rdx, %r13
	movq	%rbx, %rdi
	vzeroupper
	call	_ZN5decaf5Ed4485PointD1Ev
	addq	$1, %r13
	movq	%r12, %rdi
	je	.L1035
	call	_Unwind_Resume@PLT
.L1043:
	vzeroupper
	call	__cxa_call_unexpected@PLT
.L1035:
	call	__cxa_call_unexpected@PLT
.L1195:
	movq	%rax, %rbx
	vzeroupper
	jmp	.L1063
.L1235:
	addq	$1, %rdx
	movq	%rax, %rdi
	je	.L1032
	vzeroupper
	call	_Unwind_Resume@PLT
.L1236:
	movq	%rax, %r12
	movq	%rdx, %r13
	movq	%rbx, %rdi
	vzeroupper
	call	_ZN5decaf5Ed4485PointD1Ev
	addq	$1, %r13
	movq	%r12, %rdi
	je	.L1029
	call	_Unwind_Resume@PLT
.L1232:
	addq	$1, %rdx
	movq	%rax, %rdi
	je	.L1022
	vzeroupper
	call	_Unwind_Resume@PLT
.L1231:
	addq	$1, %rdx
	movq	%rax, %rdi
	je	.L1026
	vzeroupper
	call	_Unwind_Resume@PLT
.L1233:
	addq	$1, %rdx
	movq	%rax, %rdi
	je	.L1019
	vzeroupper
	call	_Unwind_Resume@PLT
.L1032:
	vzeroupper
	call	__cxa_call_unexpected@PLT
.L1029:
	call	__cxa_call_unexpected@PLT
.L1026:
	vzeroupper
	call	__cxa_call_unexpected@PLT
.L1022:
	vzeroupper
	call	__cxa_call_unexpected@PLT
.L1019:
	vzeroupper
	call	__cxa_call_unexpected@PLT
.L1251:
	movq	%rax, %rbx
	leaq	16+_ZTVN5decaf12SecureBufferE(%rip), %rax
	movq	%rdx, %r12
	movq	%rax, -2464(%rbp)
	leaq	-2464(%rbp), %rax
	leaq	16(%rax), %rsi
	leaq	8(%rax), %rdi
	vzeroupper
	call	_ZN5decaf12SecureBuffer5clearEv.isra.9
	leaq	16+_ZTVN5decaf5BlockE(%rip), %rax
	movq	%rbx, %rdi
	movq	%r12, %rdx
	movq	%rax, -2464(%rbp)
.L1077:
	addq	$1, %rdx
	je	.L1078
	call	_Unwind_Resume@PLT
.LEHE308:
.L1503:
	movq	%rax, %rdi
	vzeroupper
.LEHB309:
	call	__cxa_call_unexpected@PLT
.LEHE309:
.L1078:
.LEHB310:
	call	__cxa_call_unexpected@PLT
.LEHE310:
.L1194:
	jmp	.L1423
.L1112:
	movq	%rax, %rdi
	leaq	-2496(%rbp), %r15
.LEHB311:
	call	__cxa_call_unexpected@PLT
.LEHE311:
.L1504:
	movq	%rax, %rdi
	vzeroupper
.LEHB312:
	call	__cxa_call_unexpected@PLT
.LEHE312:
.L1243:
	vzeroupper
	jmp	.L1058
.L1240:
	addq	$1, %rdx
	movq	%rax, %rdi
	je	.L1050
	vzeroupper
.LEHB313:
	call	_Unwind_Resume@PLT
.L1241:
	addq	$1, %rdx
	movq	%rax, %rdi
	je	.L1046
	vzeroupper
	call	_Unwind_Resume@PLT
.L1050:
	vzeroupper
	call	__cxa_call_unexpected@PLT
.L1046:
	vzeroupper
	call	__cxa_call_unexpected@PLT
.L1239:
	addq	$1, %rdx
	movq	%rax, %rdi
	je	.L1052
	vzeroupper
	call	_Unwind_Resume@PLT
.L1261:
	jmp	.L1421
.L1052:
	vzeroupper
	call	__cxa_call_unexpected@PLT
.L1268:
	addq	$1, %rdx
	movq	%rax, %rdi
	je	.L1180
	vzeroupper
	call	_Unwind_Resume@PLT
.L1269:
	addq	$1, %rdx
	movq	%rax, %rdi
	je	.L1178
	vzeroupper
	call	_Unwind_Resume@PLT
.L1180:
	vzeroupper
	call	__cxa_call_unexpected@PLT
.L1178:
	vzeroupper
	call	__cxa_call_unexpected@PLT
.L1227:
	movq	%rax, %rdi
	vzeroupper
.L1007:
	addq	$1, %rdx
	je	.L1008
	call	_Unwind_Resume@PLT
.L1229:
	movq	%rax, %r12
	movq	%rdx, %r13
	movq	%rbx, %rdi
	vzeroupper
	call	_ZN5decaf5Ed4485PointD1Ev
	addq	$1, %r13
	movq	%r12, %rdi
	je	.L1004
	call	_Unwind_Resume@PLT
.L1008:
	call	__cxa_call_unexpected@PLT
.L1004:
	call	__cxa_call_unexpected@PLT
.L1230:
	movq	%rax, %rbx
	movq	%rdx, %r13
	movq	%r12, %rdi
	vzeroupper
	call	_ZN5decaf5Ed4485PointD1Ev
	addq	$1, %r13
	movq	%rbx, %rdi
	je	.L1001
	call	_Unwind_Resume@PLT
.L1225:
	addq	$1, %rdx
	movq	%rax, %rdi
	je	.L996
	vzeroupper
	call	_Unwind_Resume@PLT
.L1001:
	call	__cxa_call_unexpected@PLT
.L996:
	vzeroupper
	call	__cxa_call_unexpected@PLT
.L1250:
	movq	%rax, %rdi
	vzeroupper
	jmp	.L1077
.L1252:
	movq	%rax, %r12
	movq	%rdx, %r13
	movq	%rbx, %rdi
	vzeroupper
	call	_ZN5decaf5Ed4485PointD1Ev
	addq	$1, %r13
	movq	%r12, %rdi
	je	.L1074
	call	_Unwind_Resume@PLT
.L1253:
	addq	$1, %rdx
	movq	%rax, %rdi
	je	.L1072
	vzeroupper
	call	_Unwind_Resume@PLT
.L1248:
	addq	$1, %rdx
	movq	%rax, %rdi
	je	.L1067
	vzeroupper
	call	_Unwind_Resume@PLT
.L1074:
	call	__cxa_call_unexpected@PLT
.L1072:
	vzeroupper
	call	__cxa_call_unexpected@PLT
.L1067:
	vzeroupper
	call	__cxa_call_unexpected@PLT
.LEHE313:
.L1496:
	movq	%rax, %rdi
	vzeroupper
.LEHB314:
	call	__cxa_call_unexpected@PLT
.LEHE314:
.L1191:
	jmp	.L1426
.L1282:
	addq	$1, %rdx
	movq	%rax, %rdi
	je	.L1134
	vzeroupper
.LEHB315:
	call	_Unwind_Resume@PLT
.L1190:
	jmp	.L1428
.L1134:
	vzeroupper
	call	__cxa_call_unexpected@PLT
.L1270:
	addq	$1, %rdx
	movq	%rax, %rdi
	je	.L1175
	vzeroupper
	call	_Unwind_Resume@PLT
.L1271:
	addq	$1, %rdx
	movq	%rax, %rdi
	je	.L1172
	vzeroupper
	call	_Unwind_Resume@PLT
.L1175:
	vzeroupper
	call	__cxa_call_unexpected@PLT
.L1172:
	vzeroupper
	call	__cxa_call_unexpected@PLT
.L1272:
	addq	$1, %rdx
	movq	%rax, %rdi
	je	.L1169
	vzeroupper
	call	_Unwind_Resume@PLT
.L1273:
	addq	$1, %rdx
	movq	%rax, %rdi
	je	.L1166
	vzeroupper
	call	_Unwind_Resume@PLT
.L1169:
	vzeroupper
	call	__cxa_call_unexpected@PLT
.L1166:
	vzeroupper
	call	__cxa_call_unexpected@PLT
.L1234:
	addq	$1, %rdx
	movq	%rax, %rdi
	je	.L1016
	vzeroupper
	call	_Unwind_Resume@PLT
.LEHE315:
.L1500:
	movq	%rax, %rdi
	vzeroupper
.LEHB316:
	call	__cxa_call_unexpected@PLT
.LEHE316:
.L1228:
	movq	%rax, %rbx
	leaq	16+_ZTVN5decaf12SecureBufferE(%rip), %rax
	movq	%rdx, %r12
	movq	%rax, -2464(%rbp)
	leaq	-2464(%rbp), %rax
	leaq	16(%rax), %rsi
	leaq	8(%rax), %rdi
	vzeroupper
	call	_ZN5decaf12SecureBuffer5clearEv.isra.9
	leaq	16+_ZTVN5decaf5BlockE(%rip), %rax
	movq	%rbx, %rdi
	movq	%r12, %rdx
	movq	%rax, -2464(%rbp)
	jmp	.L1007
.L1016:
	vzeroupper
.LEHB317:
	call	__cxa_call_unexpected@PLT
.L1197:
	jmp	.L1422
.L1213:
	addq	$1, %rdx
	movq	%rax, %rdi
	je	.L938
	vzeroupper
	call	_Unwind_Resume@PLT
.L1203:
	movq	%rax, %rbx
	leaq	16+_ZTVN5decaf12SecureBufferE(%rip), %rax
	movq	%rax, -2592(%rbp)
	leaq	-2592(%rbp), %rax
	leaq	16(%rax), %rsi
	leaq	8(%rax), %rdi
	vzeroupper
	call	_ZN5decaf12SecureBuffer5clearEv.isra.9
	leaq	16+_ZTVN5decaf5BlockE(%rip), %rax
	movq	%rax, -2592(%rbp)
	leaq	-2656(%rbp), %rax
	movq	%rax, -2728(%rbp)
	leaq	-2624(%rbp), %rax
	movq	%rax, -2736(%rbp)
	jmp	.L935
.L938:
	vzeroupper
	call	__cxa_call_unexpected@PLT
.L1187:
	movq	%rax, %rbx
	leaq	-2656(%rbp), %rax
	movq	%rax, -2728(%rbp)
	leaq	-2624(%rbp), %rax
	movq	%rax, -2736(%rbp)
	vzeroupper
	jmp	.L935
.L1202:
	movq	%rax, %rbx
	leaq	16+_ZTVN5decaf12SecureBufferE(%rip), %rax
	movq	%rax, -2624(%rbp)
	leaq	-2624(%rbp), %rax
	leaq	16(%rax), %rsi
	leaq	8(%rax), %rdi
	vzeroupper
	call	_ZN5decaf12SecureBuffer5clearEv.isra.9
	leaq	16+_ZTVN5decaf5BlockE(%rip), %rax
	movq	%rax, -2624(%rbp)
	leaq	-2656(%rbp), %rax
	movq	%rax, -2728(%rbp)
	jmp	.L932
.L1219:
	movq	%rax, %rbx
	leaq	16+_ZTVN5decaf12SecureBufferE(%rip), %rax
	movq	%rdx, %r12
	movq	%rax, -2528(%rbp)
	leaq	-2528(%rbp), %rax
	leaq	16(%rax), %rsi
	leaq	8(%rax), %rdi
	vzeroupper
	call	_ZN5decaf12SecureBuffer5clearEv.isra.9
	leaq	16+_ZTVN5decaf5BlockE(%rip), %rax
	movq	%rbx, %rdi
	movq	%r12, %rdx
	movq	%rax, -2528(%rbp)
.L975:
	addq	$1, %rdx
	je	.L976
	call	_Unwind_Resume@PLT
.L1218:
	movq	%rax, %rdi
	vzeroupper
	jmp	.L975
.L976:
	call	__cxa_call_unexpected@PLT
.L1205:
	addq	$1, %rdx
	movq	%rax, %rdi
	je	.L959
	vzeroupper
	call	_Unwind_Resume@PLT
.L1206:
	addq	$1, %rdx
	movq	%rax, %rdi
	je	.L956
	vzeroupper
	call	_Unwind_Resume@PLT
.L959:
	vzeroupper
	call	__cxa_call_unexpected@PLT
.L956:
	vzeroupper
	call	__cxa_call_unexpected@PLT
.L1186:
	movq	%rax, %rbx
	leaq	-2656(%rbp), %rax
	movq	%rax, -2728(%rbp)
	vzeroupper
	jmp	.L932
.L1201:
	movq	%rax, %rbx
	leaq	16+_ZTVN5decaf12SecureBufferE(%rip), %rax
	movq	%rax, -2656(%rbp)
	leaq	-2656(%rbp), %rax
	leaq	16(%rax), %rsi
	leaq	8(%rax), %rdi
	vzeroupper
	call	_ZN5decaf12SecureBuffer5clearEv.isra.9
	leaq	16+_ZTVN5decaf5BlockE(%rip), %rax
	movq	%rax, -2656(%rbp)
	jmp	.L929
.L1185:
	movq	%rax, %rbx
	vzeroupper
	jmp	.L929
.L1217:
	addq	$1, %rdx
	movq	%rax, %rdi
	je	.L979
	vzeroupper
	call	_Unwind_Resume@PLT
.L1220:
	movq	%rax, %r12
	movq	%rdx, %r13
	movq	%rbx, %rdi
	vzeroupper
	call	_ZN5decaf5Ed4485PointD1Ev
	addq	$1, %r13
	movq	%r12, %rdi
	je	.L972
	call	_Unwind_Resume@PLT
.L1216:
	addq	$1, %rdx
	movq	%rax, %rdi
	je	.L982
	vzeroupper
	call	_Unwind_Resume@PLT
.L1209:
	movq	%rax, %r12
	movq	%rdx, %r13
	movq	%rbx, %rdi
	vzeroupper
	call	_ZN5decaf5Ed4485PointD1Ev
	addq	$1, %r13
	movq	%r12, %rdi
	je	.L949
	call	_Unwind_Resume@PLT
.LEHE317:
.L1499:
	movq	%rax, %rdi
	vzeroupper
.LEHB318:
	call	__cxa_call_unexpected@PLT
.LEHE318:
.L1208:
	movq	%rax, %rbx
	leaq	16+_ZTVN5decaf12SecureBufferE(%rip), %rax
	movq	%rdx, %r12
	movq	%rax, -2560(%rbp)
	leaq	-2560(%rbp), %rax
	leaq	16(%rax), %rsi
	leaq	8(%rax), %rdi
	vzeroupper
	call	_ZN5decaf12SecureBuffer5clearEv.isra.9
	leaq	16+_ZTVN5decaf5BlockE(%rip), %rax
	movq	%rbx, %rdi
	movq	%r12, %rdx
	movq	%rax, -2560(%rbp)
.L952:
	addq	$1, %rdx
	je	.L953
.LEHB319:
	call	_Unwind_Resume@PLT
.L1207:
	movq	%rax, %rdi
	vzeroupper
	jmp	.L952
.L953:
	call	__cxa_call_unexpected@PLT
.L1221:
	movq	%rax, %rbx
	movq	%rdx, %r13
	movq	%r12, %rdi
	vzeroupper
	call	_ZN5decaf5Ed4485PointD1Ev
	addq	$1, %r13
	movq	%rbx, %rdi
	je	.L969
	call	_Unwind_Resume@PLT
.L979:
	vzeroupper
	call	__cxa_call_unexpected@PLT
.L969:
	call	__cxa_call_unexpected@PLT
.L1211:
	addq	$1, %rdx
	movq	%rax, %rdi
	je	.L944
	vzeroupper
	call	_Unwind_Resume@PLT
.L1212:
	addq	$1, %rdx
	movq	%rax, %rdi
	je	.L941
	vzeroupper
	call	_Unwind_Resume@PLT
.L944:
	vzeroupper
	call	__cxa_call_unexpected@PLT
.L941:
	vzeroupper
	call	__cxa_call_unexpected@PLT
.L1210:
	movq	%rax, %rbx
	movq	%rdx, %r13
	movq	%r12, %rdi
	vzeroupper
	call	_ZN5decaf5Ed4485PointD1Ev
	addq	$1, %r13
	movq	%rbx, %rdi
	je	.L946
	call	_Unwind_Resume@PLT
.L982:
	vzeroupper
	call	__cxa_call_unexpected@PLT
.L946:
	call	__cxa_call_unexpected@PLT
.L1199:
	movq	%rax, %rbx
	movq	%rdx, %r12
	movq	%r13, %rdi
	vzeroupper
	call	_ZN5decaf12KeccakSpongeD2Ev
	addq	$1, %r12
	movq	%rbx, %rdi
	je	.L923
	call	_Unwind_Resume@PLT
.L1200:
	movq	%rax, %rbx
	movq	%rdx, %r12
	movq	%r14, %rdi
	vzeroupper
	call	_ZN5decaf12KeccakSpongeD2Ev
	addq	$1, %r12
	movq	%rbx, %rdi
	je	.L920
	call	_Unwind_Resume@PLT
.L923:
	call	__cxa_call_unexpected@PLT
.L920:
	call	__cxa_call_unexpected@PLT
.L1198:
	addq	$1, %rdx
	movq	%rax, %rdi
	je	.L926
	vzeroupper
	call	_Unwind_Resume@PLT
.L972:
	call	__cxa_call_unexpected@PLT
.L926:
	vzeroupper
	call	__cxa_call_unexpected@PLT
.LEHE319:
.L1189:
	jmp	.L1429
.L1188:
	jmp	.L1430
.L1498:
	leaq	-2496(%rbp), %r15
	movq	%rax, %rdi
	vzeroupper
.LEHB320:
	call	__cxa_call_unexpected@PLT
.LEHE320:
.L949:
.LEHB321:
	call	__cxa_call_unexpected@PLT
.LEHE321:
	.cfi_endproc
.LFE1998:
	.section	.gcc_except_table._ZL8spake2eeRN5decaf9SpongeRngES1_RKNS_5BlockEb.constprop.94,"a",@progbits
	.align 4
.LLSDA1998:
	.byte	0xff
	.byte	0x9b
	.uleb128 .LLSDATT1998-.LLSDATTD1998
.LLSDATTD1998:
	.byte	0x1
	.uleb128 .LLSDACSE1998-.LLSDACSB1998
.LLSDACSB1998:
	.uleb128 .LEHB189-.LFB1998
	.uleb128 .LEHE189-.LEHB189
	.uleb128 .L1200-.LFB1998
	.uleb128 0x3
	.uleb128 .LEHB190-.LFB1998
	.uleb128 .LEHE190-.LEHB190
	.uleb128 .L1199-.LFB1998
	.uleb128 0x3
	.uleb128 .LEHB191-.LFB1998
	.uleb128 .LEHE191-.LEHB191
	.uleb128 .L1198-.LFB1998
	.uleb128 0x1
	.uleb128 .LEHB192-.LFB1998
	.uleb128 .LEHE192-.LEHB192
	.uleb128 .L1185-.LFB1998
	.uleb128 0
	.uleb128 .LEHB193-.LFB1998
	.uleb128 .LEHE193-.LEHB193
	.uleb128 .L1201-.LFB1998
	.uleb128 0
	.uleb128 .LEHB194-.LFB1998
	.uleb128 .LEHE194-.LEHB194
	.uleb128 .L1186-.LFB1998
	.uleb128 0
	.uleb128 .LEHB195-.LFB1998
	.uleb128 .LEHE195-.LEHB195
	.uleb128 .L1202-.LFB1998
	.uleb128 0
	.uleb128 .LEHB196-.LFB1998
	.uleb128 .LEHE196-.LEHB196
	.uleb128 .L1187-.LFB1998
	.uleb128 0
	.uleb128 .LEHB197-.LFB1998
	.uleb128 .LEHE197-.LEHB197
	.uleb128 .L1203-.LFB1998
	.uleb128 0
	.uleb128 .LEHB198-.LFB1998
	.uleb128 .LEHE198-.LEHB198
	.uleb128 .L1213-.LFB1998
	.uleb128 0x1
	.uleb128 .LEHB199-.LFB1998
	.uleb128 .LEHE199-.LEHB199
	.uleb128 .L1212-.LFB1998
	.uleb128 0x1
	.uleb128 .LEHB200-.LFB1998
	.uleb128 .LEHE200-.LEHB200
	.uleb128 .L1211-.LFB1998
	.uleb128 0x1
	.uleb128 .LEHB201-.LFB1998
	.uleb128 .LEHE201-.LEHB201
	.uleb128 .L1210-.LFB1998
	.uleb128 0x3
	.uleb128 .LEHB202-.LFB1998
	.uleb128 .LEHE202-.LEHB202
	.uleb128 .L1209-.LFB1998
	.uleb128 0x3
	.uleb128 .LEHB203-.LFB1998
	.uleb128 .LEHE203-.LEHB203
	.uleb128 .L1207-.LFB1998
	.uleb128 0x1
	.uleb128 .LEHB204-.LFB1998
	.uleb128 .LEHE204-.LEHB204
	.uleb128 .L1208-.LFB1998
	.uleb128 0x3
	.uleb128 .LEHB205-.LFB1998
	.uleb128 .LEHE205-.LEHB205
	.uleb128 .L1206-.LFB1998
	.uleb128 0x1
	.uleb128 .LEHB206-.LFB1998
	.uleb128 .LEHE206-.LEHB206
	.uleb128 .L1205-.LFB1998
	.uleb128 0x1
	.uleb128 .LEHB207-.LFB1998
	.uleb128 .LEHE207-.LEHB207
	.uleb128 .L1204-.LFB1998
	.uleb128 0x7
	.uleb128 .LEHB208-.LFB1998
	.uleb128 .LEHE208-.LEHB208
	.uleb128 .L1214-.LFB1998
	.uleb128 0x7
	.uleb128 .LEHB209-.LFB1998
	.uleb128 .LEHE209-.LEHB209
	.uleb128 .L1221-.LFB1998
	.uleb128 0x3
	.uleb128 .LEHB210-.LFB1998
	.uleb128 .LEHE210-.LEHB210
	.uleb128 .L1220-.LFB1998
	.uleb128 0x3
	.uleb128 .LEHB211-.LFB1998
	.uleb128 .LEHE211-.LEHB211
	.uleb128 .L1218-.LFB1998
	.uleb128 0x1
	.uleb128 .LEHB212-.LFB1998
	.uleb128 .LEHE212-.LEHB212
	.uleb128 .L1219-.LFB1998
	.uleb128 0x3
	.uleb128 .LEHB213-.LFB1998
	.uleb128 .LEHE213-.LEHB213
	.uleb128 .L1217-.LFB1998
	.uleb128 0x1
	.uleb128 .LEHB214-.LFB1998
	.uleb128 .LEHE214-.LEHB214
	.uleb128 .L1216-.LFB1998
	.uleb128 0x1
	.uleb128 .LEHB215-.LFB1998
	.uleb128 .LEHE215-.LEHB215
	.uleb128 .L1215-.LFB1998
	.uleb128 0x7
	.uleb128 .LEHB216-.LFB1998
	.uleb128 .LEHE216-.LEHB216
	.uleb128 .L1222-.LFB1998
	.uleb128 0x7
	.uleb128 .LEHB217-.LFB1998
	.uleb128 .LEHE217-.LEHB217
	.uleb128 .L1223-.LFB1998
	.uleb128 0x7
	.uleb128 .LEHB218-.LFB1998
	.uleb128 .LEHE218-.LEHB218
	.uleb128 .L1224-.LFB1998
	.uleb128 0x9
	.uleb128 .LEHB219-.LFB1998
	.uleb128 .LEHE219-.LEHB219
	.uleb128 .L1225-.LFB1998
	.uleb128 0x1
	.uleb128 .LEHB220-.LFB1998
	.uleb128 .LEHE220-.LEHB220
	.uleb128 .L1230-.LFB1998
	.uleb128 0x3
	.uleb128 .LEHB221-.LFB1998
	.uleb128 .LEHE221-.LEHB221
	.uleb128 .L1229-.LFB1998
	.uleb128 0x3
	.uleb128 .LEHB222-.LFB1998
	.uleb128 .LEHE222-.LEHB222
	.uleb128 .L1227-.LFB1998
	.uleb128 0x1
	.uleb128 .LEHB223-.LFB1998
	.uleb128 .LEHE223-.LEHB223
	.uleb128 .L1228-.LFB1998
	.uleb128 0x3
	.uleb128 .LEHB224-.LFB1998
	.uleb128 .LEHE224-.LEHB224
	.uleb128 .L1226-.LFB1998
	.uleb128 0x7
	.uleb128 .LEHB225-.LFB1998
	.uleb128 .LEHE225-.LEHB225
	.uleb128 .L1234-.LFB1998
	.uleb128 0x1
	.uleb128 .LEHB226-.LFB1998
	.uleb128 .LEHE226-.LEHB226
	.uleb128 .L1233-.LFB1998
	.uleb128 0x1
	.uleb128 .LEHB227-.LFB1998
	.uleb128 .LEHE227-.LEHB227
	.uleb128 .L1232-.LFB1998
	.uleb128 0x1
	.uleb128 .LEHB228-.LFB1998
	.uleb128 .LEHE228-.LEHB228
	.uleb128 .L1231-.LFB1998
	.uleb128 0x1
	.uleb128 .LEHB229-.LFB1998
	.uleb128 .LEHE229-.LEHB229
	.uleb128 .L1236-.LFB1998
	.uleb128 0x3
	.uleb128 .LEHB230-.LFB1998
	.uleb128 .LEHE230-.LEHB230
	.uleb128 .L1235-.LFB1998
	.uleb128 0x1
	.uleb128 .LEHB231-.LFB1998
	.uleb128 .LEHE231-.LEHB231
	.uleb128 .L1195-.LFB1998
	.uleb128 0
	.uleb128 .LEHB232-.LFB1998
	.uleb128 .LEHE232-.LEHB232
	.uleb128 .L1238-.LFB1998
	.uleb128 0x3
	.uleb128 .LEHB233-.LFB1998
	.uleb128 .LEHE233-.LEHB233
	.uleb128 .L1237-.LFB1998
	.uleb128 0x7
	.uleb128 .LEHB234-.LFB1998
	.uleb128 .LEHE234-.LEHB234
	.uleb128 .L1242-.LFB1998
	.uleb128 0x1
	.uleb128 .LEHB235-.LFB1998
	.uleb128 .LEHE235-.LEHB235
	.uleb128 .L1241-.LFB1998
	.uleb128 0x1
	.uleb128 .LEHB236-.LFB1998
	.uleb128 .LEHE236-.LEHB236
	.uleb128 .L1240-.LFB1998
	.uleb128 0x1
	.uleb128 .LEHB237-.LFB1998
	.uleb128 .LEHE237-.LEHB237
	.uleb128 .L1239-.LFB1998
	.uleb128 0x1
	.uleb128 .LEHB238-.LFB1998
	.uleb128 .LEHE238-.LEHB238
	.uleb128 .L1243-.LFB1998
	.uleb128 0x7
	.uleb128 .LEHB239-.LFB1998
	.uleb128 .LEHE239-.LEHB239
	.uleb128 .L1245-.LFB1998
	.uleb128 0xb
	.uleb128 .LEHB240-.LFB1998
	.uleb128 .LEHE240-.LEHB240
	.uleb128 .L1246-.LFB1998
	.uleb128 0x7
	.uleb128 .LEHB241-.LFB1998
	.uleb128 .LEHE241-.LEHB241
	.uleb128 .L1247-.LFB1998
	.uleb128 0x9
	.uleb128 .LEHB242-.LFB1998
	.uleb128 .LEHE242-.LEHB242
	.uleb128 .L1248-.LFB1998
	.uleb128 0x1
	.uleb128 .LEHB243-.LFB1998
	.uleb128 .LEHE243-.LEHB243
	.uleb128 .L1253-.LFB1998
	.uleb128 0x1
	.uleb128 .LEHB244-.LFB1998
	.uleb128 .LEHE244-.LEHB244
	.uleb128 .L1252-.LFB1998
	.uleb128 0x3
	.uleb128 .LEHB245-.LFB1998
	.uleb128 .LEHE245-.LEHB245
	.uleb128 .L1250-.LFB1998
	.uleb128 0x1
	.uleb128 .LEHB246-.LFB1998
	.uleb128 .LEHE246-.LEHB246
	.uleb128 .L1251-.LFB1998
	.uleb128 0x3
	.uleb128 .LEHB247-.LFB1998
	.uleb128 .LEHE247-.LEHB247
	.uleb128 .L1249-.LFB1998
	.uleb128 0x7
	.uleb128 .LEHB248-.LFB1998
	.uleb128 .LEHE248-.LEHB248
	.uleb128 .L1255-.LFB1998
	.uleb128 0x1
	.uleb128 .LEHB249-.LFB1998
	.uleb128 .LEHE249-.LEHB249
	.uleb128 .L1254-.LFB1998
	.uleb128 0x1
	.uleb128 .LEHB250-.LFB1998
	.uleb128 .LEHE250-.LEHB250
	.uleb128 .L1256-.LFB1998
	.uleb128 0x3
	.uleb128 .LEHB251-.LFB1998
	.uleb128 .LEHE251-.LEHB251
	.uleb128 .L1193-.LFB1998
	.uleb128 0
	.uleb128 .LEHB252-.LFB1998
	.uleb128 .LEHE252-.LEHB252
	.uleb128 .L1258-.LFB1998
	.uleb128 0x1
	.uleb128 .LEHB253-.LFB1998
	.uleb128 .LEHE253-.LEHB253
	.uleb128 .L1257-.LFB1998
	.uleb128 0x1
	.uleb128 .LEHB254-.LFB1998
	.uleb128 .LEHE254-.LEHB254
	.uleb128 .L1259-.LFB1998
	.uleb128 0xd
	.uleb128 .LEHB255-.LFB1998
	.uleb128 .LEHE255-.LEHB255
	.uleb128 .L1260-.LFB1998
	.uleb128 0x7
	.uleb128 .LEHB256-.LFB1998
	.uleb128 .LEHE256-.LEHB256
	.uleb128 .L1262-.LFB1998
	.uleb128 0xb
	.uleb128 .LEHB257-.LFB1998
	.uleb128 .LEHE257-.LEHB257
	.uleb128 .L1264-.LFB1998
	.uleb128 0x1
	.uleb128 .LEHB258-.LFB1998
	.uleb128 .LEHE258-.LEHB258
	.uleb128 .L1263-.LFB1998
	.uleb128 0xf
	.uleb128 .LEHB259-.LFB1998
	.uleb128 .LEHE259-.LEHB259
	.uleb128 .L1266-.LFB1998
	.uleb128 0x1
	.uleb128 .LEHB260-.LFB1998
	.uleb128 .LEHE260-.LEHB260
	.uleb128 .L1265-.LFB1998
	.uleb128 0x7
	.uleb128 .LEHB261-.LFB1998
	.uleb128 .LEHE261-.LEHB261
	.uleb128 .L1191-.LFB1998
	.uleb128 0
	.uleb128 .LEHB262-.LFB1998
	.uleb128 .LEHE262-.LEHB262
	.uleb128 .L1267-.LFB1998
	.uleb128 0x7
	.uleb128 .LEHB263-.LFB1998
	.uleb128 .LEHE263-.LEHB263
	.uleb128 .L1282-.LFB1998
	.uleb128 0x1
	.uleb128 .LEHB264-.LFB1998
	.uleb128 .LEHE264-.LEHB264
	.uleb128 .L1281-.LFB1998
	.uleb128 0x1
	.uleb128 .LEHB265-.LFB1998
	.uleb128 .LEHE265-.LEHB265
	.uleb128 .L1280-.LFB1998
	.uleb128 0x1
	.uleb128 .LEHB266-.LFB1998
	.uleb128 .LEHE266-.LEHB266
	.uleb128 .L1279-.LFB1998
	.uleb128 0x1
	.uleb128 .LEHB267-.LFB1998
	.uleb128 .LEHE267-.LEHB267
	.uleb128 .L1278-.LFB1998
	.uleb128 0x1
	.uleb128 .LEHB268-.LFB1998
	.uleb128 .LEHE268-.LEHB268
	.uleb128 .L1277-.LFB1998
	.uleb128 0x1
	.uleb128 .LEHB269-.LFB1998
	.uleb128 .LEHE269-.LEHB269
	.uleb128 .L1276-.LFB1998
	.uleb128 0x1
	.uleb128 .LEHB270-.LFB1998
	.uleb128 .LEHE270-.LEHB270
	.uleb128 .L1275-.LFB1998
	.uleb128 0x1
	.uleb128 .LEHB271-.LFB1998
	.uleb128 .LEHE271-.LEHB271
	.uleb128 .L1274-.LFB1998
	.uleb128 0x1
	.uleb128 .LEHB272-.LFB1998
	.uleb128 .LEHE272-.LEHB272
	.uleb128 .L1273-.LFB1998
	.uleb128 0x1
	.uleb128 .LEHB273-.LFB1998
	.uleb128 .LEHE273-.LEHB273
	.uleb128 .L1272-.LFB1998
	.uleb128 0x1
	.uleb128 .LEHB274-.LFB1998
	.uleb128 .LEHE274-.LEHB274
	.uleb128 .L1271-.LFB1998
	.uleb128 0x1
	.uleb128 .LEHB275-.LFB1998
	.uleb128 .LEHE275-.LEHB275
	.uleb128 .L1270-.LFB1998
	.uleb128 0x1
	.uleb128 .LEHB276-.LFB1998
	.uleb128 .LEHE276-.LEHB276
	.uleb128 .L1269-.LFB1998
	.uleb128 0x1
	.uleb128 .LEHB277-.LFB1998
	.uleb128 .LEHE277-.LEHB277
	.uleb128 .L1268-.LFB1998
	.uleb128 0x1
	.uleb128 .LEHB278-.LFB1998
	.uleb128 .LEHE278-.LEHB278
	.uleb128 0
	.uleb128 0
	.uleb128 .LEHB279-.LFB1998
	.uleb128 .LEHE279-.LEHB279
	.uleb128 .L1214-.LFB1998
	.uleb128 0x7
	.uleb128 .LEHB280-.LFB1998
	.uleb128 .LEHE280-.LEHB280
	.uleb128 .L1223-.LFB1998
	.uleb128 0x7
	.uleb128 .LEHB281-.LFB1998
	.uleb128 .LEHE281-.LEHB281
	.uleb128 .L1189-.LFB1998
	.uleb128 0
	.uleb128 .LEHB282-.LFB1998
	.uleb128 .LEHE282-.LEHB282
	.uleb128 .L1222-.LFB1998
	.uleb128 0x7
	.uleb128 .LEHB283-.LFB1998
	.uleb128 .LEHE283-.LEHB283
	.uleb128 .L1189-.LFB1998
	.uleb128 0
	.uleb128 .LEHB284-.LFB1998
	.uleb128 .LEHE284-.LEHB284
	.uleb128 .L1204-.LFB1998
	.uleb128 0x7
	.uleb128 .LEHB285-.LFB1998
	.uleb128 .LEHE285-.LEHB285
	.uleb128 .L1188-.LFB1998
	.uleb128 0
	.uleb128 .LEHB286-.LFB1998
	.uleb128 .LEHE286-.LEHB286
	.uleb128 .L1215-.LFB1998
	.uleb128 0x7
	.uleb128 .LEHB287-.LFB1998
	.uleb128 .LEHE287-.LEHB287
	.uleb128 .L1189-.LFB1998
	.uleb128 0
	.uleb128 .LEHB288-.LFB1998
	.uleb128 .LEHE288-.LEHB288
	.uleb128 .L1226-.LFB1998
	.uleb128 0x7
	.uleb128 .LEHB289-.LFB1998
	.uleb128 .LEHE289-.LEHB289
	.uleb128 .L1245-.LFB1998
	.uleb128 0xb
	.uleb128 .LEHB290-.LFB1998
	.uleb128 .LEHE290-.LEHB290
	.uleb128 .L1246-.LFB1998
	.uleb128 0x7
	.uleb128 .LEHB291-.LFB1998
	.uleb128 .LEHE291-.LEHB291
	.uleb128 .L1190-.LFB1998
	.uleb128 0
	.uleb128 .LEHB292-.LFB1998
	.uleb128 .LEHE292-.LEHB292
	.uleb128 .L1267-.LFB1998
	.uleb128 0x7
	.uleb128 .LEHB293-.LFB1998
	.uleb128 .LEHE293-.LEHB293
	.uleb128 .L1249-.LFB1998
	.uleb128 0x7
	.uleb128 .LEHB294-.LFB1998
	.uleb128 .LEHE294-.LEHB294
	.uleb128 .L1265-.LFB1998
	.uleb128 0x7
	.uleb128 .LEHB295-.LFB1998
	.uleb128 .LEHE295-.LEHB295
	.uleb128 .L1191-.LFB1998
	.uleb128 0
	.uleb128 .LEHB296-.LFB1998
	.uleb128 .LEHE296-.LEHB296
	.uleb128 .L1262-.LFB1998
	.uleb128 0xb
	.uleb128 .LEHB297-.LFB1998
	.uleb128 .LEHE297-.LEHB297
	.uleb128 .L1259-.LFB1998
	.uleb128 0xd
	.uleb128 .LEHB298-.LFB1998
	.uleb128 .LEHE298-.LEHB298
	.uleb128 .L1237-.LFB1998
	.uleb128 0x7
	.uleb128 .LEHB299-.LFB1998
	.uleb128 .LEHE299-.LEHB299
	.uleb128 .L1189-.LFB1998
	.uleb128 0
	.uleb128 .LEHB300-.LFB1998
	.uleb128 .LEHE300-.LEHB300
	.uleb128 0
	.uleb128 0
	.uleb128 .LEHB301-.LFB1998
	.uleb128 .LEHE301-.LEHB301
	.uleb128 .L1192-.LFB1998
	.uleb128 0
	.uleb128 .LEHB302-.LFB1998
	.uleb128 .LEHE302-.LEHB302
	.uleb128 0
	.uleb128 0
	.uleb128 .LEHB303-.LFB1998
	.uleb128 .LEHE303-.LEHB303
	.uleb128 .L1244-.LFB1998
	.uleb128 0x7
	.uleb128 .LEHB304-.LFB1998
	.uleb128 .LEHE304-.LEHB304
	.uleb128 .L1191-.LFB1998
	.uleb128 0
	.uleb128 .LEHB305-.LFB1998
	.uleb128 .LEHE305-.LEHB305
	.uleb128 .L1196-.LFB1998
	.uleb128 0
	.uleb128 .LEHB306-.LFB1998
	.uleb128 .LEHE306-.LEHB306
	.uleb128 0
	.uleb128 0
	.uleb128 .LEHB307-.LFB1998
	.uleb128 .LEHE307-.LEHB307
	.uleb128 .L1190-.LFB1998
	.uleb128 0
	.uleb128 .LEHB308-.LFB1998
	.uleb128 .LEHE308-.LEHB308
	.uleb128 0
	.uleb128 0
	.uleb128 .LEHB309-.LFB1998
	.uleb128 .LEHE309-.LEHB309
	.uleb128 .L1194-.LFB1998
	.uleb128 0
	.uleb128 .LEHB310-.LFB1998
	.uleb128 .LEHE310-.LEHB310
	.uleb128 0
	.uleb128 0
	.uleb128 .LEHB311-.LFB1998
	.uleb128 .LEHE311-.LEHB311
	.uleb128 .L1191-.LFB1998
	.uleb128 0
	.uleb128 .LEHB312-.LFB1998
	.uleb128 .LEHE312-.LEHB312
	.uleb128 .L1261-.LFB1998
	.uleb128 0x7
	.uleb128 .LEHB313-.LFB1998
	.uleb128 .LEHE313-.LEHB313
	.uleb128 0
	.uleb128 0
	.uleb128 .LEHB314-.LFB1998
	.uleb128 .LEHE314-.LEHB314
	.uleb128 .L1189-.LFB1998
	.uleb128 0
	.uleb128 .LEHB315-.LFB1998
	.uleb128 .LEHE315-.LEHB315
	.uleb128 0
	.uleb128 0
	.uleb128 .LEHB316-.LFB1998
	.uleb128 .LEHE316-.LEHB316
	.uleb128 .L1197-.LFB1998
	.uleb128 0
	.uleb128 .LEHB317-.LFB1998
	.uleb128 .LEHE317-.LEHB317
	.uleb128 0
	.uleb128 0
	.uleb128 .LEHB318-.LFB1998
	.uleb128 .LEHE318-.LEHB318
	.uleb128 .L1188-.LFB1998
	.uleb128 0
	.uleb128 .LEHB319-.LFB1998
	.uleb128 .LEHE319-.LEHB319
	.uleb128 0
	.uleb128 0
	.uleb128 .LEHB320-.LFB1998
	.uleb128 .LEHE320-.LEHB320
	.uleb128 .L1191-.LFB1998
	.uleb128 0
	.uleb128 .LEHB321-.LFB1998
	.uleb128 .LEHE321-.LEHB321
	.uleb128 0
	.uleb128 0
.LLSDACSE1998:
	.byte	0x7f
	.byte	0
	.byte	0
	.byte	0x7d
	.byte	0
	.byte	0
	.byte	0x7e
	.byte	0x7d
	.byte	0x7c
	.byte	0x7b
	.byte	0x7a
	.byte	0x7b
	.byte	0x77
	.byte	0x77
	.byte	0x74
	.byte	0x75
	.align 4
	.long	DW.ref._ZTISt9bad_alloc-.
	.long	DW.ref._ZTIN5decaf15LengthExceptionE-.
	.long	DW.ref._ZTIN5decaf15CryptoExceptionE-.
	.long	DW.ref._ZTIN5decaf17ProtocolExceptionE-.
.LLSDATT1998:
	.byte	0
	.byte	0x1
	.byte	0
	.byte	0x2
	.byte	0
	.byte	0x1
	.byte	0x3
	.byte	0
	.byte	0x2
	.byte	0x3
	.byte	0
	.byte	0x4
	.byte	0
	.section	.text._ZL8spake2eeRN5decaf9SpongeRngES1_RKNS_5BlockEb.constprop.94
	.size	_ZL8spake2eeRN5decaf9SpongeRngES1_RKNS_5BlockEb.constprop.94, .-_ZL8spake2eeRN5decaf9SpongeRngES1_RKNS_5BlockEb.constprop.94
	.section	.text.unlikely._ZL8spake2eeRN5decaf9SpongeRngES1_RKNS_5BlockEb.constprop.94
.LCOLDE51:
	.section	.text._ZL8spake2eeRN5decaf9SpongeRngES1_RKNS_5BlockEb.constprop.94
.LHOTE51:
	.section	.text.unlikely._ZL3tdhRN5decaf9SpongeRngES1_NS_5Ed4486ScalarERKNS_5BlockES3_S6_.constprop.96,"ax",@progbits
.LCOLDB52:
	.section	.text._ZL3tdhRN5decaf9SpongeRngES1_NS_5Ed4486ScalarERKNS_5BlockES3_S6_.constprop.96,"ax",@progbits
.LHOTB52:
	.p2align 4,,15
	.type	_ZL3tdhRN5decaf9SpongeRngES1_NS_5Ed4486ScalarERKNS_5BlockES3_S6_.constprop.96, @function
_ZL3tdhRN5decaf9SpongeRngES1_NS_5Ed4486ScalarERKNS_5BlockES3_S6_.constprop.96:
.LFB1996:
	.cfi_startproc
	.cfi_personality 0x9b,DW.ref.__gxx_personality_v0
	.cfi_lsda 0x1b,.LLSDA1996
	leaq	8(%rsp), %r10
	.cfi_def_cfa 10, 0
	andq	$-32, %rsp
	pushq	-8(%r10)
	pushq	%rbp
	.cfi_escape 0x10,0x6,0x2,0x76,0
	movq	%rsp, %rbp
	pushq	%r15
	pushq	%r14
	pushq	%r13
	pushq	%r12
	.cfi_escape 0x10,0xf,0x2,0x76,0x78
	.cfi_escape 0x10,0xe,0x2,0x76,0x70
	.cfi_escape 0x10,0xd,0x2,0x76,0x68
	.cfi_escape 0x10,0xc,0x2,0x76,0x60
	movq	%rdi, %r15
	pushq	%r10
	.cfi_escape 0xf,0x3,0x76,0x58,0x6
	pushq	%rbx
	movq	%rsi, %r13
	movq	%r9, %r12
	subq	$2240, %rsp
	.cfi_escape 0x10,0x3,0x2,0x76,0x50
	movq	STROBE_256@GOTPCREL(%rip), %rbx
	movq	%rdx, -2288(%rbp)
	movq	%fs:40, %rax
	movq	%rax, -56(%rbp)
	xorl	%eax, %eax
	leaq	-1776(%rbp), %rax
	movl	$1, %edx
	movq	%rcx, -2216(%rbp)
	movq	%rbx, %rsi
	movq	%r8, -2232(%rbp)
	movq	%rax, %rdi
	movq	%rax, -2200(%rbp)
.LEHB322:
	call	strobe_init@PLT
.LEHE322:
	leaq	-1568(%rbp), %r14
	xorl	%edx, %edx
	movq	%rbx, %rsi
	movq	%r14, %rdi
.LEHB323:
	call	strobe_init@PLT
.LEHE323:
	leaq	-1904(%rbp), %rax
	movq	%r15, %rsi
	leaq	-336(%rbp), %rbx
	movq	%rax, %rdi
	movq	%rax, -2208(%rbp)
	call	_ZN5decaf5Ed4486ScalarC1ERNS_9SpongeRngE
	movq	decaf_448_precomputed_base@GOTPCREL(%rip), %r15
	leaq	-336(%rbp), %rdi
	movl	$32, %ecx
	movq	decaf_448_point_identity@GOTPCREL(%rip), %rsi
	movq	-2208(%rbp), %rdx
	rep movsq
	movq	(%r15), %rsi
	movq	%rbx, %rdi
.LEHB324:
	call	decaf_448_precomputed_scalarmul@PLT
.LEHE324:
	leaq	-2192(%rbp), %rax
	movq	%rbx, %rsi
	movq	%rax, %rdi
	movq	%rax, -2264(%rbp)
	call	_ZNK5decaf5Ed4485PointcvNS_12SecureBufferEEv
	movq	%rbx, %rdi
.LEHB325:
	call	decaf_448_point_destroy@PLT
.LEHE325:
	movq	-2176(%rbp), %rdx
	movq	-2184(%rbp), %rsi
	xorl	%r8d, %r8d
	movq	-2200(%rbp), %rdi
	movl	$1, %ecx
.LEHB326:
	call	strobe_plaintext@PLT
.LEHE326:
	testq	%rax, %rax
	je	.L2138
	movq	-2176(%rbp), %rdx
	movq	-2184(%rbp), %rsi
	xorl	%r8d, %r8d
	xorl	%ecx, %ecx
	movq	%r14, %rdi
.LEHB327:
	call	strobe_plaintext@PLT
.LEHE327:
	testq	%rax, %rax
	je	.L2139
	leaq	-1840(%rbp), %rax
	movq	%r13, %rsi
	movq	%rax, %rdi
	movq	%rax, %r13
	movq	%rax, -2224(%rbp)
	call	_ZN5decaf5Ed4486ScalarC1ERNS_9SpongeRngE
	movq	%rbx, %rdi
	movl	$32, %ecx
	movq	decaf_448_point_identity@GOTPCREL(%rip), %rsi
	rep movsq
	movq	(%r15), %rax
	leaq	-336(%rbp), %rbx
	movq	%r13, %rdx
	movq	%rbx, %rdi
	movq	%rax, %rsi
.LEHB328:
	call	decaf_448_precomputed_scalarmul@PLT
.LEHE328:
	leaq	-2160(%rbp), %rax
	movq	%rbx, %rsi
	movq	%rax, %rdi
	movq	%rax, -2272(%rbp)
	call	_ZNK5decaf5Ed4485PointcvNS_12SecureBufferEEv
	movq	%rbx, %rdi
.LEHB329:
	call	decaf_448_point_destroy@PLT
.LEHE329:
	movq	-2144(%rbp), %rdx
	movq	-2152(%rbp), %rsi
	xorl	%r8d, %r8d
	movl	$1, %ecx
	movq	%r14, %rdi
.LEHB330:
	call	strobe_plaintext@PLT
.LEHE330:
	testq	%rax, %rax
	je	.L2140
	movq	-2144(%rbp), %rdx
	movq	-2152(%rbp), %rsi
	xorl	%r8d, %r8d
	movq	-2200(%rbp), %rdi
	xorl	%ecx, %ecx
.LEHB331:
	call	strobe_plaintext@PLT
.LEHE331:
	testq	%rax, %rax
	je	.L2141
	leaq	-1360(%rbp), %rax
	movq	-2264(%rbp), %rsi
	movq	%rax, %rdi
	movq	%rax, %r15
	movq	%rax, -2240(%rbp)
.LEHB332:
	call	_ZN5decaf5Ed4485PointC2ERKNS_5BlockEm.constprop.101
.LEHE332:
	movq	-2224(%rbp), %rdx
	movq	%r15, %rsi
	movq	%rbx, %rdi
.LEHB333:
	call	decaf_448_point_scalarmul@PLT
.LEHE333:
	leaq	-1936(%rbp), %r15
	movq	%rbx, %rsi
	movq	%r15, %rdi
	call	_ZNK5decaf5Ed4485PointcvNS_12SecureBufferEEv
	xorl	%edx, %edx
	movq	%r15, %rsi
	movq	%r14, %rdi
.LEHB334:
	call	_ZN5decaf6Strobe3keyERKNS_5BlockEb
.LEHE334:
	movq	-1928(%rbp), %rdi
	leaq	16+_ZTVN5decaf12SecureBufferE(%rip), %rax
	movq	%rax, -1936(%rbp)
	testq	%rdi, %rdi
	je	.L1543
	movq	-1920(%rbp), %rsi
.LEHB335:
	call	decaf_bzero@PLT
.LEHE335:
	movq	-1928(%rbp), %rdi
	testq	%rdi, %rdi
	je	.L1543
	call	_ZdaPv@PLT
.L1543:
	movq	%rbx, %rdi
.LEHB336:
	call	decaf_448_point_destroy@PLT
.LEHE336:
	leaq	16+_ZTVN5decaf12SecureBufferE(%rip), %rax
	movl	$8, %edi
	movq	$0, -2120(%rbp)
	movq	$8, -2112(%rbp)
	movq	%rax, -2128(%rbp)
.LEHB337:
	call	_Znam@PLT
.LEHE337:
	movq	-2112(%rbp), %rdx
	movq	%rax, -2120(%rbp)
	movq	$0, (%rax)
	cmpq	$255, %rdx
	ja	.L2142
	movq	%rax, %rsi
	movq	%r14, %rdi
.LEHB338:
	call	strobe_produce_auth@PLT
.LEHE338:
	testq	%rax, %rax
	je	.L2143
	movq	16(%r12), %rax
	movq	$0, -2088(%rbp)
	leaq	8(%rax), %r13
	leaq	16+_ZTVN5decaf12SecureBufferE(%rip), %rax
	movq	%r13, %rdi
	movq	%rax, -2096(%rbp)
	movq	%r13, -2080(%rbp)
.LEHB339:
	call	_Znam@PLT
.LEHE339:
	xorl	%esi, %esi
	movq	%r13, %rdx
	movq	%rax, %rdi
	movq	%rax, -2088(%rbp)
	movq	%rax, -2248(%rbp)
	call	memset@PLT
	movq	-2080(%rbp), %rax
	movq	16(%r12), %rcx
	cmpq	%rcx, %rax
	jnb	.L2144
.L1558:
	movl	$8, %edi
	leaq	16+_ZTVN5decaf15LengthExceptionE(%rip), %rbx
	call	__cxa_allocate_exception@PLT
	leaq	_ZN5decaf15LengthExceptionD1Ev(%rip), %rdx
	leaq	_ZTIN5decaf15LengthExceptionE(%rip), %rsi
	movq	%rbx, (%rax)
	movq	%rax, %rdi
.LEHB340:
	call	__cxa_throw@PLT
.LEHE340:
	.p2align 4,,10
	.p2align 3
.L2144:
	leaq	8(%rcx), %rdx
	movq	-2248(%rbp), %r9
	cmpq	%rdx, %rax
	jne	.L1558
	movq	8(%r12), %rdx
	xorl	%r8d, %r8d
	movq	%r9, %rsi
	movq	%r14, %rdi
.LEHB341:
	call	strobe_encrypt@PLT
.LEHE341:
	testq	%rax, %rax
	je	.L2145
	movq	16(%r12), %rsi
	movq	-2080(%rbp), %rax
	cmpq	%rax, %rsi
	ja	.L1566
	subq	%rsi, %rax
	cmpq	$7, %rax
	ja	.L2146
.L1566:
	movl	$8, %edi
	leaq	16+_ZTVN5decaf15LengthExceptionE(%rip), %rbx
	call	__cxa_allocate_exception@PLT
	leaq	_ZN5decaf15LengthExceptionD1Ev(%rip), %rdx
	leaq	_ZTIN5decaf15LengthExceptionE(%rip), %rsi
	movq	%rbx, (%rax)
	movq	%rax, %rdi
.LEHB342:
	call	__cxa_throw@PLT
.LEHE342:
	.p2align 4,,10
	.p2align 3
.L2146:
	addq	-2088(%rbp), %rsi
	movl	$8, %edx
	movq	%r14, %rdi
.LEHB343:
	call	strobe_produce_auth@PLT
.LEHE343:
	testq	%rax, %rax
	je	.L2147
	movq	-2232(%rbp), %rdx
	movq	-2240(%rbp), %rsi
	movq	%rbx, %rdi
.LEHB344:
	call	decaf_448_point_scalarmul@PLT
.LEHE344:
	movq	%rbx, %rsi
	movq	%r15, %rdi
	call	_ZNK5decaf5Ed4485PointcvNS_12SecureBufferEEv
	xorl	%edx, %edx
	movq	%r15, %rsi
	movq	%r14, %rdi
.LEHB345:
	call	_ZN5decaf6Strobe3keyERKNS_5BlockEb
.LEHE345:
	movq	-1928(%rbp), %rdi
	leaq	16+_ZTVN5decaf12SecureBufferE(%rip), %rax
	movq	%rax, -1936(%rbp)
	testq	%rdi, %rdi
	je	.L1583
	movq	-1920(%rbp), %rsi
.LEHB346:
	call	decaf_bzero@PLT
.LEHE346:
	movq	-1928(%rbp), %rdi
	testq	%rdi, %rdi
	je	.L1583
	call	_ZdaPv@PLT
.L1583:
	movq	%rbx, %rdi
.LEHB347:
	call	decaf_448_point_destroy@PLT
.LEHE347:
	leaq	16+_ZTVN5decaf12SecureBufferE(%rip), %rax
	movl	$8, %edi
	movq	$0, -2056(%rbp)
	movq	$8, -2048(%rbp)
	movq	%rax, -2064(%rbp)
.LEHB348:
	call	_Znam@PLT
.LEHE348:
	movq	-2048(%rbp), %rdx
	movq	%rax, -2056(%rbp)
	movq	$0, (%rax)
	cmpq	$255, %rdx
	ja	.L2148
	movq	%rax, %rsi
	movq	%r14, %rdi
.LEHB349:
	call	strobe_produce_auth@PLT
.LEHE349:
	testq	%rax, %rax
	je	.L2149
	leaq	-1104(%rbp), %rax
	movq	-2272(%rbp), %rsi
	movq	%rax, %rdi
	movq	%rax, %r13
	movq	%rax, -2256(%rbp)
.LEHB350:
	call	_ZN5decaf5Ed4485PointC2ERKNS_5BlockEm.constprop.101
.LEHE350:
	movq	-2208(%rbp), %rdx
	movq	%r13, %rsi
	movq	%rbx, %rdi
.LEHB351:
	call	decaf_448_point_scalarmul@PLT
.LEHE351:
	movq	%rbx, %rsi
	movq	%r15, %rdi
	call	_ZNK5decaf5Ed4485PointcvNS_12SecureBufferEEv
	movq	-2200(%rbp), %rdi
	xorl	%edx, %edx
	movq	%r15, %rsi
.LEHB352:
	call	_ZN5decaf6Strobe3keyERKNS_5BlockEb
.LEHE352:
	movq	-1928(%rbp), %rdi
	leaq	16+_ZTVN5decaf12SecureBufferE(%rip), %rax
	movq	%rax, -1936(%rbp)
	testq	%rdi, %rdi
	je	.L1601
	movq	-1920(%rbp), %rsi
.LEHB353:
	call	decaf_bzero@PLT
.LEHE353:
	movq	-1928(%rbp), %rdi
	testq	%rdi, %rdi
	je	.L1601
	call	_ZdaPv@PLT
.L1601:
	movq	%rbx, %rdi
.LEHB354:
	call	decaf_448_point_destroy@PLT
.LEHE354:
	leaq	-2096(%rbp), %rcx
	leaq	-2128(%rbp), %rax
	movq	-2200(%rbp), %rdi
	movq	%rcx, -2232(%rbp)
	leaq	-2064(%rbp), %rcx
	movq	%rax, %rsi
	movq	%rax, -2248(%rbp)
	movq	%rcx, -2280(%rbp)
.LEHB355:
	call	_ZN5decaf6Strobe11verify_authERKNS_5BlockE
.LEHE355:
	movq	-2080(%rbp), %r12
	cmpq	$7, %r12
	jbe	.L2150
	subq	$8, %r12
	leaq	16+_ZTVN5decaf12SecureBufferE(%rip), %rax
	movq	$0, -1960(%rbp)
	movq	%r12, %rdi
	movq	%r12, -1952(%rbp)
	movq	%rax, -1968(%rbp)
.LEHB356:
	call	_Znam@PLT
.LEHE356:
	xorl	%esi, %esi
	movq	%r12, %rdx
	movq	%rax, %rdi
	movq	%rax, %r13
	movq	%rax, -1960(%rbp)
	call	memset@PLT
	movq	-1952(%rbp), %rcx
	movq	-2080(%rbp), %rax
	cmpq	%rax, %rcx
	ja	.L1609
	subq	$8, %rax
	cmpq	%rax, %rcx
	je	.L2151
.L1609:
	movl	$8, %edi
	leaq	16+_ZTVN5decaf15LengthExceptionE(%rip), %rbx
	call	__cxa_allocate_exception@PLT
	leaq	_ZN5decaf15LengthExceptionD1Ev(%rip), %rdx
	leaq	_ZTIN5decaf15LengthExceptionE(%rip), %rsi
	movq	%rbx, (%rax)
	movq	%rax, %rdi
.LEHB357:
	call	__cxa_throw@PLT
.LEHE357:
	.p2align 4,,10
	.p2align 3
.L2151:
	movq	-2088(%rbp), %rdx
	movq	-2200(%rbp), %rdi
	xorl	%r8d, %r8d
	movq	%r13, %rsi
.LEHB358:
	call	strobe_decrypt@PLT
.LEHE358:
	testq	%rax, %rax
	je	.L2152
	movq	-1952(%rbp), %rax
	movq	-2080(%rbp), %rdx
	cmpq	%rdx, %rax
	ja	.L1615
	subq	%rax, %rdx
	cmpq	$7, %rdx
	ja	.L2153
.L1615:
	movl	$8, %edi
	leaq	16+_ZTVN5decaf15LengthExceptionE(%rip), %rbx
	call	__cxa_allocate_exception@PLT
	leaq	_ZN5decaf15LengthExceptionD1Ev(%rip), %rdx
	leaq	_ZTIN5decaf15LengthExceptionE(%rip), %rsi
	movq	%rbx, (%rax)
	movq	%rax, %rdi
.LEHB359:
	call	__cxa_throw@PLT
.LEHE359:
	.p2align 4,,10
	.p2align 3
.L2153:
	addq	-2088(%rbp), %rax
	movq	-2200(%rbp), %rdi
	leaq	16+_ZTVN5decaf5BlockE(%rip), %rcx
	movq	%r15, %rsi
	movq	$8, -1920(%rbp)
	movq	%rcx, -1936(%rbp)
	movq	%rax, -1928(%rbp)
.LEHB360:
	call	_ZN5decaf6Strobe11verify_authERKNS_5BlockE
.LEHE360:
	leaq	-1968(%rbp), %r13
	leaq	-592(%rbp), %r12
	movq	%r13, %rsi
	movq	%r12, %rdi
.LEHB361:
	call	_ZN5decaf5Ed4485PointC2ERKNS_5BlockEm.constprop.101
.LEHE361:
	movq	-2208(%rbp), %rdx
	movq	%r12, %rsi
	movq	%rbx, %rdi
.LEHB362:
	call	decaf_448_point_scalarmul@PLT
.LEHE362:
	movq	%rbx, %rsi
	movq	%r15, %rdi
	call	_ZNK5decaf5Ed4485PointcvNS_12SecureBufferEEv
	movq	-2200(%rbp), %rdi
	xorl	%edx, %edx
	movq	%r15, %rsi
.LEHB363:
	call	_ZN5decaf6Strobe3keyERKNS_5BlockEb
.LEHE363:
	movq	-1928(%rbp), %rdi
	leaq	16+_ZTVN5decaf12SecureBufferE(%rip), %rax
	movq	%rax, -1936(%rbp)
	testq	%rdi, %rdi
	je	.L1628
	movq	-1920(%rbp), %rsi
.LEHB364:
	call	decaf_bzero@PLT
.LEHE364:
	movq	-1928(%rbp), %rdi
	testq	%rdi, %rdi
	je	.L1628
	call	_ZdaPv@PLT
.L1628:
	movq	%rbx, %rdi
.LEHB365:
	call	decaf_448_point_destroy@PLT
.LEHE365:
	movq	%r12, %rdi
.LEHB366:
	call	decaf_448_point_destroy@PLT
.LEHE366:
	movq	-1960(%rbp), %rdi
	leaq	16+_ZTVN5decaf12SecureBufferE(%rip), %rax
	movq	%rax, -1968(%rbp)
	testq	%rdi, %rdi
	je	.L1635
	movq	-1952(%rbp), %rsi
.LEHB367:
	call	decaf_bzero@PLT
.LEHE367:
	movq	-1960(%rbp), %rdi
	testq	%rdi, %rdi
	je	.L1635
	call	_ZdaPv@PLT
.L1635:
	leaq	-2064(%rbp), %rax
	movq	-2200(%rbp), %rdi
	leaq	-2096(%rbp), %rcx
	movq	%rax, %rsi
	movq	%rax, -2280(%rbp)
	movq	%rcx, -2232(%rbp)
.LEHB368:
	call	_ZN5decaf6Strobe11verify_authERKNS_5BlockE
.LEHE368:
	movq	-2216(%rbp), %rax
	movq	$0, -1928(%rbp)
	movq	16(%rax), %rdx
	leaq	8(%rdx), %r12
	movq	%rdx, -2232(%rbp)
	leaq	16+_ZTVN5decaf12SecureBufferE(%rip), %rdx
	movq	%r12, %rdi
	movq	%rdx, -1936(%rbp)
	movq	%r12, -1920(%rbp)
.LEHB369:
	call	_Znam@PLT
.LEHE369:
	xorl	%esi, %esi
	movq	%r12, %rdx
	movq	%rax, %rdi
	movq	%rax, %r13
	movq	%rax, -1928(%rbp)
	call	memset@PLT
	movq	-2216(%rbp), %rcx
	movq	-1920(%rbp), %rax
	movq	16(%rcx), %rcx
	cmpq	%rcx, %rax
	jb	.L1642
	leaq	8(%rcx), %rdx
	cmpq	%rdx, %rax
	je	.L2154
.L1642:
	movl	$8, %edi
	leaq	16+_ZTVN5decaf15LengthExceptionE(%rip), %rbx
	call	__cxa_allocate_exception@PLT
	leaq	_ZN5decaf15LengthExceptionD1Ev(%rip), %rdx
	leaq	_ZTIN5decaf15LengthExceptionE(%rip), %rsi
	movq	%rbx, (%rax)
	movq	%rax, %rdi
.LEHB370:
	call	__cxa_throw@PLT
.LEHE370:
	.p2align 4,,10
	.p2align 3
.L2154:
	movq	-2216(%rbp), %rax
	movq	-2200(%rbp), %rdi
	xorl	%r8d, %r8d
	movq	%r13, %rsi
	movq	8(%rax), %rdx
.LEHB371:
	call	strobe_encrypt@PLT
.LEHE371:
	testq	%rax, %rax
	je	.L2155
	movq	-2216(%rbp), %rax
	movq	16(%rax), %rsi
	movq	-1920(%rbp), %rax
	cmpq	%rax, %rsi
	ja	.L1650
	subq	%rsi, %rax
	cmpq	$7, %rax
	ja	.L2156
.L1650:
	movl	$8, %edi
	call	__cxa_allocate_exception@PLT
	leaq	16+_ZTVN5decaf15LengthExceptionE(%rip), %rcx
	leaq	_ZN5decaf15LengthExceptionD1Ev(%rip), %rdx
	leaq	_ZTIN5decaf15LengthExceptionE(%rip), %rsi
	movq	%rax, %rdi
	movq	%rcx, (%rax)
.LEHB372:
	call	__cxa_throw@PLT
.LEHE372:
	.p2align 4,,10
	.p2align 3
.L2156:
	addq	-1928(%rbp), %rsi
	movq	-2200(%rbp), %rdi
	movl	$8, %edx
.LEHB373:
	call	strobe_produce_auth@PLT
.LEHE373:
	testq	%rax, %rax
	je	.L2157
	leaq	-2096(%rbp), %rax
	leaq	8(%rax), %rdi
	leaq	16(%rax), %rsi
	movq	%rax, -2232(%rbp)
	call	_ZN5decaf12SecureBuffer5clearEv.isra.9
	movq	-1920(%rbp), %rdi
	movq	%rdi, -2080(%rbp)
.LEHB374:
	call	_Znam@PLT
.LEHE374:
	movq	-1928(%rbp), %r12
	movq	-2080(%rbp), %rdx
	movq	%rax, %rdi
	movq	%rax, -2088(%rbp)
	movq	%r12, %rsi
	call	memcpy@PLT
	movq	-1920(%rbp), %rsi
	leaq	16+_ZTVN5decaf12SecureBufferE(%rip), %rax
	movq	%r12, %rdi
	movq	%rax, -1936(%rbp)
.LEHB375:
	call	decaf_bzero@PLT
.LEHE375:
	movq	-1928(%rbp), %rdi
	testq	%rdi, %rdi
	je	.L1668
	call	_ZdaPv@PLT
.L1668:
	movq	-2288(%rbp), %rdx
	movq	-2256(%rbp), %rsi
	movq	%rbx, %rdi
.LEHB376:
	call	decaf_448_point_scalarmul@PLT
.LEHE376:
	movq	%rbx, %rsi
	movq	%r15, %rdi
	call	_ZNK5decaf5Ed4485PointcvNS_12SecureBufferEEv
	movq	-2200(%rbp), %rdi
	xorl	%edx, %edx
	movq	%r15, %rsi
.LEHB377:
	call	_ZN5decaf6Strobe3keyERKNS_5BlockEb
.LEHE377:
	movq	-1928(%rbp), %rdi
	leaq	16+_ZTVN5decaf12SecureBufferE(%rip), %rax
	movq	%rax, -1936(%rbp)
	testq	%rdi, %rdi
	je	.L1674
	movq	-1920(%rbp), %rsi
.LEHB378:
	call	decaf_bzero@PLT
.LEHE378:
	movq	-1928(%rbp), %rdi
	testq	%rdi, %rdi
	je	.L1674
	call	_ZdaPv@PLT
.L1674:
	movq	%rbx, %rdi
.LEHB379:
	call	decaf_448_point_destroy@PLT
.LEHE379:
	leaq	16+_ZTVN5decaf12SecureBufferE(%rip), %rax
	movl	$8, %edi
	movq	$0, -1992(%rbp)
	movq	$8, -1984(%rbp)
	movq	%rax, -2000(%rbp)
.LEHB380:
	call	_Znam@PLT
.LEHE380:
	movq	-1984(%rbp), %rdx
	movq	%rax, -1992(%rbp)
	movq	$0, (%rax)
	cmpq	$255, %rdx
	ja	.L2158
	movq	-2200(%rbp), %rdi
	movq	%rax, %rsi
.LEHB381:
	call	strobe_produce_auth@PLT
.LEHE381:
	testq	%rax, %rax
	je	.L2159
	movq	-2248(%rbp), %rax
	leaq	8(%rax), %rdi
	leaq	16(%rax), %rsi
	call	_ZN5decaf12SecureBuffer5clearEv.isra.9
	movq	-1984(%rbp), %rdi
	movq	%rdi, -2112(%rbp)
.LEHB382:
	call	_Znam@PLT
.LEHE382:
	movq	-1992(%rbp), %r12
	movq	-2112(%rbp), %rdx
	movq	%rax, %rdi
	movq	%rax, -2120(%rbp)
	movq	%r12, %rsi
	call	memcpy@PLT
	movq	-1984(%rbp), %rsi
	leaq	16+_ZTVN5decaf12SecureBufferE(%rip), %rax
	movq	%r12, %rdi
	movq	%rax, -2000(%rbp)
.LEHB383:
	call	decaf_bzero@PLT
.LEHE383:
	movq	-1992(%rbp), %rdi
	testq	%rdi, %rdi
	je	.L1692
	call	_ZdaPv@PLT
.L1692:
	movq	STROBE_KEYED_128@GOTPCREL(%rip), %rsi
	movq	-2200(%rbp), %rdi
.LEHB384:
	call	strobe_respec@PLT
.LEHE384:
	testq	%rax, %rax
	je	.L2160
	movq	-2080(%rbp), %r12
	cmpq	$7, %r12
	jbe	.L2161
	subq	$8, %r12
	leaq	16+_ZTVN5decaf12SecureBufferE(%rip), %rax
	movq	$0, -2024(%rbp)
	movq	%r12, %rdi
	movq	%r12, -2016(%rbp)
	movq	%rax, -2032(%rbp)
.LEHB385:
	call	_Znam@PLT
.LEHE385:
	xorl	%esi, %esi
	movq	%r12, %rdx
	movq	%rax, %rdi
	movq	%rax, %r13
	movq	%rax, -2024(%rbp)
	call	memset@PLT
	movq	-2016(%rbp), %rcx
	movq	-2080(%rbp), %rax
	cmpq	%rax, %rcx
	ja	.L1700
	subq	$8, %rax
	cmpq	%rax, %rcx
	je	.L2162
.L1700:
	movl	$8, %edi
	leaq	16+_ZTVN5decaf15LengthExceptionE(%rip), %rbx
	call	__cxa_allocate_exception@PLT
	leaq	_ZN5decaf15LengthExceptionD1Ev(%rip), %rdx
	leaq	_ZTIN5decaf15LengthExceptionE(%rip), %rsi
	movq	%rbx, (%rax)
	movq	%rax, %rdi
.LEHB386:
	call	__cxa_throw@PLT
.LEHE386:
	.p2align 4,,10
	.p2align 3
.L2162:
	movq	-2088(%rbp), %rdx
	xorl	%r8d, %r8d
	movq	%r13, %rsi
	movq	%r14, %rdi
.LEHB387:
	call	strobe_decrypt@PLT
.LEHE387:
	testq	%rax, %rax
	je	.L2163
	movq	-2016(%rbp), %rax
	movq	-2080(%rbp), %rdx
	cmpq	%rdx, %rax
	ja	.L1706
	subq	%rax, %rdx
	cmpq	$7, %rdx
	ja	.L2164
.L1706:
	movl	$8, %edi
	leaq	16+_ZTVN5decaf15LengthExceptionE(%rip), %rbx
	call	__cxa_allocate_exception@PLT
	leaq	_ZN5decaf15LengthExceptionD1Ev(%rip), %rdx
	leaq	_ZTIN5decaf15LengthExceptionE(%rip), %rsi
	movq	%rbx, (%rax)
	movq	%rax, %rdi
.LEHB388:
	call	__cxa_throw@PLT
.LEHE388:
	.p2align 4,,10
	.p2align 3
.L2164:
	addq	-2088(%rbp), %rax
	leaq	16+_ZTVN5decaf5BlockE(%rip), %rcx
	movq	%r15, %rsi
	movq	%r14, %rdi
	movq	$8, -1920(%rbp)
	movq	%rcx, -1936(%rbp)
	movq	%rax, -1928(%rbp)
.LEHB389:
	call	_ZN5decaf6Strobe11verify_authERKNS_5BlockE
.LEHE389:
	leaq	-2032(%rbp), %r13
	leaq	-848(%rbp), %r12
	movq	%r13, %rsi
	movq	%r12, %rdi
.LEHB390:
	call	_ZN5decaf5Ed4485PointC2ERKNS_5BlockEm.constprop.101
.LEHE390:
	movq	-2224(%rbp), %rdx
	movq	%r12, %rsi
	movq	%rbx, %rdi
.LEHB391:
	call	decaf_448_point_scalarmul@PLT
.LEHE391:
	movq	%rbx, %rsi
	movq	%r15, %rdi
	call	_ZNK5decaf5Ed4485PointcvNS_12SecureBufferEEv
	xorl	%edx, %edx
	movq	%r15, %rsi
	movq	%r14, %rdi
.LEHB392:
	call	_ZN5decaf6Strobe3keyERKNS_5BlockEb
.LEHE392:
	movq	-1928(%rbp), %rdi
	leaq	16+_ZTVN5decaf12SecureBufferE(%rip), %rax
	movq	%rax, -1936(%rbp)
	testq	%rdi, %rdi
	je	.L1718
	movq	-1920(%rbp), %rsi
.LEHB393:
	call	decaf_bzero@PLT
.LEHE393:
	movq	-1928(%rbp), %rdi
	testq	%rdi, %rdi
	je	.L1718
	call	_ZdaPv@PLT
.L1718:
	movq	%rbx, %rdi
.LEHB394:
	call	decaf_448_point_destroy@PLT
.LEHE394:
	movq	%r12, %rdi
.LEHB395:
	call	decaf_448_point_destroy@PLT
.LEHE395:
	movq	-2024(%rbp), %rdi
	leaq	16+_ZTVN5decaf12SecureBufferE(%rip), %rax
	movq	%rax, -2032(%rbp)
	testq	%rdi, %rdi
	je	.L1725
	movq	-2016(%rbp), %rsi
.LEHB396:
	call	decaf_bzero@PLT
.LEHE396:
	movq	-2024(%rbp), %rdi
	testq	%rdi, %rdi
	je	.L1725
	call	_ZdaPv@PLT
.L1725:
	movq	-2248(%rbp), %rsi
	movq	%r14, %rdi
.LEHB397:
	call	_ZN5decaf6Strobe11verify_authERKNS_5BlockE
.LEHE397:
	movq	STROBE_KEYED_128@GOTPCREL(%rip), %rsi
	movq	%r14, %rdi
.LEHB398:
	call	strobe_respec@PLT
.LEHE398:
	testq	%rax, %rax
	je	.L2165
	movq	-2256(%rbp), %rdi
.LEHB399:
	call	decaf_448_point_destroy@PLT
.LEHE399:
	movq	-2056(%rbp), %rdi
	leaq	16+_ZTVN5decaf12SecureBufferE(%rip), %rax
	movq	%rax, -2064(%rbp)
	testq	%rdi, %rdi
	je	.L1735
	movq	-2048(%rbp), %rsi
.LEHB400:
	call	decaf_bzero@PLT
.LEHE400:
	movq	-2056(%rbp), %rdi
	testq	%rdi, %rdi
	je	.L1735
	call	_ZdaPv@PLT
.L1735:
	movq	-2088(%rbp), %rdi
	leaq	16+_ZTVN5decaf12SecureBufferE(%rip), %rax
	movq	%rax, -2096(%rbp)
	testq	%rdi, %rdi
	je	.L1739
	movq	-2080(%rbp), %rsi
.LEHB401:
	call	decaf_bzero@PLT
.LEHE401:
	movq	-2088(%rbp), %rdi
	testq	%rdi, %rdi
	je	.L1739
	call	_ZdaPv@PLT
.L1739:
	movq	-2120(%rbp), %rdi
	leaq	16+_ZTVN5decaf12SecureBufferE(%rip), %rax
	movq	%rax, -2128(%rbp)
	testq	%rdi, %rdi
	je	.L1743
	movq	-2112(%rbp), %rsi
.LEHB402:
	call	decaf_bzero@PLT
.LEHE402:
	movq	-2120(%rbp), %rdi
	testq	%rdi, %rdi
	je	.L1743
	call	_ZdaPv@PLT
.L1743:
	movq	-2240(%rbp), %rdi
.LEHB403:
	call	decaf_448_point_destroy@PLT
.LEHE403:
	movq	-2152(%rbp), %rdi
	leaq	16+_ZTVN5decaf12SecureBufferE(%rip), %rax
	movq	%rax, -2160(%rbp)
	testq	%rdi, %rdi
	je	.L1750
	movq	-2144(%rbp), %rsi
.LEHB404:
	call	decaf_bzero@PLT
.LEHE404:
	movq	-2152(%rbp), %rdi
	testq	%rdi, %rdi
	je	.L1750
	call	_ZdaPv@PLT
.L1750:
	movq	-2224(%rbp), %rdi
.LEHB405:
	call	decaf_448_scalar_destroy@PLT
.LEHE405:
	movq	-2184(%rbp), %rdi
	leaq	16+_ZTVN5decaf12SecureBufferE(%rip), %rax
	movq	%rax, -2192(%rbp)
	testq	%rdi, %rdi
	je	.L1757
	movq	-2176(%rbp), %rsi
.LEHB406:
	call	decaf_bzero@PLT
.LEHE406:
	movq	-2184(%rbp), %rdi
	testq	%rdi, %rdi
	je	.L1757
	call	_ZdaPv@PLT
.L1757:
	movq	-2208(%rbp), %rdi
.LEHB407:
	call	decaf_448_scalar_destroy@PLT
.LEHE407:
	movq	%r14, %rdi
.LEHB408:
	call	sponge_destroy@PLT
.LEHE408:
	movq	-2200(%rbp), %rdi
.LEHB409:
	call	sponge_destroy@PLT
.LEHE409:
	movq	-56(%rbp), %rax
	xorq	%fs:40, %rax
	jne	.L2166
	addq	$2240, %rsp
	popq	%rbx
	popq	%r10
	.cfi_remember_state
	.cfi_def_cfa 10, 0
	popq	%r12
	popq	%r13
	popq	%r14
	popq	%r15
	popq	%rbp
	leaq	-8(%r10), %rsp
	.cfi_def_cfa 7, 8
	ret
.L1825:
	.cfi_restore_state
.L1565:
	cmpq	$-4, %rdx
	je	.L2167
.L2037:
	movq	%rax, %rbx
	leaq	16+_ZTVN5decaf12SecureBufferE(%rip), %rax
	movq	%rdx, %r12
	movq	%rax, -2096(%rbp)
	leaq	-2096(%rbp), %rax
	leaq	16(%rax), %rsi
	leaq	8(%rax), %rdi
	vzeroupper
	call	_ZN5decaf12SecureBuffer5clearEv.isra.9
	leaq	16+_ZTVN5decaf5BlockE(%rip), %rax
	movq	%r12, %rdx
	movq	%rax, -2096(%rbp)
	movq	%rbx, %rax
.L1578:
	cmpq	$-7, %rdx
	je	.L1579
	movq	%rax, %rbx
	leaq	-2128(%rbp), %rax
	movq	%rax, -2248(%rbp)
.L1580:
	leaq	16+_ZTVN5decaf12SecureBufferE(%rip), %rax
	movq	%rax, -2128(%rbp)
	movq	-2248(%rbp), %rax
	leaq	16(%rax), %rsi
	leaq	8(%rax), %rdi
	call	_ZN5decaf12SecureBuffer5clearEv.isra.9
.L1557:
	movq	-2240(%rbp), %rdi
	call	_ZN5decaf5Ed4485PointD1Ev
.L1536:
	leaq	16+_ZTVN5decaf12SecureBufferE(%rip), %rax
	movq	%rax, -2160(%rbp)
	movq	-2272(%rbp), %rax
	leaq	8(%rax), %rdi
	leaq	16(%rax), %rsi
	call	_ZN5decaf12SecureBuffer5clearEv.isra.9
	movq	-2224(%rbp), %rdi
	call	_ZN5decaf5Ed4486ScalarD1Ev
.L1523:
	leaq	16+_ZTVN5decaf12SecureBufferE(%rip), %rax
	movq	%rax, -2192(%rbp)
	movq	-2264(%rbp), %rax
	leaq	8(%rax), %rdi
	leaq	16(%rax), %rsi
	call	_ZN5decaf12SecureBuffer5clearEv.isra.9
	movq	-2208(%rbp), %rdi
	call	_ZN5decaf5Ed4486ScalarD1Ev
	movq	%r14, %rdi
	call	_ZN5decaf12KeccakSpongeD2Ev
	movq	-2200(%rbp), %rdi
	call	_ZN5decaf12KeccakSpongeD2Ev
	movq	%rbx, %rdi
.L2050:
.LEHB410:
	call	_Unwind_Resume@PLT
.LEHE410:
.L1842:
.L1614:
	cmpq	$-18, %rdx
	je	.L2168
.L2039:
	movq	%rax, %rbx
	leaq	16+_ZTVN5decaf12SecureBufferE(%rip), %rax
	movq	%rdx, %r12
	movq	%rax, -1968(%rbp)
	leaq	-1968(%rbp), %rax
	leaq	16(%rax), %rsi
	leaq	8(%rax), %rdi
	vzeroupper
	call	_ZN5decaf12SecureBuffer5clearEv.isra.9
	leaq	16+_ZTVN5decaf5BlockE(%rip), %rax
	movq	%r12, %rdx
	movq	%rax, -1968(%rbp)
	movq	%rbx, %rax
.L1622:
	cmpq	$-13, %rdx
	je	.L1623
	movq	%rax, %rbx
	leaq	-2096(%rbp), %rax
	movq	%rax, -2232(%rbp)
	leaq	-2064(%rbp), %rax
	movq	%rax, -2280(%rbp)
.L1624:
	movq	-2256(%rbp), %rdi
	call	_ZN5decaf5Ed4485PointD1Ev
.L1780:
	leaq	16+_ZTVN5decaf12SecureBufferE(%rip), %rax
	movq	%rax, -2064(%rbp)
	movq	-2280(%rbp), %rax
	leaq	16(%rax), %rsi
	leaq	8(%rax), %rdi
	call	_ZN5decaf12SecureBuffer5clearEv.isra.9
.L1597:
	leaq	16+_ZTVN5decaf12SecureBufferE(%rip), %rax
	movq	%rax, -2096(%rbp)
	movq	-2232(%rbp), %rax
	leaq	16(%rax), %rsi
	leaq	8(%rax), %rdi
	call	_ZN5decaf12SecureBuffer5clearEv.isra.9
	jmp	.L1580
.L1852:
.L1649:
	cmpq	$-4, %rdx
	je	.L2169
.L2040:
	movq	%rax, %rbx
	leaq	16(%r15), %rsi
	leaq	16+_ZTVN5decaf12SecureBufferE(%rip), %rax
	leaq	8(%r15), %rdi
	movq	%rdx, %r12
	movq	%rax, -1936(%rbp)
	vzeroupper
	call	_ZN5decaf12SecureBuffer5clearEv.isra.9
	leaq	16+_ZTVN5decaf5BlockE(%rip), %rax
	movq	%r12, %rdx
	movq	%rax, -1936(%rbp)
	movq	%rbx, %rax
.L1662:
	cmpq	$-7, %rdx
	je	.L1663
	movq	%rax, %rbx
	leaq	-2096(%rbp), %rax
	movq	%rax, -2232(%rbp)
	jmp	.L1624
.L1871:
.L1705:
	cmpq	$-18, %rdx
	je	.L2170
.L2042:
	movq	%rax, %rbx
	leaq	16+_ZTVN5decaf12SecureBufferE(%rip), %rax
	movq	%rdx, %r12
	movq	%rax, -2032(%rbp)
	leaq	-2032(%rbp), %rax
	leaq	16(%rax), %rsi
	leaq	8(%rax), %rdi
	vzeroupper
	call	_ZN5decaf12SecureBuffer5clearEv.isra.9
	leaq	16+_ZTVN5decaf5BlockE(%rip), %rax
	movq	%r12, %rdx
	movq	%rax, -2032(%rbp)
	movq	%rbx, %rax
.L1713:
	cmpq	$-13, %rdx
	je	.L1714
.L2046:
	movq	%rax, %rbx
	jmp	.L1624
.L1828:
	cmpq	$-11, %rdx
	jne	.L1565
	movq	%rax, %rdi
	vzeroupper
.LEHB411:
	call	__cxa_call_unexpected@PLT
.LEHE411:
.L1844:
	cmpq	$-11, %rdx
	jne	.L1614
	movq	%rax, %rdi
	vzeroupper
.LEHB412:
	call	__cxa_call_unexpected@PLT
.LEHE412:
.L1855:
	cmpq	$-11, %rdx
	jne	.L1649
	movq	%rax, %rdi
	vzeroupper
.LEHB413:
	call	__cxa_call_unexpected@PLT
.LEHE413:
.L1873:
	cmpq	$-11, %rdx
	jne	.L1705
	movq	%rax, %rdi
	vzeroupper
.LEHB414:
	call	__cxa_call_unexpected@PLT
.LEHE414:
.L2138:
	movl	$8, %edi
	call	__cxa_allocate_exception@PLT
	leaq	16+_ZTVN5decaf17ProtocolExceptionE(%rip), %rcx
	leaq	_ZN5decaf17ProtocolExceptionD1Ev(%rip), %rdx
	leaq	_ZTIN5decaf17ProtocolExceptionE(%rip), %rsi
	movq	%rax, %rdi
	movq	%rcx, (%rax)
.LEHB415:
	call	__cxa_throw@PLT
.LEHE415:
.L1807:
	addq	$1, %rdx
	je	.L2171
.L2048:
	movq	%rax, %rbx
	vzeroupper
	jmp	.L1523
.L2163:
	movl	$8, %edi
	call	__cxa_allocate_exception@PLT
	leaq	16+_ZTVN5decaf17ProtocolExceptionE(%rip), %rcx
	leaq	_ZN5decaf17ProtocolExceptionD1Ev(%rip), %rdx
	leaq	_ZTIN5decaf17ProtocolExceptionE(%rip), %rsi
	movq	%rax, %rdi
	movq	%rcx, (%rax)
.LEHB416:
	call	__cxa_throw@PLT
.LEHE416:
.L1872:
	cmpq	$-4, %rdx
	jne	.L1705
	movq	%rax, %rdi
	vzeroupper
.LEHB417:
	call	__cxa_call_unexpected@PLT
.LEHE417:
.L2148:
	movl	$8, %edi
	call	__cxa_allocate_exception@PLT
	leaq	16+_ZTVN5decaf15LengthExceptionE(%rip), %rcx
	leaq	_ZN5decaf15LengthExceptionD1Ev(%rip), %rdx
	leaq	_ZTIN5decaf15LengthExceptionE(%rip), %rsi
	movq	%rax, %rdi
	movq	%rcx, (%rax)
.LEHB418:
	call	__cxa_throw@PLT
.L1836:
	cmpq	$-4, %rdx
	je	.L2172
.L2038:
	movq	%rax, %rbx
	leaq	16+_ZTVN5decaf12SecureBufferE(%rip), %rax
	movq	%rdx, %r12
	movq	%rax, -2064(%rbp)
	leaq	-2064(%rbp), %rax
	leaq	16(%rax), %rsi
	leaq	8(%rax), %rdi
	vzeroupper
	call	_ZN5decaf12SecureBuffer5clearEv.isra.9
	leaq	16+_ZTVN5decaf5BlockE(%rip), %rax
	movq	%r12, %rdx
	movq	%rax, -2064(%rbp)
	movq	%rbx, %rax
.L1595:
	addq	$1, %rdx
	je	.L1596
	movq	%rax, %rbx
	leaq	-2128(%rbp), %rax
	movq	%rax, -2248(%rbp)
	leaq	-2096(%rbp), %rax
	movq	%rax, -2232(%rbp)
	jmp	.L1597
.L2149:
	movl	$8, %edi
	call	__cxa_allocate_exception@PLT
	leaq	16+_ZTVN5decaf17ProtocolExceptionE(%rip), %rcx
	leaq	_ZN5decaf17ProtocolExceptionD1Ev(%rip), %rdx
	leaq	_ZTIN5decaf17ProtocolExceptionE(%rip), %rsi
	movq	%rax, %rdi
	movq	%rcx, (%rax)
	call	__cxa_throw@PLT
.LEHE418:
.L2142:
	movl	$8, %edi
	call	__cxa_allocate_exception@PLT
	leaq	16+_ZTVN5decaf15LengthExceptionE(%rip), %rcx
	leaq	_ZN5decaf15LengthExceptionD1Ev(%rip), %rdx
	leaq	_ZTIN5decaf15LengthExceptionE(%rip), %rsi
	movq	%rax, %rdi
	movq	%rcx, (%rax)
.LEHB419:
	call	__cxa_throw@PLT
.LEHE419:
.L1822:
	cmpq	$-4, %rdx
	je	.L2173
.L2036:
	movq	%rax, %rbx
	leaq	16+_ZTVN5decaf12SecureBufferE(%rip), %rax
	movq	%rdx, %r12
	movq	%rax, -2128(%rbp)
	leaq	-2128(%rbp), %rax
	leaq	16(%rax), %rsi
	leaq	8(%rax), %rdi
	vzeroupper
	call	_ZN5decaf12SecureBuffer5clearEv.isra.9
	leaq	16+_ZTVN5decaf5BlockE(%rip), %rax
	movq	%r12, %rdx
	movq	%rax, -2128(%rbp)
	movq	%rbx, %rax
.L1555:
	addq	$1, %rdx
	je	.L1556
	movq	%rax, %rbx
	jmp	.L1557
.L2141:
	movl	$8, %edi
	call	__cxa_allocate_exception@PLT
	leaq	16+_ZTVN5decaf17ProtocolExceptionE(%rip), %rcx
	leaq	_ZN5decaf17ProtocolExceptionD1Ev(%rip), %rdx
	leaq	_ZTIN5decaf17ProtocolExceptionE(%rip), %rsi
	movq	%rax, %rdi
	movq	%rcx, (%rax)
.LEHB420:
	call	__cxa_throw@PLT
.LEHE420:
.L1816:
	addq	$1, %rdx
	je	.L2174
.L2047:
	movq	%rax, %rbx
	vzeroupper
	jmp	.L1536
.L2140:
	movl	$8, %edi
	call	__cxa_allocate_exception@PLT
	leaq	16+_ZTVN5decaf17ProtocolExceptionE(%rip), %rcx
	leaq	_ZN5decaf17ProtocolExceptionD1Ev(%rip), %rdx
	leaq	_ZTIN5decaf17ProtocolExceptionE(%rip), %rsi
	movq	%rax, %rdi
	movq	%rcx, (%rax)
.LEHB421:
	call	__cxa_throw@PLT
.LEHE421:
.L1813:
	addq	$1, %rdx
	jne	.L2047
	movq	%rax, %rdi
	vzeroupper
.LEHB422:
	call	__cxa_call_unexpected@PLT
.LEHE422:
.L2150:
	movl	$8, %edi
	call	__cxa_allocate_exception@PLT
	leaq	16+_ZTVN5decaf15LengthExceptionE(%rip), %rcx
	leaq	_ZN5decaf15LengthExceptionD1Ev(%rip), %rdx
	leaq	_ZTIN5decaf15LengthExceptionE(%rip), %rsi
	movq	%rax, %rdi
	movq	%rcx, (%rax)
.LEHB423:
	call	__cxa_throw@PLT
.LEHE423:
.L1840:
	vzeroupper
	jmp	.L1622
.L2158:
	movl	$8, %edi
	call	__cxa_allocate_exception@PLT
	leaq	16+_ZTVN5decaf15LengthExceptionE(%rip), %rcx
	leaq	_ZN5decaf15LengthExceptionD1Ev(%rip), %rdx
	leaq	_ZTIN5decaf15LengthExceptionE(%rip), %rsi
	movq	%rax, %rdi
	movq	%rcx, (%rax)
.LEHB424:
	call	__cxa_throw@PLT
.LEHE424:
.L1865:
	cmpq	$-4, %rdx
	je	.L2175
.L2041:
	movq	%rax, %rbx
	leaq	16+_ZTVN5decaf12SecureBufferE(%rip), %rax
	movq	%rdx, %r12
	movq	%rax, -2000(%rbp)
	leaq	-2000(%rbp), %rax
	leaq	16(%rax), %rsi
	leaq	8(%rax), %rdi
	vzeroupper
	call	_ZN5decaf12SecureBuffer5clearEv.isra.9
	leaq	16+_ZTVN5decaf5BlockE(%rip), %rax
	movq	%r12, %rdx
	movq	%rax, -2000(%rbp)
	movq	%rbx, %rax
.L1686:
	addq	$1, %rdx
	jne	.L2046
	movq	%rax, %rdi
.LEHB425:
	call	__cxa_call_unexpected@PLT
.LEHE425:
.L2155:
	movl	$8, %edi
	call	__cxa_allocate_exception@PLT
	leaq	16+_ZTVN5decaf17ProtocolExceptionE(%rip), %rcx
	leaq	_ZN5decaf17ProtocolExceptionD1Ev(%rip), %rdx
	leaq	_ZTIN5decaf17ProtocolExceptionE(%rip), %rsi
	movq	%rax, %rdi
	movq	%rcx, (%rax)
.LEHB426:
	call	__cxa_throw@PLT
.LEHE426:
.L1854:
	cmpq	$-4, %rdx
	je	.L2176
.L1647:
	cmpq	$-4, %rdx
	jne	.L1649
	movq	%rax, %rdi
	vzeroupper
.LEHB427:
	call	__cxa_call_unexpected@PLT
.LEHE427:
.L2166:
	call	__stack_chk_fail@PLT
.L2147:
	movl	$8, %edi
	call	__cxa_allocate_exception@PLT
	leaq	16+_ZTVN5decaf17ProtocolExceptionE(%rip), %rcx
	leaq	_ZN5decaf17ProtocolExceptionD1Ev(%rip), %rdx
	leaq	_ZTIN5decaf17ProtocolExceptionE(%rip), %rsi
	movq	%rax, %rdi
	movq	%rcx, (%rax)
.LEHB428:
	call	__cxa_throw@PLT
.LEHE428:
.L1830:
	cmpq	$-4, %rdx
	je	.L2177
.L1573:
	cmpq	$-4, %rdx
	jne	.L1565
	movq	%rax, %rdi
	vzeroupper
.LEHB429:
	call	__cxa_call_unexpected@PLT
.LEHE429:
.L2145:
	movl	$8, %edi
	call	__cxa_allocate_exception@PLT
	leaq	16+_ZTVN5decaf17ProtocolExceptionE(%rip), %rcx
	leaq	_ZN5decaf17ProtocolExceptionD1Ev(%rip), %rdx
	leaq	_ZTIN5decaf17ProtocolExceptionE(%rip), %rsi
	movq	%rax, %rdi
	movq	%rcx, (%rax)
.LEHB430:
	call	__cxa_throw@PLT
.LEHE430:
.L1827:
	cmpq	$-4, %rdx
	je	.L2178
.L1563:
	cmpq	$-4, %rdx
	jne	.L1565
	movq	%rax, %rdi
	vzeroupper
.LEHB431:
	call	__cxa_call_unexpected@PLT
.LEHE431:
.L2159:
	movl	$8, %edi
	call	__cxa_allocate_exception@PLT
	leaq	16+_ZTVN5decaf17ProtocolExceptionE(%rip), %rcx
	leaq	_ZN5decaf17ProtocolExceptionD1Ev(%rip), %rdx
	leaq	_ZTIN5decaf17ProtocolExceptionE(%rip), %rsi
	movq	%rax, %rdi
	movq	%rcx, (%rax)
.LEHB432:
	call	__cxa_throw@PLT
.LEHE432:
.L2139:
	movl	$8, %edi
	call	__cxa_allocate_exception@PLT
	leaq	16+_ZTVN5decaf17ProtocolExceptionE(%rip), %rcx
	leaq	_ZN5decaf17ProtocolExceptionD1Ev(%rip), %rdx
	leaq	_ZTIN5decaf17ProtocolExceptionE(%rip), %rsi
	movq	%rax, %rdi
	movq	%rcx, (%rax)
.LEHB433:
	call	__cxa_throw@PLT
.LEHE433:
.L1812:
	addq	$1, %rdx
	jne	.L2048
	movq	%rax, %rdi
	vzeroupper
.LEHB434:
	call	__cxa_call_unexpected@PLT
.LEHE434:
.L2165:
	movl	$8, %edi
	call	__cxa_allocate_exception@PLT
	leaq	16+_ZTVN5decaf17ProtocolExceptionE(%rip), %rcx
	leaq	_ZN5decaf17ProtocolExceptionD1Ev(%rip), %rdx
	leaq	_ZTIN5decaf17ProtocolExceptionE(%rip), %rsi
	movq	%rax, %rdi
	movq	%rcx, (%rax)
.LEHB435:
	call	__cxa_throw@PLT
.LEHE435:
.L1879:
	addq	$1, %rdx
	je	.L2179
.L2045:
	movq	%rax, %rbx
	vzeroupper
	jmp	.L1624
.L2157:
	movl	$8, %edi
	call	__cxa_allocate_exception@PLT
	leaq	16+_ZTVN5decaf17ProtocolExceptionE(%rip), %rcx
	leaq	_ZN5decaf17ProtocolExceptionD1Ev(%rip), %rdx
	leaq	_ZTIN5decaf17ProtocolExceptionE(%rip), %rsi
	movq	%rax, %rdi
	movq	%rcx, (%rax)
.LEHB436:
	call	__cxa_throw@PLT
.LEHE436:
.L1857:
	cmpq	$-4, %rdx
	je	.L2180
.L1657:
	cmpq	$-4, %rdx
	jne	.L1649
	movq	%rax, %rdi
	vzeroupper
.LEHB437:
	call	__cxa_call_unexpected@PLT
.LEHE437:
.L2143:
	movl	$8, %edi
	call	__cxa_allocate_exception@PLT
	leaq	16+_ZTVN5decaf17ProtocolExceptionE(%rip), %rcx
	leaq	_ZN5decaf17ProtocolExceptionD1Ev(%rip), %rdx
	leaq	_ZTIN5decaf17ProtocolExceptionE(%rip), %rsi
	movq	%rax, %rdi
	movq	%rcx, (%rax)
.LEHB438:
	call	__cxa_throw@PLT
.LEHE438:
.L2161:
	movl	$8, %edi
	call	__cxa_allocate_exception@PLT
	leaq	16+_ZTVN5decaf15LengthExceptionE(%rip), %rcx
	leaq	_ZN5decaf15LengthExceptionD1Ev(%rip), %rdx
	leaq	_ZTIN5decaf15LengthExceptionE(%rip), %rsi
	movq	%rax, %rdi
	movq	%rcx, (%rax)
.LEHB439:
	call	__cxa_throw@PLT
.LEHE439:
.L1869:
	vzeroupper
	jmp	.L1713
.L2152:
	movl	$8, %edi
	call	__cxa_allocate_exception@PLT
	leaq	16+_ZTVN5decaf17ProtocolExceptionE(%rip), %rcx
	leaq	_ZN5decaf17ProtocolExceptionD1Ev(%rip), %rdx
	leaq	_ZTIN5decaf17ProtocolExceptionE(%rip), %rsi
	movq	%rax, %rdi
	movq	%rcx, (%rax)
.LEHB440:
	call	__cxa_throw@PLT
.LEHE440:
.L1843:
	cmpq	$-4, %rdx
	jne	.L1614
	movq	%rax, %rdi
	vzeroupper
.LEHB441:
	call	__cxa_call_unexpected@PLT
.LEHE441:
.L2160:
	movl	$8, %edi
	call	__cxa_allocate_exception@PLT
	leaq	16+_ZTVN5decaf17ProtocolExceptionE(%rip), %rcx
	leaq	_ZN5decaf17ProtocolExceptionD1Ev(%rip), %rdx
	leaq	_ZTIN5decaf17ProtocolExceptionE(%rip), %rsi
	movq	%rax, %rdi
	movq	%rcx, (%rax)
.LEHB442:
	call	__cxa_throw@PLT
.LEHE442:
.L1867:
	addq	$1, %rdx
	jne	.L2045
	movq	%rax, %rdi
	vzeroupper
.LEHB443:
	call	__cxa_call_unexpected@PLT
.LEHE443:
.L2178:
	movq	%rax, %rdi
	vzeroupper
.LEHB444:
	call	__cxa_call_unexpected@PLT
.LEHE444:
.L1868:
.L2054:
	cmpq	$-3, %rdx
	movq	%rax, %rdi
	je	.L1771
	vzeroupper
.LEHB445:
	call	_Unwind_Resume@PLT
.L1866:
	cmpq	$-22, %rdx
	je	.L2181
.L2044:
	movq	%rax, %rbx
	leaq	16+_ZTVN5decaf12SecureBufferE(%rip), %rax
	movq	%rax, -2000(%rbp)
	leaq	-2000(%rbp), %rax
	leaq	16(%rax), %rsi
	leaq	8(%rax), %rdi
	vzeroupper
	call	_ZN5decaf12SecureBuffer5clearEv.isra.9
	jmp	.L1624
.L1826:
	jmp	.L1563
.L1771:
	vzeroupper
.L2051:
	call	__cxa_call_unexpected@PLT
.LEHE445:
.L2181:
	movq	%rax, %rdi
	vzeroupper
.LEHB446:
	call	__cxa_call_unexpected@PLT
.LEHE446:
.L1795:
	movq	%rax, %rbx
	leaq	-2128(%rbp), %rax
	movq	%rax, -2248(%rbp)
	leaq	-2096(%rbp), %rax
	movq	%rax, -2232(%rbp)
	leaq	-2064(%rbp), %rax
	movq	%rax, -2280(%rbp)
	vzeroupper
	jmp	.L1780
.L1556:
	movq	%rax, %rdi
.LEHB447:
	call	__cxa_call_unexpected@PLT
.LEHE447:
.L2173:
	movq	%rax, %rdi
	vzeroupper
.LEHB448:
	call	__cxa_call_unexpected@PLT
.LEHE448:
.L1792:
	movq	%rax, %rbx
	vzeroupper
	jmp	.L1557
.L1819:
	jmp	.L2036
.L2175:
	movq	%rax, %rdi
	vzeroupper
.LEHB449:
	call	__cxa_call_unexpected@PLT
.LEHE449:
.L2179:
	movq	%rax, %rdi
	vzeroupper
.LEHB450:
	call	__cxa_call_unexpected@PLT
.LEHE450:
.L1862:
	jmp	.L2041
.L2174:
	movq	%rax, %rdi
	vzeroupper
.LEHB451:
	call	__cxa_call_unexpected@PLT
.LEHE451:
.L1802:
	movq	%rax, %rbx
	vzeroupper
.L1776:
	leaq	16+_ZTVN5decaf12SecureBufferE(%rip), %rax
	leaq	16(%r13), %rsi
	leaq	8(%r13), %rdi
	movq	%rax, -1968(%rbp)
	call	_ZN5decaf12SecureBuffer5clearEv.isra.9
	leaq	-2096(%rbp), %rax
	movq	%rax, -2232(%rbp)
	leaq	-2064(%rbp), %rax
	movq	%rax, -2280(%rbp)
	jmp	.L1624
.L2177:
	movq	%rax, %rdi
	vzeroupper
.LEHB452:
	call	__cxa_call_unexpected@PLT
.LEHE452:
.L1799:
	jmp	.L2044
.L1829:
	jmp	.L1573
.L1818:
	vzeroupper
	jmp	.L1555
.L1820:
	jmp	.L2054
.L1821:
	jmp	.L2054
.L1806:
	movq	%rax, %r12
	leaq	16(%r15), %rsi
	leaq	16+_ZTVN5decaf12SecureBufferE(%rip), %rax
	leaq	8(%r15), %rdi
	movq	%rax, -1936(%rbp)
	vzeroupper
	call	_ZN5decaf12SecureBuffer5clearEv.isra.9
	movq	%rbx, %rdi
	movq	%r12, %rbx
	call	_ZN5decaf5Ed4485PointD1Ev
	jmp	.L1557
.L1808:
	jmp	.L2054
.L1809:
.L2084:
	movq	%rax, %r12
	movq	%rdx, %r13
	movq	%rbx, %rdi
	vzeroupper
	call	_ZN5decaf5Ed4485PointD1Ev
	cmpq	$-3, %r13
	movq	%r12, %rdi
	jne	.L2050
	jmp	.L2051
.L1810:
	movq	%rax, %rbx
	movq	%rdx, %r12
	movq	%r14, %rdi
.L2085:
	vzeroupper
	call	_ZN5decaf12KeccakSpongeD2Ev
	cmpq	$-3, %r12
	movq	%rbx, %rdi
	jne	.L2050
	jmp	.L2051
.L1811:
	movq	%rax, %rbx
	movq	%rdx, %r12
	movq	-2200(%rbp), %rdi
	jmp	.L2085
.L1860:
	jmp	.L2054
.L1859:
	jmp	.L2084
.L1863:
	jmp	.L2054
.L1861:
	vzeroupper
	jmp	.L1686
.L1800:
	movq	%rax, %r12
	leaq	16(%r15), %rsi
	leaq	16+_ZTVN5decaf12SecureBufferE(%rip), %rax
	leaq	8(%r15), %rdi
	movq	%rax, -1936(%rbp)
	vzeroupper
	call	_ZN5decaf12SecureBuffer5clearEv.isra.9
	movq	%rbx, %rdi
	movq	%r12, %rbx
	call	_ZN5decaf5Ed4485PointD1Ev
	jmp	.L1624
.L1864:
	jmp	.L2054
.L1874:
	jmp	.L2084
.L1798:
	movq	%rax, -2216(%rbp)
	leaq	16(%r15), %rsi
	leaq	16+_ZTVN5decaf12SecureBufferE(%rip), %rax
	leaq	8(%r15), %rdi
	movq	%rax, -1936(%rbp)
	vzeroupper
	call	_ZN5decaf12SecureBuffer5clearEv.isra.9
	movq	%rbx, %rdi
	call	_ZN5decaf5Ed4485PointD1Ev
	movq	%r12, %rdi
	call	_ZN5decaf5Ed4485PointD1Ev
	movq	-2216(%rbp), %rax
	movq	%rax, %rbx
.L1779:
	leaq	16+_ZTVN5decaf12SecureBufferE(%rip), %rax
	leaq	16(%r13), %rsi
	leaq	8(%r13), %rdi
	movq	%rax, -2032(%rbp)
	call	_ZN5decaf12SecureBuffer5clearEv.isra.9
	jmp	.L1624
.L1845:
	jmp	.L2084
.L1803:
	movq	%rax, -2216(%rbp)
	leaq	16(%r15), %rsi
	leaq	16+_ZTVN5decaf12SecureBufferE(%rip), %rax
	leaq	8(%r15), %rdi
	movq	%rax, -1936(%rbp)
	vzeroupper
	call	_ZN5decaf12SecureBuffer5clearEv.isra.9
	movq	%rbx, %rdi
	call	_ZN5decaf5Ed4485PointD1Ev
	movq	%r12, %rdi
	call	_ZN5decaf5Ed4485PointD1Ev
	movq	-2216(%rbp), %rax
	movq	%rax, %rbx
	jmp	.L1776
.L1878:
	jmp	.L2054
.L1877:
	jmp	.L2054
.L1823:
	vzeroupper
	jmp	.L1578
.L2171:
	movq	%rax, %rdi
	vzeroupper
.LEHB453:
	call	__cxa_call_unexpected@PLT
.LEHE453:
.L1790:
	jmp	.L2048
.L2176:
	movq	%rax, %rdi
	vzeroupper
.LEHB454:
	call	__cxa_call_unexpected@PLT
.LEHE454:
.L2180:
	movq	%rax, %rdi
	vzeroupper
.LEHB455:
	call	__cxa_call_unexpected@PLT
.LEHE455:
.L1853:
	jmp	.L1647
.L1856:
	jmp	.L1657
.L1814:
	jmp	.L2054
.L1815:
	jmp	.L2084
.L1817:
	jmp	.L2084
.L1791:
	jmp	.L2047
.L1714:
	movq	%rax, %rdi
.LEHB456:
	call	__cxa_call_unexpected@PLT
.LEHE456:
.L2170:
	movq	%rax, %rdi
	vzeroupper
.LEHB457:
	call	__cxa_call_unexpected@PLT
.LEHE457:
.L1623:
	leaq	-2096(%rbp), %rcx
	movq	%rax, %rdi
	movq	%rcx, -2232(%rbp)
	leaq	-2064(%rbp), %rcx
	movq	%rcx, -2280(%rbp)
.LEHB458:
	call	__cxa_call_unexpected@PLT
.LEHE458:
.L2168:
	movq	%rax, %rdi
	vzeroupper
.LEHB459:
	call	__cxa_call_unexpected@PLT
.LEHE459:
.L1870:
	jmp	.L2042
.L1841:
	jmp	.L2039
.L1579:
	movq	%rax, %rdi
.LEHB460:
	call	__cxa_call_unexpected@PLT
.LEHE460:
.L2167:
	movq	%rax, %rdi
	vzeroupper
.LEHB461:
	call	__cxa_call_unexpected@PLT
.LEHE461:
.L1793:
	movq	%rax, %rbx
	leaq	-2128(%rbp), %rax
	movq	%rax, -2248(%rbp)
	vzeroupper
	jmp	.L1580
.L1824:
	jmp	.L2037
.L1663:
	leaq	-2096(%rbp), %rcx
	movq	%rax, %rdi
	movq	%rcx, -2232(%rbp)
.LEHB462:
	call	__cxa_call_unexpected@PLT
.LEHE462:
.L2169:
	movq	%rax, %rdi
	vzeroupper
.LEHB463:
	call	__cxa_call_unexpected@PLT
.LEHE463:
.L1858:
	cmpq	$-22, %rdx
	je	.L2182
.L2043:
	movq	%rax, %rbx
	leaq	16(%r15), %rsi
	leaq	16+_ZTVN5decaf12SecureBufferE(%rip), %rax
	leaq	8(%r15), %rdi
	movq	%rax, -1936(%rbp)
	vzeroupper
	call	_ZN5decaf12SecureBuffer5clearEv.isra.9
	jmp	.L1624
.L1805:
	movq	%rax, %r12
	leaq	16(%r15), %rsi
	leaq	16+_ZTVN5decaf12SecureBufferE(%rip), %rax
	leaq	8(%r15), %rdi
	movq	%rax, -1936(%rbp)
	vzeroupper
	call	_ZN5decaf12SecureBuffer5clearEv.isra.9
	movq	%rbx, %rdi
	movq	%r12, %rbx
	call	_ZN5decaf5Ed4485PointD1Ev
	leaq	-2128(%rbp), %rax
	movq	%rax, -2248(%rbp)
	leaq	-2096(%rbp), %rax
	movq	%rax, -2232(%rbp)
	jmp	.L1597
.L1831:
	jmp	.L2084
.L1835:
	jmp	.L2054
.L2182:
	movq	%rax, %rdi
	vzeroupper
.LEHB464:
	call	__cxa_call_unexpected@PLT
.LEHE464:
.L1596:
	movq	%rax, %rdi
.LEHB465:
	call	__cxa_call_unexpected@PLT
.LEHE465:
.L1850:
	vzeroupper
	jmp	.L1662
.L2172:
	movq	%rax, %rdi
	vzeroupper
.LEHB466:
	call	__cxa_call_unexpected@PLT
.LEHE466:
.L1801:
	jmp	.L2043
.L1833:
	jmp	.L2038
.L1851:
	jmp	.L2040
.L1794:
	movq	%rax, %rbx
	leaq	-2128(%rbp), %rax
	movq	%rax, -2248(%rbp)
	leaq	-2096(%rbp), %rax
	movq	%rax, -2232(%rbp)
	vzeroupper
	jmp	.L1597
.L1849:
	jmp	.L2054
.L1848:
	jmp	.L2054
.L1847:
	jmp	.L2054
.L1846:
	jmp	.L2054
.L1839:
	jmp	.L2054
.L1796:
	jmp	.L2045
.L1838:
	jmp	.L2054
.L1886:
	jmp	.L2054
.L1885:
	jmp	.L2054
.L1884:
	jmp	.L2054
.L1883:
	jmp	.L2054
.L1882:
	jmp	.L2054
.L1881:
	jmp	.L2054
.L1880:
	jmp	.L2054
.L1797:
	movq	%rax, %rbx
	vzeroupper
	jmp	.L1779
.L1890:
	jmp	.L2054
.L1889:
	jmp	.L2054
.L1837:
	jmp	.L2084
.L1804:
	movq	%rax, %r12
	leaq	16(%r15), %rsi
	leaq	16+_ZTVN5decaf12SecureBufferE(%rip), %rax
	leaq	8(%r15), %rdi
	movq	%rax, -1936(%rbp)
	vzeroupper
	call	_ZN5decaf12SecureBuffer5clearEv.isra.9
	movq	%rbx, %rdi
	movq	%r12, %rbx
	call	_ZN5decaf5Ed4485PointD1Ev
	leaq	-2128(%rbp), %rax
	movq	%rax, -2248(%rbp)
	leaq	-2096(%rbp), %rax
	movq	%rax, -2232(%rbp)
	leaq	-2064(%rbp), %rax
	movq	%rax, -2280(%rbp)
	jmp	.L1624
.L1834:
	jmp	.L2054
.L1832:
	vzeroupper
	jmp	.L1595
.L1876:
	jmp	.L2054
.L1875:
	jmp	.L2054
.L1888:
	jmp	.L2054
.L1887:
	jmp	.L2054
	.cfi_endproc
.LFE1996:
	.section	.gcc_except_table._ZL3tdhRN5decaf9SpongeRngES1_NS_5Ed4486ScalarERKNS_5BlockES3_S6_.constprop.96,"a",@progbits
	.align 4
.LLSDA1996:
	.byte	0xff
	.byte	0x9b
	.uleb128 .LLSDATT1996-.LLSDATTD1996
.LLSDATTD1996:
	.byte	0x1
	.uleb128 .LLSDACSE1996-.LLSDACSB1996
.LLSDACSB1996:
	.uleb128 .LEHB322-.LFB1996
	.uleb128 .LEHE322-.LEHB322
	.uleb128 .L1811-.LFB1996
	.uleb128 0x3
	.uleb128 .LEHB323-.LFB1996
	.uleb128 .LEHE323-.LEHB323
	.uleb128 .L1810-.LFB1996
	.uleb128 0x3
	.uleb128 .LEHB324-.LFB1996
	.uleb128 .LEHE324-.LEHB324
	.uleb128 .L1809-.LFB1996
	.uleb128 0x3
	.uleb128 .LEHB325-.LFB1996
	.uleb128 .LEHE325-.LEHB325
	.uleb128 .L1808-.LFB1996
	.uleb128 0x1
	.uleb128 .LEHB326-.LFB1996
	.uleb128 .LEHE326-.LEHB326
	.uleb128 .L1807-.LFB1996
	.uleb128 0x7
	.uleb128 .LEHB327-.LFB1996
	.uleb128 .LEHE327-.LEHB327
	.uleb128 .L1812-.LFB1996
	.uleb128 0x7
	.uleb128 .LEHB328-.LFB1996
	.uleb128 .LEHE328-.LEHB328
	.uleb128 .L1815-.LFB1996
	.uleb128 0x3
	.uleb128 .LEHB329-.LFB1996
	.uleb128 .LEHE329-.LEHB329
	.uleb128 .L1814-.LFB1996
	.uleb128 0x1
	.uleb128 .LEHB330-.LFB1996
	.uleb128 .LEHE330-.LEHB330
	.uleb128 .L1813-.LFB1996
	.uleb128 0x7
	.uleb128 .LEHB331-.LFB1996
	.uleb128 .LEHE331-.LEHB331
	.uleb128 .L1816-.LFB1996
	.uleb128 0x7
	.uleb128 .LEHB332-.LFB1996
	.uleb128 .LEHE332-.LEHB332
	.uleb128 .L1791-.LFB1996
	.uleb128 0
	.uleb128 .LEHB333-.LFB1996
	.uleb128 .LEHE333-.LEHB333
	.uleb128 .L1817-.LFB1996
	.uleb128 0x3
	.uleb128 .LEHB334-.LFB1996
	.uleb128 .LEHE334-.LEHB334
	.uleb128 .L1806-.LFB1996
	.uleb128 0
	.uleb128 .LEHB335-.LFB1996
	.uleb128 .LEHE335-.LEHB335
	.uleb128 .L1821-.LFB1996
	.uleb128 0x1
	.uleb128 .LEHB336-.LFB1996
	.uleb128 .LEHE336-.LEHB336
	.uleb128 .L1820-.LFB1996
	.uleb128 0x1
	.uleb128 .LEHB337-.LFB1996
	.uleb128 .LEHE337-.LEHB337
	.uleb128 .L1818-.LFB1996
	.uleb128 0x7
	.uleb128 .LEHB338-.LFB1996
	.uleb128 .LEHE338-.LEHB338
	.uleb128 .L1822-.LFB1996
	.uleb128 0x9
	.uleb128 .LEHB339-.LFB1996
	.uleb128 .LEHE339-.LEHB339
	.uleb128 .L1823-.LFB1996
	.uleb128 0xb
	.uleb128 .LEHB340-.LFB1996
	.uleb128 .LEHE340-.LEHB340
	.uleb128 .L1825-.LFB1996
	.uleb128 0xd
	.uleb128 .LEHB341-.LFB1996
	.uleb128 .LEHE341-.LEHB341
	.uleb128 .L1827-.LFB1996
	.uleb128 0x11
	.uleb128 .LEHB342-.LFB1996
	.uleb128 .LEHE342-.LEHB342
	.uleb128 .L1828-.LFB1996
	.uleb128 0x13
	.uleb128 .LEHB343-.LFB1996
	.uleb128 .LEHE343-.LEHB343
	.uleb128 .L1830-.LFB1996
	.uleb128 0x11
	.uleb128 .LEHB344-.LFB1996
	.uleb128 .LEHE344-.LEHB344
	.uleb128 .L1831-.LFB1996
	.uleb128 0x3
	.uleb128 .LEHB345-.LFB1996
	.uleb128 .LEHE345-.LEHB345
	.uleb128 .L1805-.LFB1996
	.uleb128 0
	.uleb128 .LEHB346-.LFB1996
	.uleb128 .LEHE346-.LEHB346
	.uleb128 .L1835-.LFB1996
	.uleb128 0x1
	.uleb128 .LEHB347-.LFB1996
	.uleb128 .LEHE347-.LEHB347
	.uleb128 .L1834-.LFB1996
	.uleb128 0x1
	.uleb128 .LEHB348-.LFB1996
	.uleb128 .LEHE348-.LEHB348
	.uleb128 .L1832-.LFB1996
	.uleb128 0x7
	.uleb128 .LEHB349-.LFB1996
	.uleb128 .LEHE349-.LEHB349
	.uleb128 .L1836-.LFB1996
	.uleb128 0x9
	.uleb128 .LEHB350-.LFB1996
	.uleb128 .LEHE350-.LEHB350
	.uleb128 .L1795-.LFB1996
	.uleb128 0
	.uleb128 .LEHB351-.LFB1996
	.uleb128 .LEHE351-.LEHB351
	.uleb128 .L1837-.LFB1996
	.uleb128 0x3
	.uleb128 .LEHB352-.LFB1996
	.uleb128 .LEHE352-.LEHB352
	.uleb128 .L1804-.LFB1996
	.uleb128 0
	.uleb128 .LEHB353-.LFB1996
	.uleb128 .LEHE353-.LEHB353
	.uleb128 .L1839-.LFB1996
	.uleb128 0x1
	.uleb128 .LEHB354-.LFB1996
	.uleb128 .LEHE354-.LEHB354
	.uleb128 .L1838-.LFB1996
	.uleb128 0x1
	.uleb128 .LEHB355-.LFB1996
	.uleb128 .LEHE355-.LEHB355
	.uleb128 .L1796-.LFB1996
	.uleb128 0
	.uleb128 .LEHB356-.LFB1996
	.uleb128 .LEHE356-.LEHB356
	.uleb128 .L1840-.LFB1996
	.uleb128 0x15
	.uleb128 .LEHB357-.LFB1996
	.uleb128 .LEHE357-.LEHB357
	.uleb128 .L1842-.LFB1996
	.uleb128 0x17
	.uleb128 .LEHB358-.LFB1996
	.uleb128 .LEHE358-.LEHB358
	.uleb128 .L1843-.LFB1996
	.uleb128 0x19
	.uleb128 .LEHB359-.LFB1996
	.uleb128 .LEHE359-.LEHB359
	.uleb128 .L1844-.LFB1996
	.uleb128 0x1b
	.uleb128 .LEHB360-.LFB1996
	.uleb128 .LEHE360-.LEHB360
	.uleb128 .L1842-.LFB1996
	.uleb128 0x17
	.uleb128 .LEHB361-.LFB1996
	.uleb128 .LEHE361-.LEHB361
	.uleb128 .L1802-.LFB1996
	.uleb128 0
	.uleb128 .LEHB362-.LFB1996
	.uleb128 .LEHE362-.LEHB362
	.uleb128 .L1845-.LFB1996
	.uleb128 0x3
	.uleb128 .LEHB363-.LFB1996
	.uleb128 .LEHE363-.LEHB363
	.uleb128 .L1803-.LFB1996
	.uleb128 0
	.uleb128 .LEHB364-.LFB1996
	.uleb128 .LEHE364-.LEHB364
	.uleb128 .L1849-.LFB1996
	.uleb128 0x1
	.uleb128 .LEHB365-.LFB1996
	.uleb128 .LEHE365-.LEHB365
	.uleb128 .L1848-.LFB1996
	.uleb128 0x1
	.uleb128 .LEHB366-.LFB1996
	.uleb128 .LEHE366-.LEHB366
	.uleb128 .L1847-.LFB1996
	.uleb128 0x1
	.uleb128 .LEHB367-.LFB1996
	.uleb128 .LEHE367-.LEHB367
	.uleb128 .L1846-.LFB1996
	.uleb128 0x1
	.uleb128 .LEHB368-.LFB1996
	.uleb128 .LEHE368-.LEHB368
	.uleb128 .L1796-.LFB1996
	.uleb128 0
	.uleb128 .LEHB369-.LFB1996
	.uleb128 .LEHE369-.LEHB369
	.uleb128 .L1850-.LFB1996
	.uleb128 0xb
	.uleb128 .LEHB370-.LFB1996
	.uleb128 .LEHE370-.LEHB370
	.uleb128 .L1852-.LFB1996
	.uleb128 0xd
	.uleb128 .LEHB371-.LFB1996
	.uleb128 .LEHE371-.LEHB371
	.uleb128 .L1854-.LFB1996
	.uleb128 0x11
	.uleb128 .LEHB372-.LFB1996
	.uleb128 .LEHE372-.LEHB372
	.uleb128 .L1855-.LFB1996
	.uleb128 0x13
	.uleb128 .LEHB373-.LFB1996
	.uleb128 .LEHE373-.LEHB373
	.uleb128 .L1857-.LFB1996
	.uleb128 0x11
	.uleb128 .LEHB374-.LFB1996
	.uleb128 .LEHE374-.LEHB374
	.uleb128 .L1858-.LFB1996
	.uleb128 0x1d
	.uleb128 .LEHB375-.LFB1996
	.uleb128 .LEHE375-.LEHB375
	.uleb128 .L1860-.LFB1996
	.uleb128 0x1
	.uleb128 .LEHB376-.LFB1996
	.uleb128 .LEHE376-.LEHB376
	.uleb128 .L1859-.LFB1996
	.uleb128 0x3
	.uleb128 .LEHB377-.LFB1996
	.uleb128 .LEHE377-.LEHB377
	.uleb128 .L1800-.LFB1996
	.uleb128 0
	.uleb128 .LEHB378-.LFB1996
	.uleb128 .LEHE378-.LEHB378
	.uleb128 .L1864-.LFB1996
	.uleb128 0x1
	.uleb128 .LEHB379-.LFB1996
	.uleb128 .LEHE379-.LEHB379
	.uleb128 .L1863-.LFB1996
	.uleb128 0x1
	.uleb128 .LEHB380-.LFB1996
	.uleb128 .LEHE380-.LEHB380
	.uleb128 .L1861-.LFB1996
	.uleb128 0x7
	.uleb128 .LEHB381-.LFB1996
	.uleb128 .LEHE381-.LEHB381
	.uleb128 .L1865-.LFB1996
	.uleb128 0x9
	.uleb128 .LEHB382-.LFB1996
	.uleb128 .LEHE382-.LEHB382
	.uleb128 .L1866-.LFB1996
	.uleb128 0x1d
	.uleb128 .LEHB383-.LFB1996
	.uleb128 .LEHE383-.LEHB383
	.uleb128 .L1868-.LFB1996
	.uleb128 0x1
	.uleb128 .LEHB384-.LFB1996
	.uleb128 .LEHE384-.LEHB384
	.uleb128 .L1867-.LFB1996
	.uleb128 0x7
	.uleb128 .LEHB385-.LFB1996
	.uleb128 .LEHE385-.LEHB385
	.uleb128 .L1869-.LFB1996
	.uleb128 0x15
	.uleb128 .LEHB386-.LFB1996
	.uleb128 .LEHE386-.LEHB386
	.uleb128 .L1871-.LFB1996
	.uleb128 0x17
	.uleb128 .LEHB387-.LFB1996
	.uleb128 .LEHE387-.LEHB387
	.uleb128 .L1872-.LFB1996
	.uleb128 0x19
	.uleb128 .LEHB388-.LFB1996
	.uleb128 .LEHE388-.LEHB388
	.uleb128 .L1873-.LFB1996
	.uleb128 0x1b
	.uleb128 .LEHB389-.LFB1996
	.uleb128 .LEHE389-.LEHB389
	.uleb128 .L1871-.LFB1996
	.uleb128 0x17
	.uleb128 .LEHB390-.LFB1996
	.uleb128 .LEHE390-.LEHB390
	.uleb128 .L1797-.LFB1996
	.uleb128 0
	.uleb128 .LEHB391-.LFB1996
	.uleb128 .LEHE391-.LEHB391
	.uleb128 .L1874-.LFB1996
	.uleb128 0x3
	.uleb128 .LEHB392-.LFB1996
	.uleb128 .LEHE392-.LEHB392
	.uleb128 .L1798-.LFB1996
	.uleb128 0
	.uleb128 .LEHB393-.LFB1996
	.uleb128 .LEHE393-.LEHB393
	.uleb128 .L1878-.LFB1996
	.uleb128 0x1
	.uleb128 .LEHB394-.LFB1996
	.uleb128 .LEHE394-.LEHB394
	.uleb128 .L1877-.LFB1996
	.uleb128 0x1
	.uleb128 .LEHB395-.LFB1996
	.uleb128 .LEHE395-.LEHB395
	.uleb128 .L1876-.LFB1996
	.uleb128 0x1
	.uleb128 .LEHB396-.LFB1996
	.uleb128 .LEHE396-.LEHB396
	.uleb128 .L1875-.LFB1996
	.uleb128 0x1
	.uleb128 .LEHB397-.LFB1996
	.uleb128 .LEHE397-.LEHB397
	.uleb128 .L1796-.LFB1996
	.uleb128 0
	.uleb128 .LEHB398-.LFB1996
	.uleb128 .LEHE398-.LEHB398
	.uleb128 .L1879-.LFB1996
	.uleb128 0x7
	.uleb128 .LEHB399-.LFB1996
	.uleb128 .LEHE399-.LEHB399
	.uleb128 .L1890-.LFB1996
	.uleb128 0x1
	.uleb128 .LEHB400-.LFB1996
	.uleb128 .LEHE400-.LEHB400
	.uleb128 .L1889-.LFB1996
	.uleb128 0x1
	.uleb128 .LEHB401-.LFB1996
	.uleb128 .LEHE401-.LEHB401
	.uleb128 .L1888-.LFB1996
	.uleb128 0x1
	.uleb128 .LEHB402-.LFB1996
	.uleb128 .LEHE402-.LEHB402
	.uleb128 .L1887-.LFB1996
	.uleb128 0x1
	.uleb128 .LEHB403-.LFB1996
	.uleb128 .LEHE403-.LEHB403
	.uleb128 .L1886-.LFB1996
	.uleb128 0x1
	.uleb128 .LEHB404-.LFB1996
	.uleb128 .LEHE404-.LEHB404
	.uleb128 .L1885-.LFB1996
	.uleb128 0x1
	.uleb128 .LEHB405-.LFB1996
	.uleb128 .LEHE405-.LEHB405
	.uleb128 .L1884-.LFB1996
	.uleb128 0x1
	.uleb128 .LEHB406-.LFB1996
	.uleb128 .LEHE406-.LEHB406
	.uleb128 .L1883-.LFB1996
	.uleb128 0x1
	.uleb128 .LEHB407-.LFB1996
	.uleb128 .LEHE407-.LEHB407
	.uleb128 .L1882-.LFB1996
	.uleb128 0x1
	.uleb128 .LEHB408-.LFB1996
	.uleb128 .LEHE408-.LEHB408
	.uleb128 .L1881-.LFB1996
	.uleb128 0x1
	.uleb128 .LEHB409-.LFB1996
	.uleb128 .LEHE409-.LEHB409
	.uleb128 .L1880-.LFB1996
	.uleb128 0x1
	.uleb128 .LEHB410-.LFB1996
	.uleb128 .LEHE410-.LEHB410
	.uleb128 0
	.uleb128 0
	.uleb128 .LEHB411-.LFB1996
	.uleb128 .LEHE411-.LEHB411
	.uleb128 .L1825-.LFB1996
	.uleb128 0xd
	.uleb128 .LEHB412-.LFB1996
	.uleb128 .LEHE412-.LEHB412
	.uleb128 .L1842-.LFB1996
	.uleb128 0x17
	.uleb128 .LEHB413-.LFB1996
	.uleb128 .LEHE413-.LEHB413
	.uleb128 .L1852-.LFB1996
	.uleb128 0xd
	.uleb128 .LEHB414-.LFB1996
	.uleb128 .LEHE414-.LEHB414
	.uleb128 .L1871-.LFB1996
	.uleb128 0x17
	.uleb128 .LEHB415-.LFB1996
	.uleb128 .LEHE415-.LEHB415
	.uleb128 .L1807-.LFB1996
	.uleb128 0x7
	.uleb128 .LEHB416-.LFB1996
	.uleb128 .LEHE416-.LEHB416
	.uleb128 .L1872-.LFB1996
	.uleb128 0x19
	.uleb128 .LEHB417-.LFB1996
	.uleb128 .LEHE417-.LEHB417
	.uleb128 .L1871-.LFB1996
	.uleb128 0x17
	.uleb128 .LEHB418-.LFB1996
	.uleb128 .LEHE418-.LEHB418
	.uleb128 .L1836-.LFB1996
	.uleb128 0x9
	.uleb128 .LEHB419-.LFB1996
	.uleb128 .LEHE419-.LEHB419
	.uleb128 .L1822-.LFB1996
	.uleb128 0x9
	.uleb128 .LEHB420-.LFB1996
	.uleb128 .LEHE420-.LEHB420
	.uleb128 .L1816-.LFB1996
	.uleb128 0x7
	.uleb128 .LEHB421-.LFB1996
	.uleb128 .LEHE421-.LEHB421
	.uleb128 .L1813-.LFB1996
	.uleb128 0x7
	.uleb128 .LEHB422-.LFB1996
	.uleb128 .LEHE422-.LEHB422
	.uleb128 .L1791-.LFB1996
	.uleb128 0
	.uleb128 .LEHB423-.LFB1996
	.uleb128 .LEHE423-.LEHB423
	.uleb128 .L1840-.LFB1996
	.uleb128 0x15
	.uleb128 .LEHB424-.LFB1996
	.uleb128 .LEHE424-.LEHB424
	.uleb128 .L1865-.LFB1996
	.uleb128 0x9
	.uleb128 .LEHB425-.LFB1996
	.uleb128 .LEHE425-.LEHB425
	.uleb128 .L1796-.LFB1996
	.uleb128 0
	.uleb128 .LEHB426-.LFB1996
	.uleb128 .LEHE426-.LEHB426
	.uleb128 .L1854-.LFB1996
	.uleb128 0x11
	.uleb128 .LEHB427-.LFB1996
	.uleb128 .LEHE427-.LEHB427
	.uleb128 .L1852-.LFB1996
	.uleb128 0xd
	.uleb128 .LEHB428-.LFB1996
	.uleb128 .LEHE428-.LEHB428
	.uleb128 .L1830-.LFB1996
	.uleb128 0x11
	.uleb128 .LEHB429-.LFB1996
	.uleb128 .LEHE429-.LEHB429
	.uleb128 .L1825-.LFB1996
	.uleb128 0xd
	.uleb128 .LEHB430-.LFB1996
	.uleb128 .LEHE430-.LEHB430
	.uleb128 .L1827-.LFB1996
	.uleb128 0x11
	.uleb128 .LEHB431-.LFB1996
	.uleb128 .LEHE431-.LEHB431
	.uleb128 .L1825-.LFB1996
	.uleb128 0xd
	.uleb128 .LEHB432-.LFB1996
	.uleb128 .LEHE432-.LEHB432
	.uleb128 .L1865-.LFB1996
	.uleb128 0x9
	.uleb128 .LEHB433-.LFB1996
	.uleb128 .LEHE433-.LEHB433
	.uleb128 .L1812-.LFB1996
	.uleb128 0x7
	.uleb128 .LEHB434-.LFB1996
	.uleb128 .LEHE434-.LEHB434
	.uleb128 .L1790-.LFB1996
	.uleb128 0
	.uleb128 .LEHB435-.LFB1996
	.uleb128 .LEHE435-.LEHB435
	.uleb128 .L1879-.LFB1996
	.uleb128 0x7
	.uleb128 .LEHB436-.LFB1996
	.uleb128 .LEHE436-.LEHB436
	.uleb128 .L1857-.LFB1996
	.uleb128 0x11
	.uleb128 .LEHB437-.LFB1996
	.uleb128 .LEHE437-.LEHB437
	.uleb128 .L1852-.LFB1996
	.uleb128 0xd
	.uleb128 .LEHB438-.LFB1996
	.uleb128 .LEHE438-.LEHB438
	.uleb128 .L1822-.LFB1996
	.uleb128 0x9
	.uleb128 .LEHB439-.LFB1996
	.uleb128 .LEHE439-.LEHB439
	.uleb128 .L1869-.LFB1996
	.uleb128 0x15
	.uleb128 .LEHB440-.LFB1996
	.uleb128 .LEHE440-.LEHB440
	.uleb128 .L1843-.LFB1996
	.uleb128 0x19
	.uleb128 .LEHB441-.LFB1996
	.uleb128 .LEHE441-.LEHB441
	.uleb128 .L1842-.LFB1996
	.uleb128 0x17
	.uleb128 .LEHB442-.LFB1996
	.uleb128 .LEHE442-.LEHB442
	.uleb128 .L1867-.LFB1996
	.uleb128 0x7
	.uleb128 .LEHB443-.LFB1996
	.uleb128 .LEHE443-.LEHB443
	.uleb128 .L1796-.LFB1996
	.uleb128 0
	.uleb128 .LEHB444-.LFB1996
	.uleb128 .LEHE444-.LEHB444
	.uleb128 .L1826-.LFB1996
	.uleb128 0xf
	.uleb128 .LEHB445-.LFB1996
	.uleb128 .LEHE445-.LEHB445
	.uleb128 0
	.uleb128 0
	.uleb128 .LEHB446-.LFB1996
	.uleb128 .LEHE446-.LEHB446
	.uleb128 .L1799-.LFB1996
	.uleb128 0
	.uleb128 .LEHB447-.LFB1996
	.uleb128 .LEHE447-.LEHB447
	.uleb128 .L1792-.LFB1996
	.uleb128 0
	.uleb128 .LEHB448-.LFB1996
	.uleb128 .LEHE448-.LEHB448
	.uleb128 .L1819-.LFB1996
	.uleb128 0x7
	.uleb128 .LEHB449-.LFB1996
	.uleb128 .LEHE449-.LEHB449
	.uleb128 .L1862-.LFB1996
	.uleb128 0x7
	.uleb128 .LEHB450-.LFB1996
	.uleb128 .LEHE450-.LEHB450
	.uleb128 .L1796-.LFB1996
	.uleb128 0
	.uleb128 .LEHB451-.LFB1996
	.uleb128 .LEHE451-.LEHB451
	.uleb128 .L1791-.LFB1996
	.uleb128 0
	.uleb128 .LEHB452-.LFB1996
	.uleb128 .LEHE452-.LEHB452
	.uleb128 .L1829-.LFB1996
	.uleb128 0xf
	.uleb128 .LEHB453-.LFB1996
	.uleb128 .LEHE453-.LEHB453
	.uleb128 .L1790-.LFB1996
	.uleb128 0
	.uleb128 .LEHB454-.LFB1996
	.uleb128 .LEHE454-.LEHB454
	.uleb128 .L1853-.LFB1996
	.uleb128 0xf
	.uleb128 .LEHB455-.LFB1996
	.uleb128 .LEHE455-.LEHB455
	.uleb128 .L1856-.LFB1996
	.uleb128 0xf
	.uleb128 .LEHB456-.LFB1996
	.uleb128 .LEHE456-.LEHB456
	.uleb128 .L1796-.LFB1996
	.uleb128 0
	.uleb128 .LEHB457-.LFB1996
	.uleb128 .LEHE457-.LEHB457
	.uleb128 .L1870-.LFB1996
	.uleb128 0x15
	.uleb128 .LEHB458-.LFB1996
	.uleb128 .LEHE458-.LEHB458
	.uleb128 .L1796-.LFB1996
	.uleb128 0
	.uleb128 .LEHB459-.LFB1996
	.uleb128 .LEHE459-.LEHB459
	.uleb128 .L1841-.LFB1996
	.uleb128 0x15
	.uleb128 .LEHB460-.LFB1996
	.uleb128 .LEHE460-.LEHB460
	.uleb128 .L1793-.LFB1996
	.uleb128 0
	.uleb128 .LEHB461-.LFB1996
	.uleb128 .LEHE461-.LEHB461
	.uleb128 .L1824-.LFB1996
	.uleb128 0xb
	.uleb128 .LEHB462-.LFB1996
	.uleb128 .LEHE462-.LEHB462
	.uleb128 .L1796-.LFB1996
	.uleb128 0
	.uleb128 .LEHB463-.LFB1996
	.uleb128 .LEHE463-.LEHB463
	.uleb128 .L1851-.LFB1996
	.uleb128 0xb
	.uleb128 .LEHB464-.LFB1996
	.uleb128 .LEHE464-.LEHB464
	.uleb128 .L1801-.LFB1996
	.uleb128 0
	.uleb128 .LEHB465-.LFB1996
	.uleb128 .LEHE465-.LEHB465
	.uleb128 .L1794-.LFB1996
	.uleb128 0
	.uleb128 .LEHB466-.LFB1996
	.uleb128 .LEHE466-.LEHB466
	.uleb128 .L1833-.LFB1996
	.uleb128 0x7
.LLSDACSE1996:
	.byte	0x7d
	.byte	0
	.byte	0
	.byte	0x7d
	.byte	0
	.byte	0
	.byte	0x7f
	.byte	0x7d
	.byte	0x7c
	.byte	0x7d
	.byte	0x79
	.byte	0x79
	.byte	0x7c
	.byte	0x7d
	.byte	0x7c
	.byte	0x7d
	.byte	0x7c
	.byte	0x7d
	.byte	0x75
	.byte	0x79
	.byte	0x73
	.byte	0x6f
	.byte	0x6e
	.byte	0x7d
	.byte	0x7c
	.byte	0x7d
	.byte	0x75
	.byte	0x7b
	.byte	0x6a
	.byte	0x67
	.align 4
	.long	DW.ref._ZTIN5decaf15CryptoExceptionE-.
	.long	DW.ref._ZTISt9bad_alloc-.
	.long	DW.ref._ZTIN5decaf15LengthExceptionE-.
	.long	DW.ref._ZTIN5decaf17ProtocolExceptionE-.
.LLSDATT1996:
	.byte	0x1
	.byte	0
	.byte	0
	.byte	0x1
	.byte	0x2
	.byte	0
	.byte	0x3
	.byte	0x1
	.byte	0x2
	.byte	0
	.byte	0x2
	.byte	0
	.byte	0x3
	.byte	0x1
	.byte	0x4
	.byte	0x2
	.byte	0
	.byte	0x1
	.byte	0x4
	.byte	0x2
	.byte	0
	.byte	0x3
	.byte	0
	.section	.text._ZL3tdhRN5decaf9SpongeRngES1_NS_5Ed4486ScalarERKNS_5BlockES3_S6_.constprop.96
	.size	_ZL3tdhRN5decaf9SpongeRngES1_NS_5Ed4486ScalarERKNS_5BlockES3_S6_.constprop.96, .-_ZL3tdhRN5decaf9SpongeRngES1_NS_5Ed4486ScalarERKNS_5BlockES3_S6_.constprop.96
	.section	.text.unlikely._ZL3tdhRN5decaf9SpongeRngES1_NS_5Ed4486ScalarERKNS_5BlockES3_S6_.constprop.96
.LCOLDE52:
	.section	.text._ZL3tdhRN5decaf9SpongeRngES1_NS_5Ed4486ScalarERKNS_5BlockES3_S6_.constprop.96
.LHOTE52:
	.section	.text.unlikely._ZN5decaf6Strobe6respecERK9kparams_s,"axG",@progbits,_ZN5decaf6Strobe6respecERK9kparams_s,comdat
	.align 2
.LCOLDB53:
	.section	.text._ZN5decaf6Strobe6respecERK9kparams_s,"axG",@progbits,_ZN5decaf6Strobe6respecERK9kparams_s,comdat
.LHOTB53:
	.align 2
	.p2align 4,,15
	.weak	_ZN5decaf6Strobe6respecERK9kparams_s
	.hidden	_ZN5decaf6Strobe6respecERK9kparams_s
	.type	_ZN5decaf6Strobe6respecERK9kparams_s, @function
_ZN5decaf6Strobe6respecERK9kparams_s:
.LFB993:
	.cfi_startproc
	.cfi_personality 0x9b,DW.ref.__gxx_personality_v0
	.cfi_lsda 0x1b,.LLSDA993
	subq	$8, %rsp
	.cfi_def_cfa_offset 16
.LEHB467:
	call	strobe_respec@PLT
	testq	%rax, %rax
	je	.L2190
	addq	$8, %rsp
	.cfi_remember_state
	.cfi_def_cfa_offset 8
	ret
.L2190:
	.cfi_restore_state
	movl	$8, %edi
	call	__cxa_allocate_exception@PLT
	leaq	16+_ZTVN5decaf17ProtocolExceptionE(%rip), %rcx
	leaq	_ZN5decaf17ProtocolExceptionD1Ev(%rip), %rdx
	leaq	_ZTIN5decaf17ProtocolExceptionE(%rip), %rsi
	movq	%rax, %rdi
	movq	%rcx, (%rax)
	call	__cxa_throw@PLT
.LEHE467:
.L2187:
	movq	%rax, %rdi
.L2185:
	addq	$1, %rdx
	je	.L2186
	vzeroupper
.LEHB468:
	call	_Unwind_Resume@PLT
.L2186:
	vzeroupper
	call	__cxa_call_unexpected@PLT
.LEHE468:
	.cfi_endproc
.LFE993:
	.section	.gcc_except_table._ZN5decaf6Strobe6respecERK9kparams_s,"aG",@progbits,_ZN5decaf6Strobe6respecERK9kparams_s,comdat
	.align 4
.LLSDA993:
	.byte	0xff
	.byte	0x9b
	.uleb128 .LLSDATT993-.LLSDATTD993
.LLSDATTD993:
	.byte	0x1
	.uleb128 .LLSDACSE993-.LLSDACSB993
.LLSDACSB993:
	.uleb128 .LEHB467-.LFB993
	.uleb128 .LEHE467-.LEHB467
	.uleb128 .L2187-.LFB993
	.uleb128 0x1
	.uleb128 .LEHB468-.LFB993
	.uleb128 .LEHE468-.LEHB468
	.uleb128 0
	.uleb128 0
.LLSDACSE993:
	.byte	0x7f
	.byte	0
	.align 4
	.long	DW.ref._ZTIN5decaf17ProtocolExceptionE-.
.LLSDATT993:
	.byte	0x1
	.byte	0
	.section	.text._ZN5decaf6Strobe6respecERK9kparams_s,"axG",@progbits,_ZN5decaf6Strobe6respecERK9kparams_s,comdat
	.size	_ZN5decaf6Strobe6respecERK9kparams_s, .-_ZN5decaf6Strobe6respecERK9kparams_s
	.section	.text.unlikely._ZN5decaf6Strobe6respecERK9kparams_s,"axG",@progbits,_ZN5decaf6Strobe6respecERK9kparams_s,comdat
.LCOLDE53:
	.section	.text._ZN5decaf6Strobe6respecERK9kparams_s,"axG",@progbits,_ZN5decaf6Strobe6respecERK9kparams_s,comdat
.LHOTE53:
	.section	.rodata.str1.1
.LC55:
	.string	"test/bench_decaf.cxx"
.LC56:
	.string	"j >= 0 && j < nsamples"
	.section	.text.unlikely._ZN9Benchmark4iterEv,"axG",@progbits,_ZN9Benchmark4iterEv,comdat
	.align 2
.LCOLDB57:
	.section	.text._ZN9Benchmark4iterEv,"axG",@progbits,_ZN9Benchmark4iterEv,comdat
.LHOTB57:
	.align 2
	.p2align 4,,15
	.weak	_ZN9Benchmark4iterEv
	.hidden	_ZN9Benchmark4iterEv
	.type	_ZN9Benchmark4iterEv, @function
_ZN9Benchmark4iterEv:
.LFB1480:
	.cfi_startproc
	pushq	%rbp
	.cfi_def_cfa_offset 16
	.cfi_offset 6, -16
	pushq	%rbx
	.cfi_def_cfa_offset 24
	.cfi_offset 3, -24
	movq	%rdi, %rbx
	subq	$40, %rsp
	.cfi_def_cfa_offset 64
	movq	%fs:40, %rax
	movq	%rax, 24(%rsp)
	xorl	%eax, %eax
	movl	(%rdi), %eax
	addl	$1, %eax
	cmpl	8(%rdi), %eax
	movl	%eax, (%rdi)
	jge	.L2192
	movl	4(%rdi), %eax
.L2193:
	cmpl	%eax, 12(%rbx)
	setg	%al
	movq	24(%rsp), %rcx
	xorq	%fs:40, %rcx
	jne	.L2199
	addq	$40, %rsp
	.cfi_remember_state
	.cfi_def_cfa_offset 24
	popq	%rbx
	.cfi_def_cfa_offset 16
	popq	%rbp
	.cfi_def_cfa_offset 8
	ret
	.p2align 4,,10
	.p2align 3
.L2192:
	.cfi_restore_state
#APP
# 46 "test/bench_decaf.cxx" 1
	rdtsc
# 0 "" 2
#NO_APP
	subq	24(%rdi), %rax
	xorl	%esi, %esi
	movq	%rsp, %rdi
	movq	%rax, %rbp
	call	gettimeofday@PLT
	vxorpd	%xmm0, %xmm0, %xmm0
	movslq	4(%rbx), %rax
	vxorpd	%xmm1, %xmm1, %xmm1
	addq	%rbp, 24(%rbx)
	vcvtsi2sdq	8(%rsp), %xmm0, %xmm0
	vdivsd	.LC54(%rip), %xmm0, %xmm0
	vcvtsi2sdq	(%rsp), %xmm1, %xmm1
	testl	%eax, %eax
	vaddsd	%xmm1, %xmm0, %xmm0
	vmovsd	16(%rbx), %xmm1
	vsubsd	%xmm1, %xmm0, %xmm0
	vaddsd	%xmm0, %xmm1, %xmm1
	vmovsd	%xmm1, 16(%rbx)
	js	.L2194
	cmpl	12(%rbx), %eax
	jge	.L2194
	movq	56(%rbx), %rdx
	movq	%rbp, (%rdx,%rax,8)
	movslq	4(%rbx), %rdx
	movq	32(%rbx), %rax
	vmovsd	%xmm0, (%rax,%rdx,8)
	movl	4(%rbx), %eax
	movl	$0, (%rbx)
	addl	$1, %eax
	movl	%eax, 4(%rbx)
	jmp	.L2193
.L2199:
	call	__stack_chk_fail@PLT
.L2194:
	leaq	_ZZN9Benchmark4iterEvE19__PRETTY_FUNCTION__(%rip), %rcx
	leaq	.LC55(%rip), %rsi
	leaq	.LC56(%rip), %rdi
	movl	$123, %edx
	call	__assert_fail@PLT
	.cfi_endproc
.LFE1480:
	.size	_ZN9Benchmark4iterEv, .-_ZN9Benchmark4iterEv
	.section	.text.unlikely._ZN9Benchmark4iterEv,"axG",@progbits,_ZN9Benchmark4iterEv,comdat
.LCOLDE57:
	.section	.text._ZN9Benchmark4iterEv,"axG",@progbits,_ZN9Benchmark4iterEv,comdat
.LHOTE57:
	.section	.text.unlikely._ZNSt6vectorIdSaIdEEaSERKS1_,"axG",@progbits,_ZNSt6vectorIdSaIdEEaSERKS1_,comdat
	.align 2
.LCOLDB58:
	.section	.text._ZNSt6vectorIdSaIdEEaSERKS1_,"axG",@progbits,_ZNSt6vectorIdSaIdEEaSERKS1_,comdat
.LHOTB58:
	.align 2
	.p2align 4,,15
	.weak	_ZNSt6vectorIdSaIdEEaSERKS1_
	.type	_ZNSt6vectorIdSaIdEEaSERKS1_, @function
_ZNSt6vectorIdSaIdEEaSERKS1_:
.LFB1550:
	.cfi_startproc
	pushq	%r15
	.cfi_def_cfa_offset 16
	.cfi_offset 15, -16
	pushq	%r14
	.cfi_def_cfa_offset 24
	.cfi_offset 14, -24
	pushq	%r13
	.cfi_def_cfa_offset 32
	.cfi_offset 13, -32
	pushq	%r12
	.cfi_def_cfa_offset 40
	.cfi_offset 12, -40
	pushq	%rbp
	.cfi_def_cfa_offset 48
	.cfi_offset 6, -48
	pushq	%rbx
	.cfi_def_cfa_offset 56
	.cfi_offset 3, -56
	movq	%rdi, %rbx
	subq	$8, %rsp
	.cfi_def_cfa_offset 64
	cmpq	%rdi, %rsi
	je	.L2222
	movq	8(%rsi), %rdx
	movq	(%rsi), %r15
	movq	%rsi, %r12
	movq	(%rdi), %r13
	movq	16(%rdi), %rcx
	movq	%rdx, %rbp
	subq	%r15, %rbp
	subq	%r13, %rcx
	movq	%rbp, %r14
	sarq	$3, %rcx
	sarq	$3, %r14
	cmpq	%r14, %rcx
	jb	.L2225
	movq	8(%rdi), %rdi
	movq	%rdi, %rax
	subq	%r13, %rax
	movq	%rax, %rcx
	sarq	$3, %rcx
	cmpq	%rcx, %r14
	jbe	.L2226
	testq	%rcx, %rcx
	jne	.L2227
.L2211:
	leaq	(%r15,%rax), %rsi
	subq	%rsi, %rdx
	movq	%rdx, %rax
	sarq	$3, %rax
	testq	%rax, %rax
	jne	.L2212
.L2224:
	addq	%r13, %rbp
.L2208:
	movq	%rbp, 8(%rbx)
.L2222:
	addq	$8, %rsp
	.cfi_remember_state
	.cfi_def_cfa_offset 56
	movq	%rbx, %rax
	popq	%rbx
	.cfi_def_cfa_offset 48
	popq	%rbp
	.cfi_def_cfa_offset 40
	popq	%r12
	.cfi_def_cfa_offset 32
	popq	%r13
	.cfi_def_cfa_offset 24
	popq	%r14
	.cfi_def_cfa_offset 16
	popq	%r15
	.cfi_def_cfa_offset 8
	ret
	.p2align 4,,10
	.p2align 3
.L2226:
	.cfi_restore_state
	testq	%r14, %r14
	je	.L2224
	movq	%rbp, %rdx
	movq	%r15, %rsi
	movq	%r13, %rdi
	call	memmove@PLT
	addq	(%rbx), %rbp
	jmp	.L2208
	.p2align 4,,10
	.p2align 3
.L2225:
	xorl	%r12d, %r12d
	testq	%r14, %r14
	je	.L2206
	movabsq	$2305843009213693951, %rax
	cmpq	%rax, %r14
	ja	.L2228
	movq	%rbp, %rdi
	call	_Znwm@PLT
	testq	%r14, %r14
	movq	%rax, %r12
	movq	(%rbx), %r13
	jne	.L2229
.L2206:
	testq	%r13, %r13
	je	.L2207
.L2230:
	movq	%r13, %rdi
	call	_ZdlPv@PLT
.L2207:
	addq	%r12, %rbp
	movq	%r12, (%rbx)
	movq	%rbp, 16(%rbx)
	jmp	.L2208
	.p2align 4,,10
	.p2align 3
.L2229:
	movq	%rbp, %rdx
	movq	%r15, %rsi
	movq	%rax, %rdi
	call	memmove@PLT
	testq	%r13, %r13
	jne	.L2230
	jmp	.L2207
	.p2align 4,,10
	.p2align 3
.L2212:
	call	memmove@PLT
	addq	(%rbx), %rbp
	jmp	.L2208
	.p2align 4,,10
	.p2align 3
.L2227:
	movq	%r13, %rdi
	movq	%rax, %rdx
	movq	%r15, %rsi
	call	memmove@PLT
	movq	8(%rbx), %rdi
	movq	(%rbx), %r13
	movq	(%r12), %r15
	movq	8(%r12), %rdx
	movq	%rdi, %rax
	subq	%r13, %rax
	jmp	.L2211
.L2228:
	call	_ZSt17__throw_bad_allocv@PLT
	.cfi_endproc
.LFE1550:
	.size	_ZNSt6vectorIdSaIdEEaSERKS1_, .-_ZNSt6vectorIdSaIdEEaSERKS1_
	.section	.text.unlikely._ZNSt6vectorIdSaIdEEaSERKS1_,"axG",@progbits,_ZNSt6vectorIdSaIdEEaSERKS1_,comdat
.LCOLDE58:
	.section	.text._ZNSt6vectorIdSaIdEEaSERKS1_,"axG",@progbits,_ZNSt6vectorIdSaIdEEaSERKS1_,comdat
.LHOTE58:
	.section	.text.unlikely._ZNSt6vectorImSaImEEaSERKS1_,"axG",@progbits,_ZNSt6vectorImSaImEEaSERKS1_,comdat
	.align 2
.LCOLDB59:
	.section	.text._ZNSt6vectorImSaImEEaSERKS1_,"axG",@progbits,_ZNSt6vectorImSaImEEaSERKS1_,comdat
.LHOTB59:
	.align 2
	.p2align 4,,15
	.weak	_ZNSt6vectorImSaImEEaSERKS1_
	.type	_ZNSt6vectorImSaImEEaSERKS1_, @function
_ZNSt6vectorImSaImEEaSERKS1_:
.LFB1560:
	.cfi_startproc
	pushq	%r15
	.cfi_def_cfa_offset 16
	.cfi_offset 15, -16
	pushq	%r14
	.cfi_def_cfa_offset 24
	.cfi_offset 14, -24
	pushq	%r13
	.cfi_def_cfa_offset 32
	.cfi_offset 13, -32
	pushq	%r12
	.cfi_def_cfa_offset 40
	.cfi_offset 12, -40
	pushq	%rbp
	.cfi_def_cfa_offset 48
	.cfi_offset 6, -48
	pushq	%rbx
	.cfi_def_cfa_offset 56
	.cfi_offset 3, -56
	movq	%rdi, %rbx
	subq	$8, %rsp
	.cfi_def_cfa_offset 64
	cmpq	%rdi, %rsi
	je	.L2253
	movq	8(%rsi), %rdx
	movq	(%rsi), %r15
	movq	%rsi, %r12
	movq	(%rdi), %r13
	movq	16(%rdi), %rcx
	movq	%rdx, %rbp
	subq	%r15, %rbp
	subq	%r13, %rcx
	movq	%rbp, %r14
	sarq	$3, %rcx
	sarq	$3, %r14
	cmpq	%r14, %rcx
	jb	.L2256
	movq	8(%rdi), %rdi
	movq	%rdi, %rax
	subq	%r13, %rax
	movq	%rax, %rcx
	sarq	$3, %rcx
	cmpq	%rcx, %r14
	jbe	.L2257
	testq	%rcx, %rcx
	jne	.L2258
.L2242:
	leaq	(%r15,%rax), %rsi
	subq	%rsi, %rdx
	movq	%rdx, %rax
	sarq	$3, %rax
	testq	%rax, %rax
	jne	.L2243
.L2255:
	addq	%r13, %rbp
.L2239:
	movq	%rbp, 8(%rbx)
.L2253:
	addq	$8, %rsp
	.cfi_remember_state
	.cfi_def_cfa_offset 56
	movq	%rbx, %rax
	popq	%rbx
	.cfi_def_cfa_offset 48
	popq	%rbp
	.cfi_def_cfa_offset 40
	popq	%r12
	.cfi_def_cfa_offset 32
	popq	%r13
	.cfi_def_cfa_offset 24
	popq	%r14
	.cfi_def_cfa_offset 16
	popq	%r15
	.cfi_def_cfa_offset 8
	ret
	.p2align 4,,10
	.p2align 3
.L2257:
	.cfi_restore_state
	testq	%r14, %r14
	je	.L2255
	movq	%rbp, %rdx
	movq	%r15, %rsi
	movq	%r13, %rdi
	call	memmove@PLT
	addq	(%rbx), %rbp
	jmp	.L2239
	.p2align 4,,10
	.p2align 3
.L2256:
	xorl	%r12d, %r12d
	testq	%r14, %r14
	je	.L2237
	movabsq	$2305843009213693951, %rax
	cmpq	%rax, %r14
	ja	.L2259
	movq	%rbp, %rdi
	call	_Znwm@PLT
	testq	%r14, %r14
	movq	%rax, %r12
	movq	(%rbx), %r13
	jne	.L2260
.L2237:
	testq	%r13, %r13
	je	.L2238
.L2261:
	movq	%r13, %rdi
	call	_ZdlPv@PLT
.L2238:
	addq	%r12, %rbp
	movq	%r12, (%rbx)
	movq	%rbp, 16(%rbx)
	jmp	.L2239
	.p2align 4,,10
	.p2align 3
.L2260:
	movq	%rbp, %rdx
	movq	%r15, %rsi
	movq	%rax, %rdi
	call	memmove@PLT
	testq	%r13, %r13
	jne	.L2261
	jmp	.L2238
	.p2align 4,,10
	.p2align 3
.L2243:
	call	memmove@PLT
	addq	(%rbx), %rbp
	jmp	.L2239
	.p2align 4,,10
	.p2align 3
.L2258:
	movq	%r13, %rdi
	movq	%rax, %rdx
	movq	%r15, %rsi
	call	memmove@PLT
	movq	8(%rbx), %rdi
	movq	(%rbx), %r13
	movq	(%r12), %r15
	movq	8(%r12), %rdx
	movq	%rdi, %rax
	subq	%r13, %rax
	jmp	.L2242
.L2259:
	call	_ZSt17__throw_bad_allocv@PLT
	.cfi_endproc
.LFE1560:
	.size	_ZNSt6vectorImSaImEEaSERKS1_, .-_ZNSt6vectorImSaImEEaSERKS1_
	.section	.text.unlikely._ZNSt6vectorImSaImEEaSERKS1_,"axG",@progbits,_ZNSt6vectorImSaImEEaSERKS1_,comdat
.LCOLDE59:
	.section	.text._ZNSt6vectorImSaImEEaSERKS1_,"axG",@progbits,_ZNSt6vectorImSaImEEaSERKS1_,comdat
.LHOTE59:
	.section	.rodata.str1.1
.LC60:
	.string	"%s:"
.LC61:
	.string	""
.LC62:
	.string	"%*s"
	.section	.text.unlikely._ZN9BenchmarkC2EPKcd,"axG",@progbits,_ZN9BenchmarkC5EPKcd,comdat
	.align 2
.LCOLDB64:
	.section	.text._ZN9BenchmarkC2EPKcd,"axG",@progbits,_ZN9BenchmarkC5EPKcd,comdat
.LHOTB64:
	.align 2
	.p2align 4,,15
	.weak	_ZN9BenchmarkC2EPKcd
	.hidden	_ZN9BenchmarkC2EPKcd
	.type	_ZN9BenchmarkC2EPKcd, @function
_ZN9BenchmarkC2EPKcd:
.LFB1475:
	.cfi_startproc
	.cfi_personality 0x9b,DW.ref.__gxx_personality_v0
	.cfi_lsda 0x1b,.LLSDA1475
	pushq	%rbp
	.cfi_def_cfa_offset 16
	.cfi_offset 6, -16
	pushq	%rbx
	.cfi_def_cfa_offset 24
	.cfi_offset 3, -24
	movq	%rsi, %rbp
	movq	%rsi, %rdx
	leaq	.LC60(%rip), %rsi
	movq	%rdi, %rbx
	subq	$88, %rsp
	.cfi_def_cfa_offset 112
	movq	$0, 32(%rdi)
	movq	$0, 40(%rdi)
	movq	%fs:40, %rax
	movq	%rax, 72(%rsp)
	xorl	%eax, %eax
	movq	$0, 48(%rdi)
	movq	$0, 56(%rdi)
	vmovsd	%xmm0, 8(%rsp)
	movq	$0, 64(%rdi)
	movq	$0, 72(%rdi)
	movl	$1, %edi
.LEHB469:
	call	__printf_chk@PLT
	movq	%rbp, %rdi
	call	strlen@PLT
	cmpq	$24, %rax
	ja	.L2265
	movl	$25, %edx
	leaq	.LC61(%rip), %rcx
	leaq	.LC62(%rip), %rsi
	subl	%eax, %edx
	movl	$1, %edi
	xorl	%eax, %eax
	call	__printf_chk@PLT
.L2265:
	movq	stdout@GOTPCREL(%rip), %rax
	movq	(%rax), %rdi
	call	fflush@PLT
	vmovsd	8(%rsp), %xmm2
	leaq	48(%rsp), %rbp
	movl	$0, 4(%rbx)
	movl	$0, (%rbx)
	xorl	%esi, %esi
	vmulsd	.LC63(%rip), %xmm2, %xmm0
	movl	$50, 12(%rbx)
	movq	%rbp, %rdi
	vcvttsd2si	%xmm0, %eax
	movl	%eax, 8(%rbx)
	call	gettimeofday@PLT
	vxorpd	%xmm0, %xmm0, %xmm0
	vxorpd	%xmm1, %xmm1, %xmm1
	vcvtsi2sdq	56(%rsp), %xmm0, %xmm0
	vdivsd	.LC54(%rip), %xmm0, %xmm0
	vcvtsi2sdq	48(%rsp), %xmm1, %xmm1
	vaddsd	%xmm1, %xmm0, %xmm0
	vmovsd	%xmm0, 16(%rbx)
#APP
# 46 "test/bench_decaf.cxx" 1
	rdtsc
# 0 "" 2
#NO_APP
	movl	$400, %edi
	movq	%rax, 24(%rbx)
	movq	$0, 16(%rsp)
	movq	$0, 24(%rsp)
	movq	$0, 32(%rsp)
	call	_Znwm@PLT
.LEHE469:
	leaq	8(%rax), %rdi
	leaq	400(%rax), %rdx
	movq	%rax, 16(%rsp)
	leaq	16(%rsp), %rsi
	andq	$-8, %rdi
	movq	%rdx, 32(%rsp)
	movq	$0, (%rax)
	movq	$0, 392(%rax)
	subq	%rdi, %rax
	leal	400(%rax), %ecx
	xorl	%eax, %eax
	shrl	$3, %ecx
	rep stosq
	leaq	32(%rbx), %rdi
	movq	%rdx, 24(%rsp)
.LEHB470:
	call	_ZNSt6vectorIdSaIdEEaSERKS1_@PLT
.LEHE470:
	movq	16(%rsp), %rdi
	testq	%rdi, %rdi
	je	.L2266
	call	_ZdlPv@PLT
.L2266:
	movl	$400, %edi
	movq	$0, 48(%rsp)
	movq	$0, 56(%rsp)
	movq	$0, 64(%rsp)
.LEHB471:
	call	_Znwm@PLT
.LEHE471:
	leaq	8(%rax), %rdi
	leaq	400(%rax), %rdx
	movq	%rax, 48(%rsp)
	movq	%rbp, %rsi
	andq	$-8, %rdi
	movq	%rdx, 64(%rsp)
	movq	$0, (%rax)
	movq	$0, 392(%rax)
	subq	%rdi, %rax
	leal	400(%rax), %ecx
	xorl	%eax, %eax
	shrl	$3, %ecx
	rep stosq
	leaq	56(%rbx), %rdi
	movq	%rdx, 56(%rsp)
.LEHB472:
	call	_ZNSt6vectorImSaImEEaSERKS1_@PLT
.LEHE472:
	movq	48(%rsp), %rdi
	testq	%rdi, %rdi
	je	.L2262
	call	_ZdlPv@PLT
.L2262:
	movq	72(%rsp), %rax
	xorq	%fs:40, %rax
	jne	.L2303
	addq	$88, %rsp
	.cfi_remember_state
	.cfi_def_cfa_offset 24
	popq	%rbx
	.cfi_def_cfa_offset 16
	popq	%rbp
	.cfi_def_cfa_offset 8
	ret
.L2276:
	.cfi_restore_state
	movq	%rax, %rbp
	jmp	.L2270
.L2303:
	call	__stack_chk_fail@PLT
.L2271:
	movq	48(%rsp), %rdi
	testq	%rdi, %rdi
	je	.L2270
.L2301:
	vzeroupper
	call	_ZdlPv@PLT
.L2270:
	movq	56(%rbx), %rdi
	testq	%rdi, %rdi
	je	.L2298
	vzeroupper
	call	_ZdlPv@PLT
.L2273:
	movq	32(%rbx), %rdi
	testq	%rdi, %rdi
	je	.L2274
	call	_ZdlPv@PLT
.L2274:
	movq	%rbp, %rdi
.LEHB473:
	call	_Unwind_Resume@PLT
.LEHE473:
.L2298:
	vzeroupper
	jmp	.L2273
.L2278:
	movq	%rax, %rbp
	jmp	.L2271
.L2277:
	movq	%rax, %rbp
.L2268:
	movq	16(%rsp), %rdi
	testq	%rdi, %rdi
	jne	.L2301
	jmp	.L2270
	.cfi_endproc
.LFE1475:
	.section	.gcc_except_table._ZN9BenchmarkC2EPKcd,"aG",@progbits,_ZN9BenchmarkC5EPKcd,comdat
.LLSDA1475:
	.byte	0xff
	.byte	0xff
	.byte	0x1
	.uleb128 .LLSDACSE1475-.LLSDACSB1475
.LLSDACSB1475:
	.uleb128 .LEHB469-.LFB1475
	.uleb128 .LEHE469-.LEHB469
	.uleb128 .L2276-.LFB1475
	.uleb128 0
	.uleb128 .LEHB470-.LFB1475
	.uleb128 .LEHE470-.LEHB470
	.uleb128 .L2277-.LFB1475
	.uleb128 0
	.uleb128 .LEHB471-.LFB1475
	.uleb128 .LEHE471-.LEHB471
	.uleb128 .L2276-.LFB1475
	.uleb128 0
	.uleb128 .LEHB472-.LFB1475
	.uleb128 .LEHE472-.LEHB472
	.uleb128 .L2278-.LFB1475
	.uleb128 0
	.uleb128 .LEHB473-.LFB1475
	.uleb128 .LEHE473-.LEHB473
	.uleb128 0
	.uleb128 0
.LLSDACSE1475:
	.section	.text._ZN9BenchmarkC2EPKcd,"axG",@progbits,_ZN9BenchmarkC5EPKcd,comdat
	.size	_ZN9BenchmarkC2EPKcd, .-_ZN9BenchmarkC2EPKcd
	.section	.text.unlikely._ZN9BenchmarkC2EPKcd,"axG",@progbits,_ZN9BenchmarkC5EPKcd,comdat
.LCOLDE64:
	.section	.text._ZN9BenchmarkC2EPKcd,"axG",@progbits,_ZN9BenchmarkC5EPKcd,comdat
.LHOTE64:
	.weak	_ZN9BenchmarkC1EPKcd
	.hidden	_ZN9BenchmarkC1EPKcd
	.set	_ZN9BenchmarkC1EPKcd,_ZN9BenchmarkC2EPKcd
	.section	.text.unlikely._ZSt13__adjust_heapIN9__gnu_cxx17__normal_iteratorIPdSt6vectorIdSaIdEEEEldNS0_5__ops15_Iter_less_iterEEvT_T0_SA_T1_T2_,"axG",@progbits,_ZSt13__adjust_heapIN9__gnu_cxx17__normal_iteratorIPdSt6vectorIdSaIdEEEEldNS0_5__ops15_Iter_less_iterEEvT_T0_SA_T1_T2_,comdat
.LCOLDB65:
	.section	.text._ZSt13__adjust_heapIN9__gnu_cxx17__normal_iteratorIPdSt6vectorIdSaIdEEEEldNS0_5__ops15_Iter_less_iterEEvT_T0_SA_T1_T2_,"axG",@progbits,_ZSt13__adjust_heapIN9__gnu_cxx17__normal_iteratorIPdSt6vectorIdSaIdEEEEldNS0_5__ops15_Iter_less_iterEEvT_T0_SA_T1_T2_,comdat
.LHOTB65:
	.p2align 4,,15
	.weak	_ZSt13__adjust_heapIN9__gnu_cxx17__normal_iteratorIPdSt6vectorIdSaIdEEEEldNS0_5__ops15_Iter_less_iterEEvT_T0_SA_T1_T2_
	.hidden	_ZSt13__adjust_heapIN9__gnu_cxx17__normal_iteratorIPdSt6vectorIdSaIdEEEEldNS0_5__ops15_Iter_less_iterEEvT_T0_SA_T1_T2_
	.type	_ZSt13__adjust_heapIN9__gnu_cxx17__normal_iteratorIPdSt6vectorIdSaIdEEEEldNS0_5__ops15_Iter_less_iterEEvT_T0_SA_T1_T2_, @function
_ZSt13__adjust_heapIN9__gnu_cxx17__normal_iteratorIPdSt6vectorIdSaIdEEEEldNS0_5__ops15_Iter_less_iterEEvT_T0_SA_T1_T2_:
.LFB1860:
	.cfi_startproc
	leaq	-1(%rdx), %rax
	movq	%rax, %r11
	shrq	$63, %r11
	addq	%rax, %r11
	sarq	%r11
	cmpq	%r11, %rsi
	jge	.L2305
	movq	%rsi, %r8
	.p2align 4,,10
	.p2align 3
.L2306:
	leaq	1(%r8), %rax
	leaq	(%rax,%rax), %rcx
	salq	$4, %rax
	addq	%rdi, %rax
	leaq	-1(%rcx), %r10
	vmovsd	(%rax), %xmm2
	leaq	(%rdi,%r10,8), %r9
	vmovsd	(%r9), %xmm1
	vucomisd	%xmm2, %xmm1
	vmaxsd	%xmm2, %xmm1, %xmm1
	cmova	%r10, %rcx
	cmova	%r9, %rax
	cmpq	%r11, %rcx
	vmovsd	%xmm1, (%rdi,%r8,8)
	movq	%rcx, %r8
	jl	.L2306
	testb	$1, %dl
	jne	.L2307
.L2313:
	subq	$2, %rdx
	movq	%rdx, %r8
	shrq	$63, %r8
	addq	%r8, %rdx
	sarq	%rdx
	cmpq	%rcx, %rdx
	je	.L2318
.L2307:
	cmpq	%rsi, %rcx
	jle	.L2308
	leaq	-1(%rcx), %rdx
	movq	%rdx, %r8
	shrq	$63, %r8
	addq	%rdx, %r8
	sarq	%r8
	vmovsd	(%rdi,%r8,8), %xmm1
	vucomisd	%xmm1, %xmm0
	jbe	.L2308
	cmpq	%r8, %rsi
	leaq	(%rdi,%r8,8), %rax
	vmovsd	%xmm1, (%rdi,%rcx,8)
	jge	.L2308
.L2311:
	leaq	-1(%r8), %rdx
	movq	%rdx, %rcx
	shrq	$63, %rcx
	addq	%rcx, %rdx
	movq	%r8, %rcx
	sarq	%rdx
	vmovsd	(%rdi,%rdx,8), %xmm1
	vucomisd	%xmm1, %xmm0
	jbe	.L2308
	movq	%rdx, %r8
	vmovsd	%xmm1, (%rdi,%rcx,8)
	cmpq	%r8, %rsi
	leaq	(%rdi,%r8,8), %rax
	jl	.L2311
.L2308:
	vmovsd	%xmm0, (%rax)
	ret
	.p2align 4,,10
	.p2align 3
.L2318:
	leaq	1(%rcx,%rcx), %rcx
	leaq	(%rdi,%rcx,8), %rdx
	vmovsd	(%rdx), %xmm1
	vmovsd	%xmm1, (%rax)
	movq	%rdx, %rax
	jmp	.L2307
.L2305:
	testb	$1, %dl
	leaq	(%rdi,%rsi,8), %rax
	movq	%rsi, %rcx
	je	.L2313
	jmp	.L2308
	.cfi_endproc
.LFE1860:
	.size	_ZSt13__adjust_heapIN9__gnu_cxx17__normal_iteratorIPdSt6vectorIdSaIdEEEEldNS0_5__ops15_Iter_less_iterEEvT_T0_SA_T1_T2_, .-_ZSt13__adjust_heapIN9__gnu_cxx17__normal_iteratorIPdSt6vectorIdSaIdEEEEldNS0_5__ops15_Iter_less_iterEEvT_T0_SA_T1_T2_
	.section	.text.unlikely._ZSt13__adjust_heapIN9__gnu_cxx17__normal_iteratorIPdSt6vectorIdSaIdEEEEldNS0_5__ops15_Iter_less_iterEEvT_T0_SA_T1_T2_,"axG",@progbits,_ZSt13__adjust_heapIN9__gnu_cxx17__normal_iteratorIPdSt6vectorIdSaIdEEEEldNS0_5__ops15_Iter_less_iterEEvT_T0_SA_T1_T2_,comdat
.LCOLDE65:
	.section	.text._ZSt13__adjust_heapIN9__gnu_cxx17__normal_iteratorIPdSt6vectorIdSaIdEEEEldNS0_5__ops15_Iter_less_iterEEvT_T0_SA_T1_T2_,"axG",@progbits,_ZSt13__adjust_heapIN9__gnu_cxx17__normal_iteratorIPdSt6vectorIdSaIdEEEEldNS0_5__ops15_Iter_less_iterEEvT_T0_SA_T1_T2_,comdat
.LHOTE65:
	.section	.text.unlikely._ZSt16__introsort_loopIN9__gnu_cxx17__normal_iteratorIPdSt6vectorIdSaIdEEEElNS0_5__ops15_Iter_less_iterEEvT_S9_T0_T1_.isra.83,"axG",@progbits,_ZN9BenchmarkD5Ev,comdat
.LCOLDB66:
	.section	.text._ZSt16__introsort_loopIN9__gnu_cxx17__normal_iteratorIPdSt6vectorIdSaIdEEEElNS0_5__ops15_Iter_less_iterEEvT_S9_T0_T1_.isra.83,"axG",@progbits,_ZN9BenchmarkD5Ev,comdat
.LHOTB66:
	.p2align 4,,15
	.type	_ZSt16__introsort_loopIN9__gnu_cxx17__normal_iteratorIPdSt6vectorIdSaIdEEEElNS0_5__ops15_Iter_less_iterEEvT_S9_T0_T1_.isra.83, @function
_ZSt16__introsort_loopIN9__gnu_cxx17__normal_iteratorIPdSt6vectorIdSaIdEEEElNS0_5__ops15_Iter_less_iterEEvT_S9_T0_T1_.isra.83:
.LFB1979:
	.cfi_startproc
	movq	%rsi, %rax
	pushq	%r14
	.cfi_def_cfa_offset 16
	.cfi_offset 14, -16
	movq	%rsi, %r14
	subq	%rdi, %rax
	pushq	%r13
	.cfi_def_cfa_offset 24
	.cfi_offset 13, -24
	pushq	%r12
	.cfi_def_cfa_offset 32
	.cfi_offset 12, -32
	cmpq	$135, %rax
	pushq	%rbp
	.cfi_def_cfa_offset 40
	.cfi_offset 6, -40
	pushq	%rbx
	.cfi_def_cfa_offset 48
	.cfi_offset 3, -48
	jle	.L2363
	testq	%rdx, %rdx
	movq	%rdi, %r12
	movq	%rdx, %r13
	je	.L2321
	leaq	16(%rdi), %rbp
	movq	%rsi, %rbx
.L2322:
	subq	%r12, %rbx
	vmovsd	8(%r12), %xmm1
	movq	%rbx, %rax
	subq	$1, %r13
	sarq	$3, %rax
	vmovsd	-8(%rsi), %xmm2
	movq	%rax, %rdx
	shrq	$63, %rdx
	addq	%rdx, %rax
	sarq	%rax
	leaq	(%r12,%rax,8), %rax
	vmovsd	(%rax), %xmm0
	vucomisd	%xmm1, %xmm0
	jbe	.L2357
	vucomisd	%xmm0, %xmm2
	ja	.L2361
	vucomisd	%xmm1, %xmm2
	vmovsd	(%r12), %xmm0
	jbe	.L2365
	vmovsd	%xmm2, (%r12)
	vmovsd	%xmm0, -8(%rsi)
	vmovsd	(%r12), %xmm1
.L2331:
	movq	%rbp, %rcx
	movq	%rsi, %rdx
	.p2align 4,,10
	.p2align 3
.L2334:
	vmovsd	-8(%rcx), %xmm2
	leaq	-8(%rcx), %rbx
	vucomisd	%xmm2, %xmm1
	movq	%rbx, %r14
	ja	.L2339
	vucomisd	%xmm1, %xmm0
	leaq	-8(%rdx), %rdi
	leaq	-16(%rdx), %rax
	jbe	.L2362
	.p2align 4,,10
	.p2align 3
.L2354:
	movq	%rax, %rdx
	subq	$8, %rax
	vmovsd	8(%rax), %xmm0
	vucomisd	%xmm1, %xmm0
	ja	.L2354
	cmpq	%rbx, %rdx
	jbe	.L2366
.L2343:
	vmovsd	%xmm0, -8(%rcx)
	vmovsd	%xmm2, (%rdx)
	vmovsd	-8(%rdx), %xmm0
	vmovsd	(%r12), %xmm1
.L2339:
	addq	$8, %rcx
	jmp	.L2334
.L2362:
	movq	%rdi, %rdx
	cmpq	%rbx, %rdx
	ja	.L2343
.L2366:
	movq	%r13, %rdx
	movq	%rbx, %rdi
	call	_ZSt16__introsort_loopIN9__gnu_cxx17__normal_iteratorIPdSt6vectorIdSaIdEEEElNS0_5__ops15_Iter_less_iterEEvT_S9_T0_T1_.isra.83
	movq	%rbx, %rax
	subq	%r12, %rax
	cmpq	$135, %rax
	jle	.L2363
	testq	%r13, %r13
	je	.L2321
	movq	%rbx, %rsi
	jmp	.L2322
.L2357:
	vucomisd	%xmm1, %xmm2
	ja	.L2367
	vucomisd	%xmm0, %xmm2
	ja	.L2368
.L2361:
	vmovsd	(%r12), %xmm1
	vmovsd	%xmm0, (%r12)
	vmovsd	%xmm1, (%rax)
	vmovsd	(%r12), %xmm1
	vmovsd	-8(%rsi), %xmm0
	jmp	.L2331
.L2367:
	vmovsd	(%r12), %xmm0
.L2365:
	vmovsd	%xmm1, (%r12)
	vmovsd	%xmm0, 8(%r12)
	vmovsd	-8(%rsi), %xmm0
	jmp	.L2331
.L2368:
	vmovsd	(%r12), %xmm0
	vmovsd	%xmm2, (%r12)
	vmovsd	%xmm0, -8(%rsi)
	vmovsd	(%r12), %xmm1
	jmp	.L2331
.L2321:
	sarq	$3, %rax
	leaq	-2(%rax), %rbp
	movq	%rax, %rbx
	sarq	%rbp
	jmp	.L2324
.L2369:
	subq	$1, %rbp
.L2324:
	subq	$8, %rsp
	.cfi_def_cfa_offset 56
	vmovsd	(%r12,%rbp,8), %xmm0
	pushq	$0
	.cfi_def_cfa_offset 64
	movq	%rbp, %rsi
	movq	%rbx, %rdx
	movq	%r12, %rdi
	call	_ZSt13__adjust_heapIN9__gnu_cxx17__normal_iteratorIPdSt6vectorIdSaIdEEEEldNS0_5__ops15_Iter_less_iterEEvT_T0_SA_T1_T2_
	testq	%rbp, %rbp
	popq	%rcx
	.cfi_def_cfa_offset 56
	popq	%rsi
	.cfi_def_cfa_offset 48
	jne	.L2369
	subq	$8, %r14
.L2325:
	vmovsd	(%r12), %xmm1
	movq	%r14, %rbx
	subq	$8, %rsp
	.cfi_def_cfa_offset 56
	subq	%r12, %rbx
	vmovsd	(%r14), %xmm0
	movq	%rbx, %rdx
	vmovsd	%xmm1, (%r14)
	pushq	$0
	.cfi_def_cfa_offset 64
	sarq	$3, %rdx
	xorl	%esi, %esi
	movq	%r12, %rdi
	call	_ZSt13__adjust_heapIN9__gnu_cxx17__normal_iteratorIPdSt6vectorIdSaIdEEEEldNS0_5__ops15_Iter_less_iterEEvT_T0_SA_T1_T2_
	subq	$8, %r14
	cmpq	$15, %rbx
	popq	%rax
	.cfi_def_cfa_offset 56
	popq	%rdx
	.cfi_def_cfa_offset 48
	jg	.L2325
.L2363:
	popq	%rbx
	.cfi_def_cfa_offset 40
	popq	%rbp
	.cfi_def_cfa_offset 32
	popq	%r12
	.cfi_def_cfa_offset 24
	popq	%r13
	.cfi_def_cfa_offset 16
	popq	%r14
	.cfi_def_cfa_offset 8
	ret
	.cfi_endproc
.LFE1979:
	.size	_ZSt16__introsort_loopIN9__gnu_cxx17__normal_iteratorIPdSt6vectorIdSaIdEEEElNS0_5__ops15_Iter_less_iterEEvT_S9_T0_T1_.isra.83, .-_ZSt16__introsort_loopIN9__gnu_cxx17__normal_iteratorIPdSt6vectorIdSaIdEEEElNS0_5__ops15_Iter_less_iterEEvT_S9_T0_T1_.isra.83
	.section	.text.unlikely._ZSt16__introsort_loopIN9__gnu_cxx17__normal_iteratorIPdSt6vectorIdSaIdEEEElNS0_5__ops15_Iter_less_iterEEvT_S9_T0_T1_.isra.83,"axG",@progbits,_ZN9BenchmarkD5Ev,comdat
.LCOLDE66:
	.section	.text._ZSt16__introsort_loopIN9__gnu_cxx17__normal_iteratorIPdSt6vectorIdSaIdEEEElNS0_5__ops15_Iter_less_iterEEvT_S9_T0_T1_.isra.83,"axG",@progbits,_ZN9BenchmarkD5Ev,comdat
.LHOTE66:
	.section	.text.unlikely._ZSt13__adjust_heapIN9__gnu_cxx17__normal_iteratorIPmSt6vectorImSaImEEEElmNS0_5__ops15_Iter_less_iterEEvT_T0_SA_T1_T2_,"axG",@progbits,_ZSt13__adjust_heapIN9__gnu_cxx17__normal_iteratorIPmSt6vectorImSaImEEEElmNS0_5__ops15_Iter_less_iterEEvT_T0_SA_T1_T2_,comdat
.LCOLDB67:
	.section	.text._ZSt13__adjust_heapIN9__gnu_cxx17__normal_iteratorIPmSt6vectorImSaImEEEElmNS0_5__ops15_Iter_less_iterEEvT_T0_SA_T1_T2_,"axG",@progbits,_ZSt13__adjust_heapIN9__gnu_cxx17__normal_iteratorIPmSt6vectorImSaImEEEElmNS0_5__ops15_Iter_less_iterEEvT_T0_SA_T1_T2_,comdat
.LHOTB67:
	.p2align 4,,15
	.weak	_ZSt13__adjust_heapIN9__gnu_cxx17__normal_iteratorIPmSt6vectorImSaImEEEElmNS0_5__ops15_Iter_less_iterEEvT_T0_SA_T1_T2_
	.hidden	_ZSt13__adjust_heapIN9__gnu_cxx17__normal_iteratorIPmSt6vectorImSaImEEEElmNS0_5__ops15_Iter_less_iterEEvT_T0_SA_T1_T2_
	.type	_ZSt13__adjust_heapIN9__gnu_cxx17__normal_iteratorIPmSt6vectorImSaImEEEElmNS0_5__ops15_Iter_less_iterEEvT_T0_SA_T1_T2_, @function
_ZSt13__adjust_heapIN9__gnu_cxx17__normal_iteratorIPmSt6vectorImSaImEEEElmNS0_5__ops15_Iter_less_iterEEvT_T0_SA_T1_T2_:
.LFB1864:
	.cfi_startproc
	leaq	-1(%rdx), %rax
	pushq	%r12
	.cfi_def_cfa_offset 16
	.cfi_offset 12, -16
	pushq	%rbp
	.cfi_def_cfa_offset 24
	.cfi_offset 6, -24
	pushq	%rbx
