	.file	"ed448.cxx"
	.section	.text.unlikely._ZNKSt5ctypeIcE8do_widenEc,"axG",@progbits,_ZNKSt5ctypeIcE8do_widenEc,comdat
	.align 2
.LCOLDB0:
	.section	.text._ZNKSt5ctypeIcE8do_widenEc,"axG",@progbits,_ZNKSt5ctypeIcE8do_widenEc,comdat
.LHOTB0:
	.align 2
	.p2align 4,,15
	.weak	_ZNKSt5ctypeIcE8do_widenEc
	.type	_ZNKSt5ctypeIcE8do_widenEc, @function
_ZNKSt5ctypeIcE8do_widenEc:
.LFB1088:
	.cfi_startproc
	movl	%esi, %eax
	ret
	.cfi_endproc
.LFE1088:
	.size	_ZNKSt5ctypeIcE8do_widenEc, .-_ZNKSt5ctypeIcE8do_widenEc
	.section	.text.unlikely._ZNKSt5ctypeIcE8do_widenEc,"axG",@progbits,_ZNKSt5ctypeIcE8do_widenEc,comdat
.LCOLDE0:
	.section	.text._ZNKSt5ctypeIcE8do_widenEc,"axG",@progbits,_ZNKSt5ctypeIcE8do_widenEc,comdat
.LHOTE0:
	.section	.rodata.str1.1,"aMS",@progbits,1
.LC1:
	.string	"CryptoException"
	.section	.text.unlikely._ZNK5decaf15CryptoException4whatEv,"axG",@progbits,_ZNK5decaf15CryptoException4whatEv,comdat
	.align 2
.LCOLDB2:
	.section	.text._ZNK5decaf15CryptoException4whatEv,"axG",@progbits,_ZNK5decaf15CryptoException4whatEv,comdat
.LHOTB2:
	.align 2
	.p2align 4,,15
	.weak	_ZNK5decaf15CryptoException4whatEv
	.hidden	_ZNK5decaf15CryptoException4whatEv
	.type	_ZNK5decaf15CryptoException4whatEv, @function
_ZNK5decaf15CryptoException4whatEv:
.LFB1726:
	.cfi_startproc
	leaq	.LC1(%rip), %rax
	ret
	.cfi_endproc
.LFE1726:
	.size	_ZNK5decaf15CryptoException4whatEv, .-_ZNK5decaf15CryptoException4whatEv
	.section	.text.unlikely._ZNK5decaf15CryptoException4whatEv,"axG",@progbits,_ZNK5decaf15CryptoException4whatEv,comdat
.LCOLDE2:
	.section	.text._ZNK5decaf15CryptoException4whatEv,"axG",@progbits,_ZNK5decaf15CryptoException4whatEv,comdat
.LHOTE2:
	.section	.rodata.str1.1
.LC3:
	.string	"LengthException"
	.section	.text.unlikely._ZNK5decaf15LengthException4whatEv,"axG",@progbits,_ZNK5decaf15LengthException4whatEv,comdat
	.align 2
.LCOLDB4:
	.section	.text._ZNK5decaf15LengthException4whatEv,"axG",@progbits,_ZNK5decaf15LengthException4whatEv,comdat
.LHOTB4:
	.align 2
	.p2align 4,,15
	.weak	_ZNK5decaf15LengthException4whatEv
	.hidden	_ZNK5decaf15LengthException4whatEv
	.type	_ZNK5decaf15LengthException4whatEv, @function
_ZNK5decaf15LengthException4whatEv:
.LFB1727:
	.cfi_startproc
	leaq	.LC3(%rip), %rax
	ret
	.cfi_endproc
.LFE1727:
	.size	_ZNK5decaf15LengthException4whatEv, .-_ZNK5decaf15LengthException4whatEv
	.section	.text.unlikely._ZNK5decaf15LengthException4whatEv,"axG",@progbits,_ZNK5decaf15LengthException4whatEv,comdat
.LCOLDE4:
	.section	.text._ZNK5decaf15LengthException4whatEv,"axG",@progbits,_ZNK5decaf15LengthException4whatEv,comdat
.LHOTE4:
	.section	.text.unlikely._ZN5decaf5BlockD2Ev,"axG",@progbits,_ZN5decaf5BlockD5Ev,comdat
	.align 2
.LCOLDB5:
	.section	.text._ZN5decaf5BlockD2Ev,"axG",@progbits,_ZN5decaf5BlockD5Ev,comdat
.LHOTB5:
	.align 2
	.p2align 4,,15
	.weak	_ZN5decaf5BlockD2Ev
	.hidden	_ZN5decaf5BlockD2Ev
	.type	_ZN5decaf5BlockD2Ev, @function
_ZN5decaf5BlockD2Ev:
.LFB1759:
	.cfi_startproc
	rep ret
	.cfi_endproc
.LFE1759:
	.size	_ZN5decaf5BlockD2Ev, .-_ZN5decaf5BlockD2Ev
	.section	.text.unlikely._ZN5decaf5BlockD2Ev,"axG",@progbits,_ZN5decaf5BlockD5Ev,comdat
.LCOLDE5:
	.section	.text._ZN5decaf5BlockD2Ev,"axG",@progbits,_ZN5decaf5BlockD5Ev,comdat
.LHOTE5:
	.weak	_ZN5decaf5BlockD1Ev
	.hidden	_ZN5decaf5BlockD1Ev
	.set	_ZN5decaf5BlockD1Ev,_ZN5decaf5BlockD2Ev
	.section	.text.unlikely._ZN5decaf6BufferD2Ev,"axG",@progbits,_ZN5decaf6BufferD5Ev,comdat
	.align 2
.LCOLDB6:
	.section	.text._ZN5decaf6BufferD2Ev,"axG",@progbits,_ZN5decaf6BufferD5Ev,comdat
.LHOTB6:
	.align 2
	.p2align 4,,15
	.weak	_ZN5decaf6BufferD2Ev
	.hidden	_ZN5decaf6BufferD2Ev
	.type	_ZN5decaf6BufferD2Ev, @function
_ZN5decaf6BufferD2Ev:
.LFB1774:
	.cfi_startproc
	rep ret
	.cfi_endproc
.LFE1774:
	.size	_ZN5decaf6BufferD2Ev, .-_ZN5decaf6BufferD2Ev
	.section	.text.unlikely._ZN5decaf6BufferD2Ev,"axG",@progbits,_ZN5decaf6BufferD5Ev,comdat
.LCOLDE6:
	.section	.text._ZN5decaf6BufferD2Ev,"axG",@progbits,_ZN5decaf6BufferD5Ev,comdat
.LHOTE6:
	.weak	_ZN5decaf6BufferD1Ev
	.hidden	_ZN5decaf6BufferD1Ev
	.set	_ZN5decaf6BufferD1Ev,_ZN5decaf6BufferD2Ev
	.section	.text.unlikely._ZNK5decaf9SpongeRng12RngException4whatEv,"axG",@progbits,_ZNK5decaf9SpongeRng12RngException4whatEv,comdat
	.align 2
.LCOLDB7:
	.section	.text._ZNK5decaf9SpongeRng12RngException4whatEv,"axG",@progbits,_ZNK5decaf9SpongeRng12RngException4whatEv,comdat
.LHOTB7:
	.align 2
	.p2align 4,,15
	.weak	_ZNK5decaf9SpongeRng12RngException4whatEv
	.hidden	_ZNK5decaf9SpongeRng12RngException4whatEv
	.type	_ZNK5decaf9SpongeRng12RngException4whatEv, @function
_ZNK5decaf9SpongeRng12RngException4whatEv:
.LFB1990:
	.cfi_startproc
	movq	8(%rdi), %rax
	ret
	.cfi_endproc
.LFE1990:
	.size	_ZNK5decaf9SpongeRng12RngException4whatEv, .-_ZNK5decaf9SpongeRng12RngException4whatEv
	.section	.text.unlikely._ZNK5decaf9SpongeRng12RngException4whatEv,"axG",@progbits,_ZNK5decaf9SpongeRng12RngException4whatEv,comdat
.LCOLDE7:
	.section	.text._ZNK5decaf9SpongeRng12RngException4whatEv,"axG",@progbits,_ZNK5decaf9SpongeRng12RngException4whatEv,comdat
.LHOTE7:
	.section	.text.unlikely._ZN5decaf5BlockD0Ev,"axG",@progbits,_ZN5decaf5BlockD5Ev,comdat
	.align 2
.LCOLDB8:
	.section	.text._ZN5decaf5BlockD0Ev,"axG",@progbits,_ZN5decaf5BlockD5Ev,comdat
.LHOTB8:
	.align 2
	.p2align 4,,15
	.weak	_ZN5decaf5BlockD0Ev
	.hidden	_ZN5decaf5BlockD0Ev
	.type	_ZN5decaf5BlockD0Ev, @function
_ZN5decaf5BlockD0Ev:
.LFB1761:
	.cfi_startproc
	jmp	_ZdlPv@PLT
	.cfi_endproc
.LFE1761:
	.size	_ZN5decaf5BlockD0Ev, .-_ZN5decaf5BlockD0Ev
	.section	.text.unlikely._ZN5decaf5BlockD0Ev,"axG",@progbits,_ZN5decaf5BlockD5Ev,comdat
.LCOLDE8:
	.section	.text._ZN5decaf5BlockD0Ev,"axG",@progbits,_ZN5decaf5BlockD5Ev,comdat
.LHOTE8:
	.section	.text.unlikely._ZN5decaf6BufferD0Ev,"axG",@progbits,_ZN5decaf6BufferD5Ev,comdat
	.align 2
.LCOLDB9:
	.section	.text._ZN5decaf6BufferD0Ev,"axG",@progbits,_ZN5decaf6BufferD5Ev,comdat
.LHOTB9:
	.align 2
	.p2align 4,,15
	.weak	_ZN5decaf6BufferD0Ev
	.hidden	_ZN5decaf6BufferD0Ev
	.type	_ZN5decaf6BufferD0Ev, @function
_ZN5decaf6BufferD0Ev:
.LFB1776:
	.cfi_startproc
	jmp	_ZdlPv@PLT
	.cfi_endproc
.LFE1776:
	.size	_ZN5decaf6BufferD0Ev, .-_ZN5decaf6BufferD0Ev
	.section	.text.unlikely._ZN5decaf6BufferD0Ev,"axG",@progbits,_ZN5decaf6BufferD5Ev,comdat
.LCOLDE9:
	.section	.text._ZN5decaf6BufferD0Ev,"axG",@progbits,_ZN5decaf6BufferD5Ev,comdat
.LHOTE9:
	.section	.text.unlikely._ZN5decaf9SpongeRng12RngExceptionD2Ev,"axG",@progbits,_ZN5decaf9SpongeRng12RngExceptionD5Ev,comdat
	.align 2
.LCOLDB10:
	.section	.text._ZN5decaf9SpongeRng12RngExceptionD2Ev,"axG",@progbits,_ZN5decaf9SpongeRng12RngExceptionD5Ev,comdat
.LHOTB10:
	.align 2
	.p2align 4,,15
	.weak	_ZN5decaf9SpongeRng12RngExceptionD2Ev
	.hidden	_ZN5decaf9SpongeRng12RngExceptionD2Ev
	.type	_ZN5decaf9SpongeRng12RngExceptionD2Ev, @function
_ZN5decaf9SpongeRng12RngExceptionD2Ev:
.LFB2356:
	.cfi_startproc
	leaq	16+_ZTVN5decaf9SpongeRng12RngExceptionE(%rip), %rax
	movq	%rax, (%rdi)
	jmp	_ZNSt9exceptionD2Ev@PLT
	.cfi_endproc
.LFE2356:
	.size	_ZN5decaf9SpongeRng12RngExceptionD2Ev, .-_ZN5decaf9SpongeRng12RngExceptionD2Ev
	.section	.text.unlikely._ZN5decaf9SpongeRng12RngExceptionD2Ev,"axG",@progbits,_ZN5decaf9SpongeRng12RngExceptionD5Ev,comdat
.LCOLDE10:
	.section	.text._ZN5decaf9SpongeRng12RngExceptionD2Ev,"axG",@progbits,_ZN5decaf9SpongeRng12RngExceptionD5Ev,comdat
.LHOTE10:
	.weak	_ZN5decaf9SpongeRng12RngExceptionD1Ev
	.hidden	_ZN5decaf9SpongeRng12RngExceptionD1Ev
	.set	_ZN5decaf9SpongeRng12RngExceptionD1Ev,_ZN5decaf9SpongeRng12RngExceptionD2Ev
	.section	.text.unlikely._ZN5decaf9SpongeRng12RngExceptionD0Ev,"axG",@progbits,_ZN5decaf9SpongeRng12RngExceptionD5Ev,comdat
	.align 2
.LCOLDB11:
	.section	.text._ZN5decaf9SpongeRng12RngExceptionD0Ev,"axG",@progbits,_ZN5decaf9SpongeRng12RngExceptionD5Ev,comdat
.LHOTB11:
	.align 2
	.p2align 4,,15
	.weak	_ZN5decaf9SpongeRng12RngExceptionD0Ev
	.hidden	_ZN5decaf9SpongeRng12RngExceptionD0Ev
	.type	_ZN5decaf9SpongeRng12RngExceptionD0Ev, @function
_ZN5decaf9SpongeRng12RngExceptionD0Ev:
.LFB2358:
	.cfi_startproc
	leaq	16+_ZTVN5decaf9SpongeRng12RngExceptionE(%rip), %rax
	pushq	%rbx
	.cfi_def_cfa_offset 16
	.cfi_offset 3, -16
	movq	%rdi, %rbx
	movq	%rax, (%rdi)
	call	_ZNSt9exceptionD2Ev@PLT
	movq	%rbx, %rdi
	popq	%rbx
	.cfi_def_cfa_offset 8
	jmp	_ZdlPv@PLT
	.cfi_endproc
.LFE2358:
	.size	_ZN5decaf9SpongeRng12RngExceptionD0Ev, .-_ZN5decaf9SpongeRng12RngExceptionD0Ev
	.section	.text.unlikely._ZN5decaf9SpongeRng12RngExceptionD0Ev,"axG",@progbits,_ZN5decaf9SpongeRng12RngExceptionD5Ev,comdat
.LCOLDE11:
	.section	.text._ZN5decaf9SpongeRng12RngExceptionD0Ev,"axG",@progbits,_ZN5decaf9SpongeRng12RngExceptionD5Ev,comdat
.LHOTE11:
	.section	.text.unlikely._ZN5decaf15LengthExceptionD2Ev,"axG",@progbits,_ZN5decaf15LengthExceptionD5Ev,comdat
	.align 2
.LCOLDB12:
	.section	.text._ZN5decaf15LengthExceptionD2Ev,"axG",@progbits,_ZN5decaf15LengthExceptionD5Ev,comdat
.LHOTB12:
	.align 2
	.p2align 4,,15
	.weak	_ZN5decaf15LengthExceptionD2Ev
	.hidden	_ZN5decaf15LengthExceptionD2Ev
	.type	_ZN5decaf15LengthExceptionD2Ev, @function
_ZN5decaf15LengthExceptionD2Ev:
.LFB2368:
	.cfi_startproc
	leaq	16+_ZTVN5decaf15LengthExceptionE(%rip), %rax
	movq	%rax, (%rdi)
	jmp	_ZNSt9exceptionD2Ev@PLT
	.cfi_endproc
.LFE2368:
	.size	_ZN5decaf15LengthExceptionD2Ev, .-_ZN5decaf15LengthExceptionD2Ev
	.section	.text.unlikely._ZN5decaf15LengthExceptionD2Ev,"axG",@progbits,_ZN5decaf15LengthExceptionD5Ev,comdat
.LCOLDE12:
	.section	.text._ZN5decaf15LengthExceptionD2Ev,"axG",@progbits,_ZN5decaf15LengthExceptionD5Ev,comdat
.LHOTE12:
	.weak	_ZN5decaf15LengthExceptionD1Ev
	.hidden	_ZN5decaf15LengthExceptionD1Ev
	.set	_ZN5decaf15LengthExceptionD1Ev,_ZN5decaf15LengthExceptionD2Ev
	.section	.text.unlikely._ZN5decaf15LengthExceptionD0Ev,"axG",@progbits,_ZN5decaf15LengthExceptionD5Ev,comdat
	.align 2
.LCOLDB13:
	.section	.text._ZN5decaf15LengthExceptionD0Ev,"axG",@progbits,_ZN5decaf15LengthExceptionD5Ev,comdat
.LHOTB13:
	.align 2
	.p2align 4,,15
	.weak	_ZN5decaf15LengthExceptionD0Ev
	.hidden	_ZN5decaf15LengthExceptionD0Ev
	.type	_ZN5decaf15LengthExceptionD0Ev, @function
_ZN5decaf15LengthExceptionD0Ev:
.LFB2370:
	.cfi_startproc
	leaq	16+_ZTVN5decaf15LengthExceptionE(%rip), %rax
	pushq	%rbx
	.cfi_def_cfa_offset 16
	.cfi_offset 3, -16
	movq	%rdi, %rbx
	movq	%rax, (%rdi)
	call	_ZNSt9exceptionD2Ev@PLT
	movq	%rbx, %rdi
	popq	%rbx
	.cfi_def_cfa_offset 8
	jmp	_ZdlPv@PLT
	.cfi_endproc
.LFE2370:
	.size	_ZN5decaf15LengthExceptionD0Ev, .-_ZN5decaf15LengthExceptionD0Ev
	.section	.text.unlikely._ZN5decaf15LengthExceptionD0Ev,"axG",@progbits,_ZN5decaf15LengthExceptionD5Ev,comdat
.LCOLDE13:
	.section	.text._ZN5decaf15LengthExceptionD0Ev,"axG",@progbits,_ZN5decaf15LengthExceptionD5Ev,comdat
.LHOTE13:
	.section	.text.unlikely._ZN5decaf15CryptoExceptionD2Ev,"axG",@progbits,_ZN5decaf15CryptoExceptionD5Ev,comdat
	.align 2
.LCOLDB14:
	.section	.text._ZN5decaf15CryptoExceptionD2Ev,"axG",@progbits,_ZN5decaf15CryptoExceptionD5Ev,comdat
.LHOTB14:
	.align 2
	.p2align 4,,15
	.weak	_ZN5decaf15CryptoExceptionD2Ev
	.hidden	_ZN5decaf15CryptoExceptionD2Ev
	.type	_ZN5decaf15CryptoExceptionD2Ev, @function
_ZN5decaf15CryptoExceptionD2Ev:
.LFB2372:
	.cfi_startproc
	leaq	16+_ZTVN5decaf15CryptoExceptionE(%rip), %rax
	movq	%rax, (%rdi)
	jmp	_ZNSt9exceptionD2Ev@PLT
	.cfi_endproc
.LFE2372:
	.size	_ZN5decaf15CryptoExceptionD2Ev, .-_ZN5decaf15CryptoExceptionD2Ev
	.section	.text.unlikely._ZN5decaf15CryptoExceptionD2Ev,"axG",@progbits,_ZN5decaf15CryptoExceptionD5Ev,comdat
.LCOLDE14:
	.section	.text._ZN5decaf15CryptoExceptionD2Ev,"axG",@progbits,_ZN5decaf15CryptoExceptionD5Ev,comdat
.LHOTE14:
	.weak	_ZN5decaf15CryptoExceptionD1Ev
	.hidden	_ZN5decaf15CryptoExceptionD1Ev
	.set	_ZN5decaf15CryptoExceptionD1Ev,_ZN5decaf15CryptoExceptionD2Ev
	.section	.text.unlikely._ZN5decaf15CryptoExceptionD0Ev,"axG",@progbits,_ZN5decaf15CryptoExceptionD5Ev,comdat
	.align 2
.LCOLDB15:
	.section	.text._ZN5decaf15CryptoExceptionD0Ev,"axG",@progbits,_ZN5decaf15CryptoExceptionD5Ev,comdat
.LHOTB15:
	.align 2
	.p2align 4,,15
	.weak	_ZN5decaf15CryptoExceptionD0Ev
	.hidden	_ZN5decaf15CryptoExceptionD0Ev
	.type	_ZN5decaf15CryptoExceptionD0Ev, @function
_ZN5decaf15CryptoExceptionD0Ev:
.LFB2374:
	.cfi_startproc
	leaq	16+_ZTVN5decaf15CryptoExceptionE(%rip), %rax
	pushq	%rbx
	.cfi_def_cfa_offset 16
	.cfi_offset 3, -16
	movq	%rdi, %rbx
	movq	%rax, (%rdi)
	call	_ZNSt9exceptionD2Ev@PLT
	movq	%rbx, %rdi
	popq	%rbx
	.cfi_def_cfa_offset 8
	jmp	_ZdlPv@PLT
	.cfi_endproc
.LFE2374:
	.size	_ZN5decaf15CryptoExceptionD0Ev, .-_ZN5decaf15CryptoExceptionD0Ev
	.section	.text.unlikely._ZN5decaf15CryptoExceptionD0Ev,"axG",@progbits,_ZN5decaf15CryptoExceptionD5Ev,comdat
.LCOLDE15:
	.section	.text._ZN5decaf15CryptoExceptionD0Ev,"axG",@progbits,_ZN5decaf15CryptoExceptionD5Ev,comdat
.LHOTE15:
	.section	.text.unlikely._ZN5decaf12SecureBuffer5clearEv.isra.17,"ax",@progbits
	.align 2
.LCOLDB16:
.LHOTB16:
	.align 2
	.type	_ZN5decaf12SecureBuffer5clearEv.isra.17, @function
_ZN5decaf12SecureBuffer5clearEv.isra.17:
.LFB2394:
	.cfi_startproc
	.cfi_personality 0x9b,DW.ref.__gxx_personality_v0
	.cfi_lsda 0x1b,.LLSDA2394
	pushq	%rbp
	.cfi_def_cfa_offset 16
	.cfi_offset 6, -16
	pushq	%rbx
	.cfi_def_cfa_offset 24
	.cfi_offset 3, -24
	movq	%rdi, %rbx
	pushq	%rdx
	.cfi_def_cfa_offset 32
	movq	(%rdi), %rdi
	testq	%rdi, %rdi
	je	.L30
	movq	%rsi, %rbp
	movq	(%rsi), %rsi
.LEHB0:
	call	decaf_bzero@PLT
.LEHE0:
	movq	(%rbx), %rdi
	testq	%rdi, %rdi
	je	.L20
	call	_ZdaPv@PLT
.L20:
	movq	$0, (%rbx)
	movq	$0, 0(%rbp)
	jmp	.L30
.L23:
	movq	%rax, %rdi
.L21:
	incq	%rdx
	je	.L22
	vzeroupper
.LEHB1:
	call	_Unwind_Resume@PLT
.L22:
	vzeroupper
	call	__cxa_call_unexpected@PLT
.LEHE1:
.L30:
	popq	%rax
	.cfi_def_cfa_offset 24
	popq	%rbx
	.cfi_def_cfa_offset 16
	popq	%rbp
	.cfi_def_cfa_offset 8
	ret
	.cfi_endproc
.LFE2394:
	.globl	__gxx_personality_v0
	.section	.gcc_except_table._ZN5decaf12SecureBuffer5clearEv.isra.17,"a",@progbits
	.align 4
.LLSDA2394:
	.byte	0xff
	.byte	0x9b
	.uleb128 .LLSDATT2394-.LLSDATTD2394
.LLSDATTD2394:
	.byte	0x1
	.uleb128 .LLSDACSE2394-.LLSDACSB2394
.LLSDACSB2394:
	.uleb128 .LEHB0-.LFB2394
	.uleb128 .LEHE0-.LEHB0
	.uleb128 .L23-.LFB2394
	.uleb128 0x1
	.uleb128 .LEHB1-.LFB2394
	.uleb128 .LEHE1-.LEHB1
	.uleb128 0
	.uleb128 0
.LLSDACSE2394:
	.byte	0x7f
	.byte	0
	.align 4
.LLSDATT2394:
	.byte	0
	.section	.text.unlikely._ZN5decaf12SecureBuffer5clearEv.isra.17
	.size	_ZN5decaf12SecureBuffer5clearEv.isra.17, .-_ZN5decaf12SecureBuffer5clearEv.isra.17
.LCOLDE16:
.LHOTE16:
	.section	.text.unlikely._Z13base64_encodeB5cxx11PKhj.constprop.69,"ax",@progbits
.LCOLDB17:
	.section	.text._Z13base64_encodeB5cxx11PKhj.constprop.69,"ax",@progbits
.LHOTB17:
	.p2align 4,,15
	.type	_Z13base64_encodeB5cxx11PKhj.constprop.69, @function
_Z13base64_encodeB5cxx11PKhj.constprop.69:
.LFB2440:
	.cfi_startproc
	.cfi_personality 0x9b,DW.ref.__gxx_personality_v0
	.cfi_lsda 0x1b,.LLSDA2440
	pushq	%r15
	.cfi_def_cfa_offset 16
	.cfi_offset 15, -16
	pushq	%r14
	.cfi_def_cfa_offset 24
	.cfi_offset 14, -24
	leaq	56(%rsi), %r14
	pushq	%r13
	.cfi_def_cfa_offset 32
	.cfi_offset 13, -32
	pushq	%r12
	.cfi_def_cfa_offset 40
	.cfi_offset 12, -40
	leaq	16(%rdi), %r12
	pushq	%rbp
	.cfi_def_cfa_offset 48
	.cfi_offset 6, -48
	pushq	%rbx
	.cfi_def_cfa_offset 56
	.cfi_offset 3, -56
	movq	%rsi, %rbp
	movq	%rdi, %rbx
	xorl	%r13d, %r13d
	subq	$40, %rsp
	.cfi_def_cfa_offset 96
	movq	%r12, (%rdi)
	movq	$0, 8(%rdi)
	movq	%fs:40, %rax
	movq	%rax, 24(%rsp)
	xorl	%eax, %eax
	movb	$0, 16(%rdi)
	jmp	.L34
	.p2align 4,,10
	.p2align 3
.L36:
	cmpq	%r14, %rbp
	je	.L35
.L34:
	addq	$1, %rbp
	movzbl	-1(%rbp), %edx
	movslq	%r13d, %rax
	addl	$1, %r13d
	cmpl	$3, %r13d
	movb	%dl, 16(%rsp,%rax)
	jne	.L36
	movzbl	16(%rsp), %eax
	movzbl	17(%rsp), %edx
	movq	8(%rbx), %r13
	movl	%eax, %ecx
	movl	%edx, %esi
	andl	$15, %edx
	andl	$3, %ecx
	shrb	$4, %sil
	shrb	$2, %al
	sall	$4, %ecx
	movzbl	%al, %eax
	leaq	1(%r13), %r15
	leal	(%rcx,%rsi), %edi
	movzbl	18(%rsp), %ecx
	movb	%dil, 12(%rsp)
	movl	%ecx, %esi
	andl	$63, %ecx
	shrb	$6, %sil
	movb	%cl, 14(%rsp)
	leal	(%rsi,%rdx,4), %edi
	movq	_ZL12base64_chars(%rip), %rdx
	movb	%dil, 13(%rsp)
	movzbl	(%rdx,%rax), %eax
	movb	%al, 15(%rsp)
	movq	(%rbx), %rax
	cmpq	%rax, %r12
	je	.L70
	movq	16(%rbx), %rdx
.L37:
	cmpq	%rdx, %r15
	ja	.L88
.L38:
	movzbl	15(%rsp), %edi
	movb	%dil, (%rax,%r13)
	movq	(%rbx), %rax
	movq	%r15, 8(%rbx)
	movb	$0, 1(%rax,%r13)
	movzbl	12(%rsp), %eax
	movq	_ZL12base64_chars(%rip), %rdx
	movq	8(%rbx), %r13
	movzbl	(%rdx,%rax), %eax
	leaq	1(%r13), %r15
	movb	%al, 12(%rsp)
	movq	(%rbx), %rax
	cmpq	%rax, %r12
	je	.L71
	movq	16(%rbx), %rdx
.L39:
	cmpq	%rdx, %r15
	ja	.L89
.L40:
	movzbl	12(%rsp), %edi
	movb	%dil, (%rax,%r13)
	movq	(%rbx), %rax
	movq	%r15, 8(%rbx)
	movb	$0, 1(%rax,%r13)
	movzbl	13(%rsp), %eax
	movq	_ZL12base64_chars(%rip), %rdx
	movq	8(%rbx), %r13
	movzbl	(%rdx,%rax), %eax
	leaq	1(%r13), %r15
	movb	%al, 12(%rsp)
	movq	(%rbx), %rax
	cmpq	%rax, %r12
	je	.L72
	movq	16(%rbx), %rdx
.L41:
	cmpq	%rdx, %r15
	ja	.L90
.L42:
	movzbl	12(%rsp), %edi
	movb	%dil, (%rax,%r13)
	movq	(%rbx), %rax
	movq	%r15, 8(%rbx)
	movb	$0, 1(%rax,%r13)
	movzbl	14(%rsp), %eax
	movq	_ZL12base64_chars(%rip), %rdx
	movq	8(%rbx), %r13
	movzbl	(%rdx,%rax), %eax
	leaq	1(%r13), %r15
	movb	%al, 12(%rsp)
	movq	(%rbx), %rax
	cmpq	%rax, %r12
	je	.L73
	movq	16(%rbx), %rdx
.L43:
	cmpq	%rdx, %r15
	ja	.L91
.L44:
	movzbl	12(%rsp), %edi
	movb	%dil, (%rax,%r13)
	movq	(%rbx), %rax
	movq	%r15, 8(%rbx)
	movb	$0, 1(%rax,%r13)
	xorl	%r13d, %r13d
	cmpq	%r14, %rbp
	jne	.L34
.L35:
	testl	%r13d, %r13d
	je	.L33
	cmpl	$2, %r13d
	jg	.L58
	movl	$2, %eax
	movslq	%r13d, %rdx
	subl	%r13d, %eax
	leaq	16(%rsp,%rdx), %rdx
	addq	$1, %rax
	testl	%eax, %eax
	movl	%eax, %ecx
	je	.L58
	xorl	%eax, %eax
.L56:
	movl	%eax, %esi
	addl	$1, %eax
	cmpl	%ecx, %eax
	movb	$0, (%rdx,%rsi)
	jb	.L56
.L58:
	movzbl	16(%rsp), %eax
	movzbl	17(%rsp), %edx
	movq	8(%rbx), %rbp
	movl	%eax, %ecx
	movl	%edx, %esi
	andl	$15, %edx
	andl	$3, %ecx
	shrb	$4, %sil
	shrb	$2, %al
	sall	$4, %ecx
	movzbl	%al, %eax
	leaq	1(%rbp), %r14
	addl	%ecx, %esi
	movzbl	18(%rsp), %ecx
	movb	%sil, 12(%rsp)
	movl	%ecx, %esi
	andl	$63, %ecx
	shrb	$6, %sil
	movb	%cl, 14(%rsp)
	leal	(%rsi,%rdx,4), %esi
	movq	_ZL12base64_chars(%rip), %rdx
	movb	%sil, 13(%rsp)
	movzbl	(%rdx,%rax), %r15d
	movq	(%rbx), %rax
	cmpq	%rax, %r12
	je	.L74
	movq	16(%rbx), %rdx
.L47:
	cmpq	%rdx, %r14
	ja	.L92
.L48:
	movb	%r15b, (%rax,%rbp)
	movq	(%rbx), %rax
	movq	%r14, 8(%rbx)
	movb	$0, 1(%rax,%rbp)
	movzbl	12(%rsp), %eax
	movq	_ZL12base64_chars(%rip), %rdx
	movq	8(%rbx), %rbp
	movzbl	(%rdx,%rax), %r15d
	movq	(%rbx), %rax
	leaq	1(%rbp), %r14
	cmpq	%rax, %r12
	je	.L75
	movq	16(%rbx), %rdx
.L49:
	cmpq	%rdx, %r14
	ja	.L93
.L50:
	movb	%r15b, (%rax,%rbp)
	movq	(%rbx), %rax
	cmpl	$1, %r13d
	movq	%r14, 8(%rbx)
	movb	$0, 1(%rax,%rbp)
	je	.L51
	movzbl	13(%rsp), %eax
	movq	_ZL12base64_chars(%rip), %rdx
	movq	8(%rbx), %rbp
	movzbl	(%rdx,%rax), %r15d
	movq	(%rbx), %rax
	leaq	1(%rbp), %r14
	cmpq	%rax, %r12
	je	.L76
	movq	16(%rbx), %rdx
.L52:
	cmpq	%rdx, %r14
	ja	.L94
.L53:
	movb	%r15b, (%rax,%rbp)
	movq	(%rbx), %rax
	cmpl	$2, %r13d
	movq	%r14, 8(%rbx)
	movb	$0, 1(%rax,%rbp)
	je	.L95
	movzbl	14(%rsp), %eax
	movq	_ZL12base64_chars(%rip), %rdx
	movq	8(%rbx), %rbp
	movzbl	(%rdx,%rax), %r14d
	movq	(%rbx), %rax
	leaq	1(%rbp), %r13
	cmpq	%rax, %r12
	je	.L78
	movq	16(%rbx), %rdx
.L59:
	cmpq	%rdx, %r13
	ja	.L96
.L60:
	movb	%r14b, (%rax,%rbp)
	movq	(%rbx), %rax
	movq	%r13, 8(%rbx)
	movb	$0, 1(%rax,%rbp)
.L33:
	movq	24(%rsp), %rsi
	xorq	%fs:40, %rsi
	movq	%rbx, %rax
	jne	.L97
	addq	$40, %rsp
	.cfi_remember_state
	.cfi_def_cfa_offset 56
	popq	%rbx
	.cfi_def_cfa_offset 48
	popq	%rbp
	.cfi_def_cfa_offset 40
	popq	%r12
	.cfi_def_cfa_offset 32
	popq	%r13
	.cfi_def_cfa_offset 24
	popq	%r14
	.cfi_def_cfa_offset 16
	popq	%r15
	.cfi_def_cfa_offset 8
	ret
	.p2align 4,,10
	.p2align 3
.L88:
	.cfi_restore_state
	movl	$1, %r8d
	xorl	%ecx, %ecx
	xorl	%edx, %edx
	movq	%r13, %rsi
	movq	%rbx, %rdi
.LEHB2:
	call	_ZNSt7__cxx1112basic_stringIcSt11char_traitsIcESaIcEE9_M_mutateEmmPKcm@PLT
	movq	(%rbx), %rax
	jmp	.L38
	.p2align 4,,10
	.p2align 3
.L91:
	movl	$1, %r8d
	xorl	%ecx, %ecx
	xorl	%edx, %edx
	movq	%r13, %rsi
	movq	%rbx, %rdi
	call	_ZNSt7__cxx1112basic_stringIcSt11char_traitsIcESaIcEE9_M_mutateEmmPKcm@PLT
	movq	(%rbx), %rax
	jmp	.L44
	.p2align 4,,10
	.p2align 3
.L90:
	movl	$1, %r8d
	xorl	%ecx, %ecx
	xorl	%edx, %edx
	movq	%r13, %rsi
	movq	%rbx, %rdi
	call	_ZNSt7__cxx1112basic_stringIcSt11char_traitsIcESaIcEE9_M_mutateEmmPKcm@PLT
	movq	(%rbx), %rax
	jmp	.L42
	.p2align 4,,10
	.p2align 3
.L89:
	movl	$1, %r8d
	xorl	%ecx, %ecx
	xorl	%edx, %edx
	movq	%r13, %rsi
	movq	%rbx, %rdi
	call	_ZNSt7__cxx1112basic_stringIcSt11char_traitsIcESaIcEE9_M_mutateEmmPKcm@PLT
	movq	(%rbx), %rax
	jmp	.L40
	.p2align 4,,10
	.p2align 3
.L71:
	movl	$15, %edx
	jmp	.L39
	.p2align 4,,10
	.p2align 3
.L70:
	movl	$15, %edx
	jmp	.L37
	.p2align 4,,10
	.p2align 3
.L73:
	movl	$15, %edx
	jmp	.L43
	.p2align 4,,10
	.p2align 3
.L72:
	movl	$15, %edx
	jmp	.L41
	.p2align 4,,10
	.p2align 3
.L96:
	movl	$1, %r8d
	xorl	%ecx, %ecx
	xorl	%edx, %edx
	movq	%rbp, %rsi
	movq	%rbx, %rdi
	call	_ZNSt7__cxx1112basic_stringIcSt11char_traitsIcESaIcEE9_M_mutateEmmPKcm@PLT
	movq	(%rbx), %rax
	jmp	.L60
	.p2align 4,,10
	.p2align 3
.L94:
	movl	$1, %r8d
	xorl	%ecx, %ecx
	xorl	%edx, %edx
	movq	%rbp, %rsi
	movq	%rbx, %rdi
	call	_ZNSt7__cxx1112basic_stringIcSt11char_traitsIcESaIcEE9_M_mutateEmmPKcm@PLT
	movq	(%rbx), %rax
	jmp	.L53
	.p2align 4,,10
	.p2align 3
.L93:
	movl	$1, %r8d
	xorl	%ecx, %ecx
	xorl	%edx, %edx
	movq	%rbp, %rsi
	movq	%rbx, %rdi
	call	_ZNSt7__cxx1112basic_stringIcSt11char_traitsIcESaIcEE9_M_mutateEmmPKcm@PLT
	movq	(%rbx), %rax
	jmp	.L50
	.p2align 4,,10
	.p2align 3
.L92:
	movl	$1, %r8d
	xorl	%ecx, %ecx
	xorl	%edx, %edx
	movq	%rbp, %rsi
	movq	%rbx, %rdi
	call	_ZNSt7__cxx1112basic_stringIcSt11char_traitsIcESaIcEE9_M_mutateEmmPKcm@PLT
	movq	(%rbx), %rax
	jmp	.L48
.L75:
	movl	$15, %edx
	jmp	.L49
.L76:
	movl	$15, %edx
	jmp	.L52
.L78:
	movl	$15, %edx
	jmp	.L59
.L74:
	movl	$15, %edx
	jmp	.L47
.L95:
	movl	$3, %r14d
.L54:
	movq	(%rbx), %rax
	movq	8(%rbx), %rbp
	cmpq	%rax, %r12
	leaq	1(%rbp), %r13
	je	.L79
	movq	16(%rbx), %rdx
.L62:
	cmpq	%rdx, %r13
	ja	.L98
.L63:
	movb	$61, (%rax,%rbp)
	movq	(%rbx), %rax
	cmpl	$2, %r14d
	movq	%r13, 8(%rbx)
	movb	$0, 1(%rax,%rbp)
	jne	.L33
	movq	(%rbx), %rax
	movq	8(%rbx), %rbp
	cmpq	%rax, %r12
	leaq	1(%rbp), %r13
	je	.L80
	movq	16(%rbx), %rdx
.L64:
	cmpq	%r13, %rdx
	jb	.L99
.L65:
	movb	$61, (%rax,%rbp)
	movq	(%rbx), %rax
	movq	%r13, 8(%rbx)
	movb	$0, 1(%rax,%rbp)
	jmp	.L33
	.p2align 4,,10
	.p2align 3
.L98:
	movl	$1, %r8d
	xorl	%ecx, %ecx
	xorl	%edx, %edx
	movq	%rbp, %rsi
	movq	%rbx, %rdi
	call	_ZNSt7__cxx1112basic_stringIcSt11char_traitsIcESaIcEE9_M_mutateEmmPKcm@PLT
	movq	(%rbx), %rax
	jmp	.L63
	.p2align 4,,10
	.p2align 3
.L99:
	movl	$1, %r8d
	xorl	%ecx, %ecx
	xorl	%edx, %edx
	movq	%rbp, %rsi
	movq	%rbx, %rdi
	call	_ZNSt7__cxx1112basic_stringIcSt11char_traitsIcESaIcEE9_M_mutateEmmPKcm@PLT
.LEHE2:
	movq	(%rbx), %rax
	jmp	.L65
.L80:
	movl	$15, %edx
	jmp	.L64
.L79:
	movl	$15, %edx
	jmp	.L62
.L51:
	movl	$2, %r14d
	jmp	.L54
.L81:
	movq	(%rbx), %rdi
	movq	%rax, %rbp
	cmpq	%rdi, %r12
	je	.L84
	vzeroupper
	call	_ZdlPv@PLT
.L67:
	movq	%rbp, %rdi
.LEHB3:
	call	_Unwind_Resume@PLT
.LEHE3:
.L97:
	call	__stack_chk_fail@PLT
.L84:
	vzeroupper
	jmp	.L67
	.cfi_endproc
.LFE2440:
	.section	.gcc_except_table._Z13base64_encodeB5cxx11PKhj.constprop.69,"a",@progbits
.LLSDA2440:
	.byte	0xff
	.byte	0xff
	.byte	0x1
	.uleb128 .LLSDACSE2440-.LLSDACSB2440
.LLSDACSB2440:
	.uleb128 .LEHB2-.LFB2440
	.uleb128 .LEHE2-.LEHB2
	.uleb128 .L81-.LFB2440
	.uleb128 0
	.uleb128 .LEHB3-.LFB2440
	.uleb128 .LEHE3-.LEHB3
	.uleb128 0
	.uleb128 0
.LLSDACSE2440:
	.section	.text._Z13base64_encodeB5cxx11PKhj.constprop.69
	.size	_Z13base64_encodeB5cxx11PKhj.constprop.69, .-_Z13base64_encodeB5cxx11PKhj.constprop.69
	.section	.text.unlikely._Z13base64_encodeB5cxx11PKhj.constprop.69
.LCOLDE17:
	.section	.text._Z13base64_encodeB5cxx11PKhj.constprop.69
.LHOTE17:
	.section	.text.unlikely._ZN5decaf12SecureBufferD2Ev,"axG",@progbits,_ZN5decaf12SecureBufferD5Ev,comdat
	.align 2
.LCOLDB18:
	.section	.text._ZN5decaf12SecureBufferD2Ev,"axG",@progbits,_ZN5decaf12SecureBufferD5Ev,comdat
.LHOTB18:
	.align 2
	.p2align 4,,15
	.weak	_ZN5decaf12SecureBufferD2Ev
	.hidden	_ZN5decaf12SecureBufferD2Ev
	.type	_ZN5decaf12SecureBufferD2Ev, @function
_ZN5decaf12SecureBufferD2Ev:
.LFB1801:
	.cfi_startproc
	.cfi_personality 0x9b,DW.ref.__gxx_personality_v0
	.cfi_lsda 0x1b,.LLSDA1801
	leaq	16+_ZTVN5decaf12SecureBufferE(%rip), %rcx
	movq	%rdi, %rax
	movq	%rcx, (%rdi)
	movq	8(%rdi), %rdi
	testq	%rdi, %rdi
	je	.L114
	movq	16(%rax), %rsi
	pushq	%rbx
	.cfi_def_cfa_offset 16
	.cfi_offset 3, -16
	movq	%rax, %rbx
.LEHB4:
	call	decaf_bzero@PLT
.LEHE4:
	movq	8(%rbx), %rdi
	testq	%rdi, %rdi
	je	.L111
	popq	%rbx
	.cfi_remember_state
	.cfi_restore 3
	.cfi_def_cfa_offset 8
	jmp	_ZdaPv@PLT
	.p2align 4,,10
	.p2align 3
.L111:
	.cfi_restore_state
	popq	%rbx
	.cfi_restore 3
	.cfi_def_cfa_offset 8
.L114:
	rep ret
.L104:
	.cfi_def_cfa_offset 16
	.cfi_offset 3, -16
	movq	%rax, %rdi
.L102:
	addq	$1, %rdx
	je	.L103
	vzeroupper
.LEHB5:
	call	_Unwind_Resume@PLT
.L103:
	vzeroupper
	call	__cxa_call_unexpected@PLT
.LEHE5:
	.cfi_endproc
.LFE1801:
	.section	.gcc_except_table._ZN5decaf12SecureBufferD2Ev,"aG",@progbits,_ZN5decaf12SecureBufferD5Ev,comdat
	.align 4
.LLSDA1801:
	.byte	0xff
	.byte	0x9b
	.uleb128 .LLSDATT1801-.LLSDATTD1801
.LLSDATTD1801:
	.byte	0x1
	.uleb128 .LLSDACSE1801-.LLSDACSB1801
.LLSDACSB1801:
	.uleb128 .LEHB4-.LFB1801
	.uleb128 .LEHE4-.LEHB4
	.uleb128 .L104-.LFB1801
	.uleb128 0x1
	.uleb128 .LEHB5-.LFB1801
	.uleb128 .LEHE5-.LEHB5
	.uleb128 0
	.uleb128 0
.LLSDACSE1801:
	.byte	0x7f
	.byte	0
	.align 4
.LLSDATT1801:
	.byte	0
	.section	.text._ZN5decaf12SecureBufferD2Ev,"axG",@progbits,_ZN5decaf12SecureBufferD5Ev,comdat
	.size	_ZN5decaf12SecureBufferD2Ev, .-_ZN5decaf12SecureBufferD2Ev
	.section	.text.unlikely._ZN5decaf12SecureBufferD2Ev,"axG",@progbits,_ZN5decaf12SecureBufferD5Ev,comdat
.LCOLDE18:
	.section	.text._ZN5decaf12SecureBufferD2Ev,"axG",@progbits,_ZN5decaf12SecureBufferD5Ev,comdat
.LHOTE18:
	.weak	_ZN5decaf12SecureBufferD1Ev
	.hidden	_ZN5decaf12SecureBufferD1Ev
	.set	_ZN5decaf12SecureBufferD1Ev,_ZN5decaf12SecureBufferD2Ev
	.section	.text.unlikely._ZN5decaf12SecureBufferD0Ev,"axG",@progbits,_ZN5decaf12SecureBufferD5Ev,comdat
	.align 2
.LCOLDB19:
	.section	.text._ZN5decaf12SecureBufferD0Ev,"axG",@progbits,_ZN5decaf12SecureBufferD5Ev,comdat
.LHOTB19:
	.align 2
	.p2align 4,,15
	.weak	_ZN5decaf12SecureBufferD0Ev
	.hidden	_ZN5decaf12SecureBufferD0Ev
	.type	_ZN5decaf12SecureBufferD0Ev, @function
_ZN5decaf12SecureBufferD0Ev:
.LFB1803:
	.cfi_startproc
	.cfi_personality 0x9b,DW.ref.__gxx_personality_v0
	.cfi_lsda 0x1b,.LLSDA1803
	leaq	16+_ZTVN5decaf12SecureBufferE(%rip), %rax
	pushq	%rbx
	.cfi_def_cfa_offset 16
	.cfi_offset 3, -16
	movq	%rdi, %rbx
	movq	%rax, (%rdi)
	movq	8(%rdi), %rdi
	testq	%rdi, %rdi
	je	.L116
	movq	16(%rbx), %rsi
.LEHB6:
	call	decaf_bzero@PLT
.LEHE6:
	movq	8(%rbx), %rdi
	testq	%rdi, %rdi
	je	.L116
	call	_ZdaPv@PLT
.L116:
	movq	%rbx, %rdi
	popq	%rbx
	.cfi_remember_state
	.cfi_def_cfa_offset 8
	jmp	_ZdlPv@PLT
.L119:
	.cfi_restore_state
	movq	%rax, %rdi
.L117:
	addq	$1, %rdx
	je	.L118
	vzeroupper
.LEHB7:
	call	_Unwind_Resume@PLT
.L118:
	vzeroupper
	call	__cxa_call_unexpected@PLT
.LEHE7:
	.cfi_endproc
.LFE1803:
	.section	.gcc_except_table._ZN5decaf12SecureBufferD0Ev,"aG",@progbits,_ZN5decaf12SecureBufferD5Ev,comdat
	.align 4
.LLSDA1803:
	.byte	0xff
	.byte	0x9b
	.uleb128 .LLSDATT1803-.LLSDATTD1803
.LLSDATTD1803:
	.byte	0x1
	.uleb128 .LLSDACSE1803-.LLSDACSB1803
.LLSDACSB1803:
	.uleb128 .LEHB6-.LFB1803
	.uleb128 .LEHE6-.LEHB6
	.uleb128 .L119-.LFB1803
	.uleb128 0x1
	.uleb128 .LEHB7-.LFB1803
	.uleb128 .LEHE7-.LEHB7
	.uleb128 0
	.uleb128 0
.LLSDACSE1803:
	.byte	0x7f
	.byte	0
	.align 4
.LLSDATT1803:
	.byte	0
	.section	.text._ZN5decaf12SecureBufferD0Ev,"axG",@progbits,_ZN5decaf12SecureBufferD5Ev,comdat
	.size	_ZN5decaf12SecureBufferD0Ev, .-_ZN5decaf12SecureBufferD0Ev
	.section	.text.unlikely._ZN5decaf12SecureBufferD0Ev,"axG",@progbits,_ZN5decaf12SecureBufferD5Ev,comdat
.LCOLDE19:
	.section	.text._ZN5decaf12SecureBufferD0Ev,"axG",@progbits,_ZN5decaf12SecureBufferD5Ev,comdat
.LHOTE19:
	.section	.text.unlikely._ZN5decaf5Ed4486ScalarD2Ev,"axG",@progbits,_ZN5decaf5Ed4486ScalarD5Ev,comdat
	.align 2
.LCOLDB20:
	.section	.text._ZN5decaf5Ed4486ScalarD2Ev,"axG",@progbits,_ZN5decaf5Ed4486ScalarD5Ev,comdat
.LHOTB20:
	.align 2
	.p2align 4,,15
	.weak	_ZN5decaf5Ed4486ScalarD2Ev
	.hidden	_ZN5decaf5Ed4486ScalarD2Ev
	.type	_ZN5decaf5Ed4486ScalarD2Ev, @function
_ZN5decaf5Ed4486ScalarD2Ev:
.LFB1827:
	.cfi_startproc
	.cfi_personality 0x9b,DW.ref.__gxx_personality_v0
	.cfi_lsda 0x1b,.LLSDA1827
	subq	$8, %rsp
	.cfi_def_cfa_offset 16
.LEHB8:
	call	decaf_448_scalar_destroy@PLT
.LEHE8:
	addq	$8, %rsp
	.cfi_remember_state
	.cfi_def_cfa_offset 8
	ret
.L130:
	.cfi_restore_state
	movq	%rax, %rdi
.L128:
	addq	$1, %rdx
	je	.L129
	vzeroupper
.LEHB9:
	call	_Unwind_Resume@PLT
.L129:
	vzeroupper
	call	__cxa_call_unexpected@PLT
.LEHE9:
	.cfi_endproc
.LFE1827:
	.section	.gcc_except_table._ZN5decaf5Ed4486ScalarD2Ev,"aG",@progbits,_ZN5decaf5Ed4486ScalarD5Ev,comdat
	.align 4
.LLSDA1827:
	.byte	0xff
	.byte	0x9b
	.uleb128 .LLSDATT1827-.LLSDATTD1827
.LLSDATTD1827:
	.byte	0x1
	.uleb128 .LLSDACSE1827-.LLSDACSB1827
.LLSDACSB1827:
	.uleb128 .LEHB8-.LFB1827
	.uleb128 .LEHE8-.LEHB8
	.uleb128 .L130-.LFB1827
	.uleb128 0x1
	.uleb128 .LEHB9-.LFB1827
	.uleb128 .LEHE9-.LEHB9
	.uleb128 0
	.uleb128 0
.LLSDACSE1827:
	.byte	0x7f
	.byte	0
	.align 4
.LLSDATT1827:
	.byte	0
	.section	.text._ZN5decaf5Ed4486ScalarD2Ev,"axG",@progbits,_ZN5decaf5Ed4486ScalarD5Ev,comdat
	.size	_ZN5decaf5Ed4486ScalarD2Ev, .-_ZN5decaf5Ed4486ScalarD2Ev
	.section	.text.unlikely._ZN5decaf5Ed4486ScalarD2Ev,"axG",@progbits,_ZN5decaf5Ed4486ScalarD5Ev,comdat
.LCOLDE20:
	.section	.text._ZN5decaf5Ed4486ScalarD2Ev,"axG",@progbits,_ZN5decaf5Ed4486ScalarD5Ev,comdat
.LHOTE20:
	.weak	_ZN5decaf5Ed4486ScalarD1Ev
	.hidden	_ZN5decaf5Ed4486ScalarD1Ev
	.set	_ZN5decaf5Ed4486ScalarD1Ev,_ZN5decaf5Ed4486ScalarD2Ev
	.section	.text.unlikely._ZN5decaf5Ed4485PointD2Ev,"axG",@progbits,_ZN5decaf5Ed4485PointD5Ev,comdat
	.align 2
.LCOLDB21:
	.section	.text._ZN5decaf5Ed4485PointD2Ev,"axG",@progbits,_ZN5decaf5Ed4485PointD5Ev,comdat
.LHOTB21:
	.align 2
	.p2align 4,,15
	.weak	_ZN5decaf5Ed4485PointD2Ev
	.hidden	_ZN5decaf5Ed4485PointD2Ev
	.type	_ZN5decaf5Ed4485PointD2Ev, @function
_ZN5decaf5Ed4485PointD2Ev:
.LFB1870:
	.cfi_startproc
	.cfi_personality 0x9b,DW.ref.__gxx_personality_v0
	.cfi_lsda 0x1b,.LLSDA1870
	subq	$8, %rsp
	.cfi_def_cfa_offset 16
.LEHB10:
	call	decaf_448_point_destroy@PLT
.LEHE10:
	addq	$8, %rsp
	.cfi_remember_state
	.cfi_def_cfa_offset 8
	ret
.L138:
	.cfi_restore_state
	movq	%rax, %rdi
.L136:
	addq	$1, %rdx
	je	.L137
	vzeroupper
.LEHB11:
	call	_Unwind_Resume@PLT
.L137:
	vzeroupper
	call	__cxa_call_unexpected@PLT
.LEHE11:
	.cfi_endproc
.LFE1870:
	.section	.gcc_except_table._ZN5decaf5Ed4485PointD2Ev,"aG",@progbits,_ZN5decaf5Ed4485PointD5Ev,comdat
	.align 4
.LLSDA1870:
	.byte	0xff
	.byte	0x9b
	.uleb128 .LLSDATT1870-.LLSDATTD1870
.LLSDATTD1870:
	.byte	0x1
	.uleb128 .LLSDACSE1870-.LLSDACSB1870
.LLSDACSB1870:
	.uleb128 .LEHB10-.LFB1870
	.uleb128 .LEHE10-.LEHB10
	.uleb128 .L138-.LFB1870
	.uleb128 0x1
	.uleb128 .LEHB11-.LFB1870
	.uleb128 .LEHE11-.LEHB11
	.uleb128 0
	.uleb128 0
.LLSDACSE1870:
	.byte	0x7f
	.byte	0
	.align 4
.LLSDATT1870:
	.byte	0
	.section	.text._ZN5decaf5Ed4485PointD2Ev,"axG",@progbits,_ZN5decaf5Ed4485PointD5Ev,comdat
	.size	_ZN5decaf5Ed4485PointD2Ev, .-_ZN5decaf5Ed4485PointD2Ev
	.section	.text.unlikely._ZN5decaf5Ed4485PointD2Ev,"axG",@progbits,_ZN5decaf5Ed4485PointD5Ev,comdat
.LCOLDE21:
	.section	.text._ZN5decaf5Ed4485PointD2Ev,"axG",@progbits,_ZN5decaf5Ed4485PointD5Ev,comdat
.LHOTE21:
	.weak	_ZN5decaf5Ed4485PointD1Ev
	.hidden	_ZN5decaf5Ed4485PointD1Ev
	.set	_ZN5decaf5Ed4485PointD1Ev,_ZN5decaf5Ed4485PointD2Ev
	.section	.text.unlikely._ZN5decaf12KeccakSpongeD2Ev,"axG",@progbits,_ZN5decaf12KeccakSpongeD5Ev,comdat
	.align 2
.LCOLDB22:
	.section	.text._ZN5decaf12KeccakSpongeD2Ev,"axG",@progbits,_ZN5decaf12KeccakSpongeD5Ev,comdat
.LHOTB22:
	.align 2
	.p2align 4,,15
	.weak	_ZN5decaf12KeccakSpongeD2Ev
	.hidden	_ZN5decaf12KeccakSpongeD2Ev
	.type	_ZN5decaf12KeccakSpongeD2Ev, @function
_ZN5decaf12KeccakSpongeD2Ev:
.LFB1965:
	.cfi_startproc
	.cfi_personality 0x9b,DW.ref.__gxx_personality_v0
	.cfi_lsda 0x1b,.LLSDA1965
	subq	$8, %rsp
	.cfi_def_cfa_offset 16
.LEHB12:
	call	sponge_destroy@PLT
.LEHE12:
	addq	$8, %rsp
	.cfi_remember_state
	.cfi_def_cfa_offset 8
	ret
.L146:
	.cfi_restore_state
	movq	%rax, %rdi
.L144:
	addq	$1, %rdx
	je	.L145
	vzeroupper
.LEHB13:
	call	_Unwind_Resume@PLT
.L145:
	vzeroupper
	call	__cxa_call_unexpected@PLT
.LEHE13:
	.cfi_endproc
.LFE1965:
	.section	.gcc_except_table._ZN5decaf12KeccakSpongeD2Ev,"aG",@progbits,_ZN5decaf12KeccakSpongeD5Ev,comdat
	.align 4
.LLSDA1965:
	.byte	0xff
	.byte	0x9b
	.uleb128 .LLSDATT1965-.LLSDATTD1965
.LLSDATTD1965:
	.byte	0x1
	.uleb128 .LLSDACSE1965-.LLSDACSB1965
.LLSDACSB1965:
	.uleb128 .LEHB12-.LFB1965
	.uleb128 .LEHE12-.LEHB12
	.uleb128 .L146-.LFB1965
	.uleb128 0x1
	.uleb128 .LEHB13-.LFB1965
	.uleb128 .LEHE13-.LEHB13
	.uleb128 0
	.uleb128 0
.LLSDACSE1965:
	.byte	0x7f
	.byte	0
	.align 4
.LLSDATT1965:
	.byte	0
	.section	.text._ZN5decaf12KeccakSpongeD2Ev,"axG",@progbits,_ZN5decaf12KeccakSpongeD5Ev,comdat
	.size	_ZN5decaf12KeccakSpongeD2Ev, .-_ZN5decaf12KeccakSpongeD2Ev
	.section	.text.unlikely._ZN5decaf12KeccakSpongeD2Ev,"axG",@progbits,_ZN5decaf12KeccakSpongeD5Ev,comdat
.LCOLDE22:
	.section	.text._ZN5decaf12KeccakSpongeD2Ev,"axG",@progbits,_ZN5decaf12KeccakSpongeD5Ev,comdat
.LHOTE22:
	.weak	_ZN5decaf12KeccakSpongeD1Ev
	.hidden	_ZN5decaf12KeccakSpongeD1Ev
	.set	_ZN5decaf12KeccakSpongeD1Ev,_ZN5decaf12KeccakSpongeD2Ev
	.section	.text.unlikely._Z13base64_encodeB5cxx11PKhj,"ax",@progbits
.LCOLDB23:
	.section	.text._Z13base64_encodeB5cxx11PKhj,"ax",@progbits
.LHOTB23:
	.p2align 4,,15
	.globl	_Z13base64_encodeB5cxx11PKhj
	.hidden	_Z13base64_encodeB5cxx11PKhj
	.type	_Z13base64_encodeB5cxx11PKhj, @function
_Z13base64_encodeB5cxx11PKhj:
.LFB2050:
	.cfi_startproc
	.cfi_personality 0x9b,DW.ref.__gxx_personality_v0
	.cfi_lsda 0x1b,.LLSDA2050
	pushq	%r15
	.cfi_def_cfa_offset 16
	.cfi_offset 15, -16
	pushq	%r14
	.cfi_def_cfa_offset 24
	.cfi_offset 14, -24
	xorl	%r14d, %r14d
	pushq	%r13
	.cfi_def_cfa_offset 32
	.cfi_offset 13, -32
	pushq	%r12
	.cfi_def_cfa_offset 40
	.cfi_offset 12, -40
	leaq	16(%rdi), %r12
	pushq	%rbp
	.cfi_def_cfa_offset 48
	.cfi_offset 6, -48
	pushq	%rbx
	.cfi_def_cfa_offset 56
	.cfi_offset 3, -56
	movl	%edx, %r13d
	movq	%rdi, %rbx
	movq	%rsi, %rbp
	addq	%rsi, %r13
	subq	$40, %rsp
	.cfi_def_cfa_offset 96
	movq	%r12, (%rdi)
	movq	$0, 8(%rdi)
	movq	%fs:40, %rax
	movq	%rax, 24(%rsp)
	xorl	%eax, %eax
	movb	$0, 16(%rdi)
	jmp	.L152
	.p2align 4,,10
	.p2align 3
.L154:
	movslq	%eax, %r14
.L152:
	cmpq	%r13, %rbp
	je	.L153
	addq	$1, %rbp
	movzbl	-1(%rbp), %edx
	leal	1(%r14), %eax
	cmpl	$3, %eax
	movb	%dl, 16(%rsp,%r14)
	jne	.L154
	movzbl	16(%rsp), %eax
	movzbl	17(%rsp), %edx
	movq	8(%rbx), %r14
	movl	%eax, %ecx
	movl	%edx, %esi
	andl	$15, %edx
	andl	$3, %ecx
	shrb	$4, %sil
	shrb	$2, %al
	sall	$4, %ecx
	movzbl	%al, %eax
	leaq	1(%r14), %r15
	leal	(%rcx,%rsi), %edi
	movzbl	18(%rsp), %ecx
	movb	%dil, 12(%rsp)
	movl	%ecx, %esi
	andl	$63, %ecx
	shrb	$6, %sil
	movb	%cl, 14(%rsp)
	leal	(%rsi,%rdx,4), %edi
	movq	_ZL12base64_chars(%rip), %rdx
	movb	%dil, 13(%rsp)
	movzbl	(%rdx,%rax), %eax
	movb	%al, 15(%rsp)
	movq	(%rbx), %rax
	cmpq	%rax, %r12
	je	.L187
	movq	16(%rbx), %rdx
.L155:
	cmpq	%rdx, %r15
	ja	.L205
.L156:
	movzbl	15(%rsp), %edi
	movb	%dil, (%rax,%r14)
	movq	(%rbx), %rax
	movq	%r15, 8(%rbx)
	movb	$0, 1(%rax,%r14)
	movzbl	12(%rsp), %eax
	movq	_ZL12base64_chars(%rip), %rdx
	movq	8(%rbx), %r14
	movzbl	(%rdx,%rax), %eax
	leaq	1(%r14), %r15
	movb	%al, 12(%rsp)
	movq	(%rbx), %rax
	cmpq	%rax, %r12
	je	.L188
	movq	16(%rbx), %rdx
.L157:
	cmpq	%rdx, %r15
	ja	.L206
.L158:
	movzbl	12(%rsp), %edi
	movb	%dil, (%rax,%r14)
	movq	(%rbx), %rax
	movq	%r15, 8(%rbx)
	movb	$0, 1(%rax,%r14)
	movzbl	13(%rsp), %eax
	movq	_ZL12base64_chars(%rip), %rdx
	movq	8(%rbx), %r14
	movzbl	(%rdx,%rax), %eax
	leaq	1(%r14), %r15
	movb	%al, 12(%rsp)
	movq	(%rbx), %rax
	cmpq	%rax, %r12
	je	.L189
	movq	16(%rbx), %rdx
.L159:
	cmpq	%rdx, %r15
	ja	.L207
.L160:
	movzbl	12(%rsp), %edi
	movb	%dil, (%rax,%r14)
	movq	(%rbx), %rax
	movq	%r15, 8(%rbx)
	movb	$0, 1(%rax,%r14)
	movzbl	14(%rsp), %eax
	movq	_ZL12base64_chars(%rip), %rdx
	movq	8(%rbx), %r14
	movzbl	(%rdx,%rax), %eax
	leaq	1(%r14), %r15
	movb	%al, 12(%rsp)
	movq	(%rbx), %rax
	cmpq	%rax, %r12
	je	.L190
	movq	16(%rbx), %rdx
.L161:
	cmpq	%rdx, %r15
	ja	.L208
.L162:
	movzbl	12(%rsp), %edi
	movb	%dil, (%rax,%r14)
	movq	(%rbx), %rax
	movq	%r15, 8(%rbx)
	movb	$0, 1(%rax,%r14)
	xorl	%eax, %eax
	jmp	.L154
	.p2align 4,,10
	.p2align 3
.L205:
	movl	$1, %r8d
	xorl	%ecx, %ecx
	xorl	%edx, %edx
	movq	%r14, %rsi
	movq	%rbx, %rdi
.LEHB14:
	call	_ZNSt7__cxx1112basic_stringIcSt11char_traitsIcESaIcEE9_M_mutateEmmPKcm@PLT
	movq	(%rbx), %rax
	jmp	.L156
	.p2align 4,,10
	.p2align 3
.L208:
	movl	$1, %r8d
	xorl	%ecx, %ecx
	xorl	%edx, %edx
	movq	%r14, %rsi
	movq	%rbx, %rdi
	call	_ZNSt7__cxx1112basic_stringIcSt11char_traitsIcESaIcEE9_M_mutateEmmPKcm@PLT
	movq	(%rbx), %rax
	jmp	.L162
	.p2align 4,,10
	.p2align 3
.L207:
	movl	$1, %r8d
	xorl	%ecx, %ecx
	xorl	%edx, %edx
	movq	%r14, %rsi
	movq	%rbx, %rdi
	call	_ZNSt7__cxx1112basic_stringIcSt11char_traitsIcESaIcEE9_M_mutateEmmPKcm@PLT
	movq	(%rbx), %rax
	jmp	.L160
	.p2align 4,,10
	.p2align 3
.L206:
	movl	$1, %r8d
	xorl	%ecx, %ecx
	xorl	%edx, %edx
	movq	%r14, %rsi
	movq	%rbx, %rdi
	call	_ZNSt7__cxx1112basic_stringIcSt11char_traitsIcESaIcEE9_M_mutateEmmPKcm@PLT
	movq	(%rbx), %rax
	jmp	.L158
	.p2align 4,,10
	.p2align 3
.L153:
	testl	%r14d, %r14d
	je	.L151
	cmpl	$2, %r14d
	jg	.L176
	movl	$2, %eax
	movslq	%r14d, %rdx
	subl	%r14d, %eax
	leaq	16(%rsp,%rdx), %rdx
	addq	$1, %rax
	testl	%eax, %eax
	movl	%eax, %ecx
	je	.L176
	xorl	%eax, %eax
.L174:
	movl	%eax, %esi
	addl	$1, %eax
	cmpl	%ecx, %eax
	movb	$0, (%rdx,%rsi)
	jb	.L174
.L176:
	movzbl	16(%rsp), %eax
	movzbl	17(%rsp), %edx
	movq	8(%rbx), %rbp
	movl	%eax, %ecx
	movl	%edx, %esi
	andl	$15, %edx
	andl	$3, %ecx
	shrb	$4, %sil
	shrb	$2, %al
	sall	$4, %ecx
	movzbl	%al, %eax
	leaq	1(%rbp), %r13
	addl	%ecx, %esi
	movzbl	18(%rsp), %ecx
	movb	%sil, 12(%rsp)
	movl	%ecx, %esi
	andl	$63, %ecx
	shrb	$6, %sil
	movb	%cl, 14(%rsp)
	leal	(%rsi,%rdx,4), %esi
	movq	_ZL12base64_chars(%rip), %rdx
	movb	%sil, 13(%rsp)
	movzbl	(%rdx,%rax), %r15d
	movq	(%rbx), %rax
	cmpq	%r12, %rax
	je	.L191
	movq	16(%rbx), %rdx
.L165:
	cmpq	%r13, %rdx
	jb	.L209
.L166:
	movb	%r15b, (%rax,%rbp)
	movq	(%rbx), %rax
	movq	%r13, 8(%rbx)
	movb	$0, 1(%rax,%rbp)
	movzbl	12(%rsp), %eax
	movq	_ZL12base64_chars(%rip), %rdx
	movq	8(%rbx), %rbp
	movzbl	(%rdx,%rax), %r15d
	movq	(%rbx), %rax
	leaq	1(%rbp), %r13
	cmpq	%rax, %r12
	je	.L192
	movq	16(%rbx), %rdx
.L167:
	cmpq	%rdx, %r13
	ja	.L210
.L168:
	movb	%r15b, (%rax,%rbp)
	movq	(%rbx), %rax
	cmpl	$1, %r14d
	movq	%r13, 8(%rbx)
	movb	$0, 1(%rax,%rbp)
	je	.L169
	movzbl	13(%rsp), %eax
	movq	_ZL12base64_chars(%rip), %rdx
	movq	8(%rbx), %rbp
	movzbl	(%rdx,%rax), %r15d
	movq	(%rbx), %rax
	leaq	1(%rbp), %r13
	cmpq	%rax, %r12
	je	.L193
	movq	16(%rbx), %rdx
.L170:
	cmpq	%rdx, %r13
	ja	.L211
.L171:
	movb	%r15b, (%rax,%rbp)
	movq	(%rbx), %rax
	cmpl	$2, %r14d
	movq	%r13, 8(%rbx)
	movb	$0, 1(%rax,%rbp)
	je	.L212
	movzbl	14(%rsp), %eax
	movq	_ZL12base64_chars(%rip), %rdx
	movq	8(%rbx), %rbp
	movzbl	(%rdx,%rax), %r14d
	movq	(%rbx), %rax
	leaq	1(%rbp), %r13
	cmpq	%rax, %r12
	je	.L195
	movq	16(%rbx), %rdx
.L177:
	cmpq	%rdx, %r13
	ja	.L213
.L178:
	movb	%r14b, (%rax,%rbp)
	movq	(%rbx), %rax
	movq	%r13, 8(%rbx)
	movb	$0, 1(%rax,%rbp)
.L151:
	movq	24(%rsp), %rsi
	xorq	%fs:40, %rsi
	movq	%rbx, %rax
	jne	.L214
	addq	$40, %rsp
	.cfi_remember_state
	.cfi_def_cfa_offset 56
	popq	%rbx
	.cfi_def_cfa_offset 48
	popq	%rbp
	.cfi_def_cfa_offset 40
	popq	%r12
	.cfi_def_cfa_offset 32
	popq	%r13
	.cfi_def_cfa_offset 24
	popq	%r14
	.cfi_def_cfa_offset 16
	popq	%r15
	.cfi_def_cfa_offset 8
	ret
	.p2align 4,,10
	.p2align 3
.L188:
	.cfi_restore_state
	movl	$15, %edx
	jmp	.L157
	.p2align 4,,10
	.p2align 3
.L187:
	movl	$15, %edx
	jmp	.L155
	.p2align 4,,10
	.p2align 3
.L190:
	movl	$15, %edx
	jmp	.L161
	.p2align 4,,10
	.p2align 3
.L189:
	movl	$15, %edx
	jmp	.L159
	.p2align 4,,10
	.p2align 3
.L213:
	movl	$1, %r8d
	xorl	%ecx, %ecx
	xorl	%edx, %edx
	movq	%rbp, %rsi
	movq	%rbx, %rdi
	call	_ZNSt7__cxx1112basic_stringIcSt11char_traitsIcESaIcEE9_M_mutateEmmPKcm@PLT
	movq	(%rbx), %rax
	jmp	.L178
	.p2align 4,,10
	.p2align 3
.L211:
	movl	$1, %r8d
	xorl	%ecx, %ecx
	xorl	%edx, %edx
	movq	%rbp, %rsi
	movq	%rbx, %rdi
	call	_ZNSt7__cxx1112basic_stringIcSt11char_traitsIcESaIcEE9_M_mutateEmmPKcm@PLT
	movq	(%rbx), %rax
	jmp	.L171
	.p2align 4,,10
	.p2align 3
.L210:
	movl	$1, %r8d
	xorl	%ecx, %ecx
	xorl	%edx, %edx
	movq	%rbp, %rsi
	movq	%rbx, %rdi
	call	_ZNSt7__cxx1112basic_stringIcSt11char_traitsIcESaIcEE9_M_mutateEmmPKcm@PLT
	movq	(%rbx), %rax
	jmp	.L168
	.p2align 4,,10
	.p2align 3
.L209:
	movl	$1, %r8d
	xorl	%ecx, %ecx
	xorl	%edx, %edx
	movq	%rbp, %rsi
	movq	%rbx, %rdi
	call	_ZNSt7__cxx1112basic_stringIcSt11char_traitsIcESaIcEE9_M_mutateEmmPKcm@PLT
	movq	(%rbx), %rax
	jmp	.L166
.L192:
	movl	$15, %edx
	jmp	.L167
.L193:
	movl	$15, %edx
	jmp	.L170
.L195:
	movl	$15, %edx
	jmp	.L177
.L191:
	movl	$15, %edx
	jmp	.L165
.L212:
	movl	$3, %r14d
.L172:
	movq	(%rbx), %rax
	movq	8(%rbx), %rbp
	cmpq	%rax, %r12
	leaq	1(%rbp), %r13
	je	.L196
	movq	16(%rbx), %rdx
.L180:
	cmpq	%rdx, %r13
	ja	.L215
.L181:
	movb	$61, (%rax,%rbp)
	movq	(%rbx), %rax
	cmpl	$2, %r14d
	movq	%r13, 8(%rbx)
	movb	$0, 1(%rax,%rbp)
	jne	.L151
	movq	(%rbx), %rax
	movq	8(%rbx), %rbp
	cmpq	%rax, %r12
	leaq	1(%rbp), %r13
	je	.L197
	movq	16(%rbx), %rdx
.L182:
	cmpq	%r13, %rdx
	jb	.L216
.L183:
	movb	$61, (%rax,%rbp)
	movq	(%rbx), %rax
	movq	%r13, 8(%rbx)
	movb	$0, 1(%rax,%rbp)
	jmp	.L151
	.p2align 4,,10
	.p2align 3
.L215:
	movl	$1, %r8d
	xorl	%ecx, %ecx
	xorl	%edx, %edx
	movq	%rbp, %rsi
	movq	%rbx, %rdi
	call	_ZNSt7__cxx1112basic_stringIcSt11char_traitsIcESaIcEE9_M_mutateEmmPKcm@PLT
	movq	(%rbx), %rax
	jmp	.L181
	.p2align 4,,10
	.p2align 3
.L216:
	movl	$1, %r8d
	xorl	%ecx, %ecx
	xorl	%edx, %edx
	movq	%rbp, %rsi
	movq	%rbx, %rdi
	call	_ZNSt7__cxx1112basic_stringIcSt11char_traitsIcESaIcEE9_M_mutateEmmPKcm@PLT
.LEHE14:
	movq	(%rbx), %rax
	jmp	.L183
.L197:
	movl	$15, %edx
	jmp	.L182
.L196:
	movl	$15, %edx
	jmp	.L180
.L169:
	movl	$2, %r14d
	jmp	.L172
.L198:
	movq	(%rbx), %rdi
	movq	%rax, %rbp
	cmpq	%rdi, %r12
	je	.L201
	vzeroupper
	call	_ZdlPv@PLT
.L185:
	movq	%rbp, %rdi
.LEHB15:
	call	_Unwind_Resume@PLT
.LEHE15:
.L214:
	call	__stack_chk_fail@PLT
.L201:
	vzeroupper
	jmp	.L185
	.cfi_endproc
.LFE2050:
	.section	.gcc_except_table._Z13base64_encodeB5cxx11PKhj,"a",@progbits
.LLSDA2050:
	.byte	0xff
	.byte	0xff
	.byte	0x1
	.uleb128 .LLSDACSE2050-.LLSDACSB2050
.LLSDACSB2050:
	.uleb128 .LEHB14-.LFB2050
	.uleb128 .LEHE14-.LEHB14
	.uleb128 .L198-.LFB2050
	.uleb128 0
	.uleb128 .LEHB15-.LFB2050
	.uleb128 .LEHE15-.LEHB15
	.uleb128 0
	.uleb128 0
.LLSDACSE2050:
	.section	.text._Z13base64_encodeB5cxx11PKhj
	.size	_Z13base64_encodeB5cxx11PKhj, .-_Z13base64_encodeB5cxx11PKhj
	.section	.text.unlikely._Z13base64_encodeB5cxx11PKhj
.LCOLDE23:
	.section	.text._Z13base64_encodeB5cxx11PKhj
.LHOTE23:
	.section	.text.unlikely._Z13base64_decodeRKNSt7__cxx1112basic_stringIcSt11char_traitsIcESaIcEEEPh,"ax",@progbits
.LCOLDB24:
	.section	.text._Z13base64_decodeRKNSt7__cxx1112basic_stringIcSt11char_traitsIcESaIcEEEPh,"ax",@progbits
.LHOTB24:
	.p2align 4,,15
	.globl	_Z13base64_decodeRKNSt7__cxx1112basic_stringIcSt11char_traitsIcESaIcEEEPh
	.hidden	_Z13base64_decodeRKNSt7__cxx1112basic_stringIcSt11char_traitsIcESaIcEEEPh
	.type	_Z13base64_decodeRKNSt7__cxx1112basic_stringIcSt11char_traitsIcESaIcEEEPh, @function
_Z13base64_decodeRKNSt7__cxx1112basic_stringIcSt11char_traitsIcESaIcEEEPh:
.LFB2051:
	.cfi_startproc
	pushq	%r15
	.cfi_def_cfa_offset 16
	.cfi_offset 15, -16
	pushq	%r14
	.cfi_def_cfa_offset 24
	.cfi_offset 14, -24
	movq	%rsi, %r15
	pushq	%r13
	.cfi_def_cfa_offset 32
	.cfi_offset 13, -32
	pushq	%r12
	.cfi_def_cfa_offset 40
	.cfi_offset 12, -40
	movq	%rdi, %r14
	pushq	%rbp
	.cfi_def_cfa_offset 48
	.cfi_offset 6, -48
	pushq	%rbx
	.cfi_def_cfa_offset 56
	.cfi_offset 3, -56
	xorl	%ebp, %ebp
	xorl	%ebx, %ebx
	xorl	%r12d, %r12d
	subq	$40, %rsp
	.cfi_def_cfa_offset 96
	movq	%fs:40, %rax
	movq	%rax, 24(%rsp)
	xorl	%eax, %eax
	movl	8(%rdi), %eax
	movq	%rax, (%rsp)
	leaq	16(%rsp), %rax
	movq	%rax, 8(%rsp)
	jmp	.L218
	.p2align 4,,10
	.p2align 3
.L221:
	addq	$1, %rbx
	movslq	%eax, %r12
.L218:
	cmpq	%rbx, (%rsp)
	je	.L219
	movq	(%r14), %rax
	movzbl	(%rax,%rbx), %r13d
	cmpb	$61, %r13b
	je	.L219
	movzbl	%r13b, %edi
	call	isalnum@PLT
	testl	%eax, %eax
	jne	.L220
	movl	%r13d, %eax
	andl	$-5, %eax
	cmpb	$43, %al
	jne	.L219
.L220:
	leal	1(%r12), %eax
	movb	%r13b, 16(%rsp,%r12)
	cmpl	$4, %eax
	jne	.L221
	movq	8(%rsp), %rax
	leaq	4(%rax), %r12
	movq	%rax, %r13
.L222:
	movsbl	0(%r13), %esi
	leaq	_ZL12base64_chars(%rip), %rdi
	xorl	%edx, %edx
	addq	$1, %r13
	call	_ZNKSt7__cxx1112basic_stringIcSt11char_traitsIcESaIcEE4findEcm@PLT
	movb	%al, -1(%r13)
	cmpq	%r12, %r13
	jne	.L222
	movzbl	17(%rsp), %ecx
	movzbl	18(%rsp), %eax
	movl	%ebp, %r8d
	movl	%ecx, %edx
	movl	%eax, %esi
	andl	$60, %eax
	andl	$48, %edx
	sarl	$2, %eax
	sall	$4, %ecx
	movl	%edx, %edi
	movzbl	16(%rsp), %edx
	leal	(%rcx,%rax), %eax
	sarl	$4, %edi
	sall	$6, %esi
	addb	19(%rsp), %sil
	leal	(%rdi,%rdx,4), %edx
	leal	1(%rbp), %edi
	movb	%dl, (%r15,%r8)
	movb	%al, (%r15,%rdi)
	leal	2(%rbp), %eax
	addl	$3, %ebp
	movb	%sil, (%r15,%rax)
	xorl	%eax, %eax
	jmp	.L221
	.p2align 4,,10
	.p2align 3
.L219:
	testl	%r12d, %r12d
	je	.L217
	cmpl	$3, %r12d
	jg	.L248
	movl	$3, %eax
	leaq	16(%rsp), %rbx
	movslq	%r12d, %rdx
	subl	%r12d, %eax
	addq	$1, %rax
	addq	%rbx, %rdx
	testl	%eax, %eax
	movl	%eax, %ecx
	je	.L228
	xorl	%eax, %eax
.L226:
	movl	%eax, %esi
	addl	$1, %eax
	cmpl	%ecx, %eax
	movb	$0, (%rdx,%rsi)
	jb	.L226
.L228:
	leaq	4(%rbx), %r13
.L225:
	movsbl	(%rbx), %esi
	leaq	_ZL12base64_chars(%rip), %rdi
	xorl	%edx, %edx
	addq	$1, %rbx
	call	_ZNKSt7__cxx1112basic_stringIcSt11char_traitsIcESaIcEE4findEcm@PLT
	movb	%al, -1(%rbx)
	cmpq	%r13, %rbx
	jne	.L225
	movzbl	17(%rsp), %ecx
	movzbl	16(%rsp), %edx
	movl	%ecx, %eax
	sall	$4, %ecx
	andl	$48, %eax
	sarl	$4, %eax
	leal	(%rax,%rdx,4), %esi
	movzbl	18(%rsp), %eax
	movl	%eax, %edx
	sall	$6, %eax
	addb	19(%rsp), %al
	andl	$60, %edx
	sarl	$2, %edx
	addl	%ecx, %edx
	subl	$1, %r12d
	je	.L217
	movl	%ebp, %ecx
	cmpl	$1, %r12d
	movb	%sil, (%r15,%rcx)
	leal	1(%rbp), %ecx
	je	.L217
	addl	$2, %ebp
	cmpl	$2, %r12d
	movb	%dl, (%r15,%rcx)
	je	.L217
	movb	%al, (%r15,%rbp)
	.p2align 4,,10
	.p2align 3
.L217:
	movq	24(%rsp), %rax
	xorq	%fs:40, %rax
	jne	.L249
	addq	$40, %rsp
	.cfi_remember_state
	.cfi_def_cfa_offset 56
	popq	%rbx
	.cfi_def_cfa_offset 48
	popq	%rbp
	.cfi_def_cfa_offset 40
	popq	%r12
	.cfi_def_cfa_offset 32
	popq	%r13
	.cfi_def_cfa_offset 24
	popq	%r14
	.cfi_def_cfa_offset 16
	popq	%r15
	.cfi_def_cfa_offset 8
	ret
	.p2align 4,,10
	.p2align 3
.L248:
	.cfi_restore_state
	leaq	16(%rsp), %rbx
	jmp	.L228
.L249:
	call	__stack_chk_fail@PLT
	.cfi_endproc
.LFE2051:
	.size	_Z13base64_decodeRKNSt7__cxx1112basic_stringIcSt11char_traitsIcESaIcEEEPh, .-_Z13base64_decodeRKNSt7__cxx1112basic_stringIcSt11char_traitsIcESaIcEEEPh
	.section	.text.unlikely._Z13base64_decodeRKNSt7__cxx1112basic_stringIcSt11char_traitsIcESaIcEEEPh
.LCOLDE24:
	.section	.text._Z13base64_decodeRKNSt7__cxx1112basic_stringIcSt11char_traitsIcESaIcEEEPh
.LHOTE24:
	.section	.text.unlikely._Z10gen_randomPci,"ax",@progbits
.LCOLDB25:
	.section	.text._Z10gen_randomPci,"ax",@progbits
.LHOTB25:
	.p2align 4,,15
	.globl	_Z10gen_randomPci
	.hidden	_Z10gen_randomPci
	.type	_Z10gen_randomPci, @function
_Z10gen_randomPci:
.LFB2053:
	.cfi_startproc
	pushq	%r15
	.cfi_def_cfa_offset 16
	.cfi_offset 15, -16
	pushq	%r14
	.cfi_def_cfa_offset 24
	.cfi_offset 14, -24
	pushq	%r13
	.cfi_def_cfa_offset 32
	.cfi_offset 13, -32
	pushq	%r12
	.cfi_def_cfa_offset 40
	.cfi_offset 12, -40
	movq	%rdi, %r13
	pushq	%rbp
	.cfi_def_cfa_offset 48
	.cfi_offset 6, -48
	pushq	%rbx
	.cfi_def_cfa_offset 56
	.cfi_offset 3, -56
	xorl	%edi, %edi
	movslq	%esi, %r12
	subq	$8, %rsp
	.cfi_def_cfa_offset 64
	call	time@PLT
	movl	%eax, %edi
	call	srand@PLT
	cmpl	$1, %r12d
	jle	.L252
	leal	-2(%r12), %eax
	leaq	_ZZ10gen_randomPciE8alphanum(%rip), %r15
	movq	%r13, %r14
	movabsq	$-8925843906633654007, %rbx
	leaq	1(%r13,%rax), %rbp
	.p2align 4,,10
	.p2align 3
.L253:
	call	rand@PLT
	movslq	%eax, %rcx
	addq	$1, %r14
	movq	%rcx, %rdx
	shrq	%rdx
	movq	%rdx, %rax
	mulq	%rbx
	shrq	$4, %rdx
	movq	%rdx, %rsi
	leaq	(%rcx,%rdx,2), %rax
	salq	$6, %rsi
	subq	%rsi, %rax
	movzbl	(%r15,%rax), %eax
	movb	%al, -1(%r14)
	cmpq	%rbp, %r14
	jne	.L253
.L252:
	movb	$0, -1(%r13,%r12)
	addq	$8, %rsp
	.cfi_def_cfa_offset 56
	popq	%rbx
	.cfi_def_cfa_offset 48
	popq	%rbp
	.cfi_def_cfa_offset 40
	popq	%r12
	.cfi_def_cfa_offset 32
	popq	%r13
	.cfi_def_cfa_offset 24
	popq	%r14
	.cfi_def_cfa_offset 16
	popq	%r15
	.cfi_def_cfa_offset 8
	ret
	.cfi_endproc
.LFE2053:
	.size	_Z10gen_randomPci, .-_Z10gen_randomPci
	.section	.text.unlikely._Z10gen_randomPci
.LCOLDE25:
	.section	.text._Z10gen_randomPci
.LHOTE25:
	.section	.text.unlikely._Z7encryptRN5decaf5Ed4485PointERKNS_5BlockERKNS0_6ScalarES8_i,"ax",@progbits
.LCOLDB26:
	.section	.text._Z7encryptRN5decaf5Ed4485PointERKNS_5BlockERKNS0_6ScalarES8_i,"ax",@progbits
.LHOTB26:
	.p2align 4,,15
	.globl	_Z7encryptRN5decaf5Ed4485PointERKNS_5BlockERKNS0_6ScalarES8_i
	.hidden	_Z7encryptRN5decaf5Ed4485PointERKNS_5BlockERKNS0_6ScalarES8_i
	.type	_Z7encryptRN5decaf5Ed4485PointERKNS_5BlockERKNS0_6ScalarES8_i, @function
_Z7encryptRN5decaf5Ed4485PointERKNS_5BlockERKNS0_6ScalarES8_i:
.LFB2054:
	.cfi_startproc
	.cfi_personality 0x9b,DW.ref.__gxx_personality_v0
	.cfi_lsda 0x1b,.LLSDA2054
	leaq	8(%rsp), %r10
	.cfi_def_cfa 10, 0
	andq	$-32, %rsp
	pushq	-8(%r10)
	pushq	%rbp
	.cfi_escape 0x10,0x6,0x2,0x76,0
	movq	%rsp, %rbp
	pushq	%r15
	pushq	%r14
	pushq	%r13
	pushq	%r12
	.cfi_escape 0x10,0xf,0x2,0x76,0x78
	.cfi_escape 0x10,0xe,0x2,0x76,0x70
	.cfi_escape 0x10,0xd,0x2,0x76,0x68
	.cfi_escape 0x10,0xc,0x2,0x76,0x60
	leaq	-336(%rbp), %r12
	pushq	%r10
	.cfi_escape 0xf,0x3,0x76,0x58,0x6
	pushq	%rbx
	movq	%rsi, %r15
	movl	$2147483648, %esi
	movq	%rcx, %r13
	.cfi_escape 0x10,0x3,0x2,0x76,0x50
	movl	%r8d, %ebx
	subq	$1440, %rsp
	movq	%rdi, -1464(%rbp)
	movq	%r12, %rdi
	movq	%rdx, -1472(%rbp)
	movq	%fs:40, %rax
	movq	%rax, -56(%rbp)
	xorl	%eax, %eax
.LEHB16:
	call	decaf_448_scalar_set@PLT
.LEHE16:
	movslq	%ebx, %rsi
	leaq	-592(%rbp), %rbx
	movl	$2147483648, %eax
	addq	%rax, %rsi
	movq	%rbx, %rdi
.LEHB17:
	call	decaf_448_scalar_set@PLT
.LEHE17:
	movq	%r12, %rdx
	movq	%rbx, %rsi
	movq	%rbx, %rdi
.LEHB18:
	call	decaf_448_scalar_sub@PLT
.LEHE18:
	movq	%r12, %rdi
.LEHB19:
	call	decaf_448_scalar_destroy@PLT
.LEHE19:
	leaq	-1376(%rbp), %rax
	movq	%rbx, %rdx
	movq	%r13, %rsi
	movq	%rax, %rdi
	movq	%rax, -1448(%rbp)
.LEHB20:
	call	decaf_448_scalar_add@PLT
.LEHE20:
	movq	%rbx, %rdi
.LEHB21:
	call	decaf_448_scalar_destroy@PLT
.LEHE21:
	leaq	-1312(%rbp), %r14
	movq	SHAKE256_params_s@GOTPCREL(%rip), %rsi
	movq	%r14, %rdi
.LEHB22:
	call	sponge_init@PLT
.LEHE22:
	leaq	16+_ZTVN5decaf12SecureBufferE(%rip), %rax
	movl	$56, %edi
	movq	$0, -1400(%rbp)
	movq	$56, -1392(%rbp)
	movq	%rax, -1408(%rbp)
.LEHB23:
	call	_Znam@PLT
.LEHE23:
	leaq	8(%rax), %rdi
	movq	%rax, %rcx
	movq	%rax, -1400(%rbp)
	movq	%rax, %rdx
	movq	$0, (%rax)
	movq	$0, 48(%rax)
	andq	$-8, %rdi
	xorl	%eax, %eax
	subq	%rdi, %rcx
	addl	$56, %ecx
	shrl	$3, %ecx
	rep stosq
	movq	%rdx, %rdi
	movq	-1448(%rbp), %rsi
.LEHB24:
	call	decaf_448_scalar_encode@PLT
.LEHE24:
	movq	-1392(%rbp), %rdx
	movq	-1400(%rbp), %rsi
	movq	%r14, %rdi
.LEHB25:
	call	sha3_update@PLT
.LEHE25:
	movq	-1400(%rbp), %rdi
	leaq	16+_ZTVN5decaf12SecureBufferE(%rip), %rax
	movq	%rax, -1408(%rbp)
	testq	%rdi, %rdi
	je	.L280
	movq	-1392(%rbp), %rsi
.LEHB26:
	call	decaf_bzero@PLT
.LEHE26:
	movq	-1400(%rbp), %rdi
	testq	%rdi, %rdi
	je	.L280
	call	_ZdaPv@PLT
.L280:
	leaq	16+_ZTVN5decaf12SecureBufferE(%rip), %rax
	movl	$56, %edi
	movq	$0, -1432(%rbp)
	movq	$56, -1424(%rbp)
	movq	%rax, -1440(%rbp)
.LEHB27:
	call	_Znam@PLT
.LEHE27:
	leaq	8(%rax), %rdi
	movq	%rax, %rcx
	movq	%rax, -1432(%rbp)
	movq	%rax, %rsi
	movq	$0, (%rax)
	movq	$0, 48(%rax)
	andq	$-8, %rdi
	xorl	%eax, %eax
	movl	$56, %edx
	subq	%rdi, %rcx
	addl	$56, %ecx
	shrl	$3, %ecx
	rep stosq
	movq	%r14, %rdi
.LEHB28:
	call	sha3_output@PLT
.LEHE28:
	movq	-1424(%rbp), %rax
	cmpq	$55, %rax
	jbe	.L479
	cmpq	$56, %rax
	je	.L480
	cmpq	$111, %rax
	jbe	.L481
	leaq	-1104(%rbp), %rax
	movq	-1432(%rbp), %rsi
	movq	%rax, %rdi
	movq	%rax, -1456(%rbp)
.LEHB29:
	call	decaf_448_point_from_hash_uniform@PLT
.LEHE29:
.L289:
	movq	16(%r15), %rax
	leaq	-848(%rbp), %r13
	movq	decaf_448_point_identity@GOTPCREL(%rip), %rsi
	movl	$32, %ecx
	movq	%r13, %rdi
	cmpq	$55, %rax
	rep movsq
	jbe	.L482
	cmpq	$56, %rax
	je	.L483
	cmpq	$111, %rax
	ja	.L309
	leaq	16+_ZTVN5decaf12SecureBufferE(%rip), %rax
	movl	$112, %edi
	movq	$0, -1400(%rbp)
	movq	$112, -1392(%rbp)
	movq	%rax, -1408(%rbp)
.LEHB30:
	call	_Znam@PLT
.LEHE30:
	leaq	8(%rax), %rdi
	movq	%rax, %rcx
	movq	%rax, -1400(%rbp)
	movq	%rax, %r8
	movq	$0, (%rax)
	movq	$0, 104(%rax)
	andq	$-8, %rdi
	xorl	%eax, %eax
	subq	%rdi, %rcx
	addl	$112, %ecx
	shrl	$3, %ecx
	rep stosq
	movq	%r8, %rdi
	movq	8(%r15), %rsi
	movq	16(%r15), %rdx
	call	memcpy@PLT
	movq	%r13, %rdi
	movq	%rax, %rsi
.LEHB31:
	call	decaf_448_point_from_hash_uniform@PLT
.LEHE31:
	movq	-1400(%rbp), %rdi
	movl	%eax, %r15d
	leaq	16+_ZTVN5decaf12SecureBufferE(%rip), %rax
	movq	%rax, -1408(%rbp)
	testq	%rdi, %rdi
	je	.L305
	movq	-1392(%rbp), %rsi
.LEHB32:
	call	decaf_bzero@PLT
.LEHE32:
.L445:
	movq	-1400(%rbp), %rdi
	testq	%rdi, %rdi
	je	.L305
	call	_ZdaPv@PLT
.L305:
	movq	-1472(%rbp), %rdx
	movq	-1456(%rbp), %rsi
	movq	%rbx, %rdi
.LEHB33:
	call	decaf_448_point_scalarmul@PLT
.LEHE33:
	movq	%rbx, %rdx
	movq	%r13, %rsi
	movq	%r12, %rdi
.LEHB34:
	call	decaf_448_point_add@PLT
.LEHE34:
	movl	$32, %ecx
	movq	-1464(%rbp), %rdi
	movq	%r12, %rsi
	rep movsq
	leaq	-336(%rbp), %rdi
.LEHB35:
	call	decaf_448_point_destroy@PLT
.LEHE35:
	movq	%rbx, %rdi
.LEHB36:
	call	decaf_448_point_destroy@PLT
.LEHE36:
	movq	%r13, %rdi
.LEHB37:
	call	decaf_448_point_destroy@PLT
.LEHE37:
	movq	-1456(%rbp), %rdi
.LEHB38:
	call	decaf_448_point_destroy@PLT
.LEHE38:
	movq	-1432(%rbp), %rdi
	leaq	16+_ZTVN5decaf12SecureBufferE(%rip), %rax
	movq	%rax, -1440(%rbp)
	testq	%rdi, %rdi
	je	.L332
	movq	-1424(%rbp), %rsi
.LEHB39:
	call	decaf_bzero@PLT
.LEHE39:
	movq	-1432(%rbp), %rdi
	testq	%rdi, %rdi
	je	.L332
	call	_ZdaPv@PLT
.L332:
	movq	%r14, %rdi
.LEHB40:
	call	sponge_destroy@PLT
.LEHE40:
	movq	-1448(%rbp), %rdi
.LEHB41:
	call	decaf_448_scalar_destroy@PLT
.LEHE41:
	movq	-56(%rbp), %rbx
	xorq	%fs:40, %rbx
	movl	%r15d, %eax
	jne	.L484
	addq	$1440, %rsp
	popq	%rbx
	popq	%r10
	.cfi_remember_state
	.cfi_def_cfa 10, 0
	popq	%r12
	popq	%r13
	popq	%r14
	popq	%r15
	popq	%rbp
	leaq	-8(%r10), %rsp
	.cfi_def_cfa 7, 8
	ret
	.p2align 4,,10
	.p2align 3
.L481:
	.cfi_restore_state
	leaq	16+_ZTVN5decaf12SecureBufferE(%rip), %rax
	movl	$112, %edi
	movq	$0, -1400(%rbp)
	movq	$112, -1392(%rbp)
	movq	%rax, -1408(%rbp)
.LEHB42:
	call	_Znam@PLT
.LEHE42:
	leaq	8(%rax), %rdi
	movq	%rax, %rcx
	movq	%rax, -1400(%rbp)
	movq	%rax, %r8
	movq	$0, (%rax)
	movq	$0, 104(%rax)
	andq	$-8, %rdi
	xorl	%eax, %eax
	subq	%rdi, %rcx
	addl	$112, %ecx
	shrl	$3, %ecx
	rep stosq
	movq	%r8, %rdi
	movq	-1432(%rbp), %rsi
	movq	-1424(%rbp), %rdx
	call	memcpy@PLT
	movq	%rax, %r8
	leaq	-1104(%rbp), %rax
	movq	%r8, %rsi
	movq	%rax, %rdi
	movq	%rax, -1456(%rbp)
.LEHB43:
	call	decaf_448_point_from_hash_uniform@PLT
.LEHE43:
	movq	-1400(%rbp), %rdi
	leaq	16+_ZTVN5decaf12SecureBufferE(%rip), %rax
	movq	%rax, -1408(%rbp)
	testq	%rdi, %rdi
	je	.L289
	movq	-1392(%rbp), %rsi
.LEHB44:
	call	decaf_bzero@PLT
.LEHE44:
.L443:
	movq	-1400(%rbp), %rdi
	testq	%rdi, %rdi
	je	.L289
	call	_ZdaPv@PLT
	jmp	.L289
	.p2align 4,,10
	.p2align 3
.L309:
	movq	8(%r15), %rsi
	movq	%r13, %rdi
.LEHB45:
	call	decaf_448_point_from_hash_uniform@PLT
.L435:
	movl	%eax, %r15d
	jmp	.L305
	.p2align 4,,10
	.p2align 3
.L482:
	leaq	16+_ZTVN5decaf12SecureBufferE(%rip), %rax
	movl	$56, %edi
	movq	$0, -1400(%rbp)
	movq	$56, -1392(%rbp)
	movq	%rax, -1408(%rbp)
	call	_Znam@PLT
.LEHE45:
	leaq	8(%rax), %rdi
	movq	%rax, %rcx
	movq	%rax, -1400(%rbp)
	movq	%rax, %r8
	movq	$0, (%rax)
	movq	$0, 48(%rax)
	andq	$-8, %rdi
	xorl	%eax, %eax
	subq	%rdi, %rcx
	addl	$56, %ecx
	shrl	$3, %ecx
	rep stosq
	movq	%r8, %rdi
	movq	8(%r15), %rsi
	movq	16(%r15), %rdx
	call	memcpy@PLT
	movq	%r13, %rdi
	movq	%rax, %rsi
.LEHB46:
	call	decaf_448_point_from_hash_nonuniform@PLT
.LEHE46:
	movq	-1400(%rbp), %rdi
	movl	%eax, %r15d
	leaq	16+_ZTVN5decaf12SecureBufferE(%rip), %rax
	movq	%rax, -1408(%rbp)
	testq	%rdi, %rdi
	je	.L305
	movq	-1392(%rbp), %rsi
.LEHB47:
	call	decaf_bzero@PLT
.LEHE47:
	jmp	.L445
	.p2align 4,,10
	.p2align 3
.L479:
	leaq	16+_ZTVN5decaf12SecureBufferE(%rip), %rax
	movl	$56, %edi
	movq	$0, -1400(%rbp)
	movq	$56, -1392(%rbp)
	movq	%rax, -1408(%rbp)
.LEHB48:
	call	_Znam@PLT
.LEHE48:
	leaq	8(%rax), %rdi
	movq	%rax, %rcx
	movq	%rax, -1400(%rbp)
	movq	%rax, %r8
	movq	$0, (%rax)
	movq	$0, 48(%rax)
	andq	$-8, %rdi
	xorl	%eax, %eax
	subq	%rdi, %rcx
	addl	$56, %ecx
	shrl	$3, %ecx
	rep stosq
	movq	%r8, %rdi
	movq	-1432(%rbp), %rsi
	movq	-1424(%rbp), %rdx
	call	memcpy@PLT
	movq	%rax, %r8
	leaq	-1104(%rbp), %rax
	movq	%r8, %rsi
	movq	%rax, %rdi
	movq	%rax, -1456(%rbp)
.LEHB49:
	call	decaf_448_point_from_hash_nonuniform@PLT
.LEHE49:
	movq	-1400(%rbp), %rdi
	leaq	16+_ZTVN5decaf12SecureBufferE(%rip), %rax
	movq	%rax, -1408(%rbp)
	testq	%rdi, %rdi
	je	.L289
	movq	-1392(%rbp), %rsi
.LEHB50:
	call	decaf_bzero@PLT
.LEHE50:
	jmp	.L443
	.p2align 4,,10
	.p2align 3
.L483:
	movq	8(%r15), %rsi
	movq	%r13, %rdi
.LEHB51:
	call	decaf_448_point_from_hash_nonuniform@PLT
.LEHE51:
	jmp	.L435
	.p2align 4,,10
	.p2align 3
.L480:
	leaq	-1104(%rbp), %rax
	movq	-1432(%rbp), %rsi
	movq	%rax, %rdi
	movq	%rax, -1456(%rbp)
.LEHB52:
	call	decaf_448_point_from_hash_nonuniform@PLT
.LEHE52:
	jmp	.L289
.L484:
	call	__stack_chk_fail@PLT
.L349:
	movq	%rax, %rbx
	leaq	16+_ZTVN5decaf12SecureBufferE(%rip), %rax
	movq	%rdx, %r12
	movq	%rax, -1408(%rbp)
	leaq	-1408(%rbp), %rax
	leaq	16(%rax), %rsi
	leaq	8(%rax), %rdi
	vzeroupper
	call	_ZN5decaf12SecureBuffer5clearEv.isra.17
	leaq	16+_ZTVN5decaf5BlockE(%rip), %rax
	movq	%rbx, %rdi
	movq	%r12, %rdx
	movq	%rax, -1408(%rbp)
.L315:
	addq	$1, %rdx
	je	.L440
.L441:
.LEHB53:
	call	_Unwind_Resume@PLT
.L348:
.L463:
	movq	%rax, %rdi
	vzeroupper
	jmp	.L315
.L343:
	vzeroupper
.L440:
	call	__cxa_call_unexpected@PLT
.L350:
.L447:
	addq	$1, %rdx
	movq	%rax, %rdi
	je	.L343
	vzeroupper
	call	_Unwind_Resume@PLT
.LEHE53:
.L351:
	jmp	.L447
.L352:
	movq	-1448(%rbp), %rdi
	movq	%rax, %rbx
	movq	%rdx, %r12
	vzeroupper
	call	_ZN5decaf5Ed4486ScalarD1Ev
	addq	$1, %r12
	movq	%rbx, %rdi
	jne	.L441
	jmp	.L440
.L355:
	jmp	.L447
.L356:
	jmp	.L447
.L353:
	movq	%rax, %rbx
	movq	%rdx, %r13
	movq	%r12, %rdi
	vzeroupper
	call	_ZN5decaf5Ed4486ScalarD1Ev
	addq	$1, %r13
	movq	%rbx, %rdi
	jne	.L441
	jmp	.L440
.L357:
	movq	%rax, %rbx
	leaq	16+_ZTVN5decaf12SecureBufferE(%rip), %rax
	movq	%rax, -1440(%rbp)
	leaq	-1440(%rbp), %rax
	leaq	16(%rax), %rsi
	leaq	8(%rax), %rdi
	vzeroupper
	call	_ZN5decaf12SecureBuffer5clearEv.isra.17
	leaq	16+_ZTVN5decaf5BlockE(%rip), %rax
	movq	%rax, -1440(%rbp)
.L286:
	movq	%r14, %rdi
	call	_ZN5decaf12KeccakSpongeD2Ev
	movq	-1448(%rbp), %rdi
	call	_ZN5decaf5Ed4486ScalarD1Ev
	movq	%rbx, %rdi
	jmp	.L441
.L347:
	movq	%rax, %rbx
	vzeroupper
	jmp	.L286
.L358:
	jmp	.L447
.L346:
	movq	%rax, %rbx
	leaq	16+_ZTVN5decaf12SecureBufferE(%rip), %rax
	movq	%rax, -1408(%rbp)
	leaq	-1408(%rbp), %rax
	leaq	16(%rax), %rsi
	leaq	8(%rax), %rdi
	vzeroupper
	call	_ZN5decaf12SecureBuffer5clearEv.isra.17
	jmp	.L286
.L376:
	jmp	.L447
.L373:
.L436:
	movq	%rax, %rbx
	leaq	16+_ZTVN5decaf12SecureBufferE(%rip), %rax
	movq	%rdx, %r12
	movq	%rax, -1408(%rbp)
	leaq	-1408(%rbp), %rax
	leaq	16(%rax), %rsi
	leaq	8(%rax), %rdi
	vzeroupper
	call	_ZN5decaf12SecureBuffer5clearEv.isra.17
	movq	%rbx, %rdi
	movq	%r12, %rdx
	jmp	.L315
.L354:
	jmp	.L447
.L371:
	jmp	.L463
.L368:
	jmp	.L463
.L369:
	jmp	.L436
.L377:
	jmp	.L447
.L367:
	movq	%rax, %r12
	movq	%rdx, %r13
	movq	%rbx, %rdi
	vzeroupper
	call	_ZN5decaf5Ed4485PointD1Ev
	addq	$1, %r13
	movq	%r12, %rdi
	jne	.L441
	jmp	.L440
.L366:
	movq	%rax, %rbx
	movq	%rdx, %r13
	movq	%r12, %rdi
	vzeroupper
	call	_ZN5decaf5Ed4485PointD1Ev
	addq	$1, %r13
	movq	%rbx, %rdi
	jne	.L441
	jmp	.L440
.L365:
	jmp	.L447
.L364:
	jmp	.L447
.L363:
	jmp	.L447
.L362:
	jmp	.L447
.L361:
	jmp	.L447
.L360:
	jmp	.L447
.L359:
	jmp	.L447
.L375:
	jmp	.L447
.L370:
	jmp	.L436
.L372:
	jmp	.L436
.L374:
	jmp	.L447
	.cfi_endproc
.LFE2054:
	.section	.gcc_except_table._Z7encryptRN5decaf5Ed4485PointERKNS_5BlockERKNS0_6ScalarES8_i,"a",@progbits
	.align 4
.LLSDA2054:
	.byte	0xff
	.byte	0x9b
	.uleb128 .LLSDATT2054-.LLSDATTD2054
.LLSDATTD2054:
	.byte	0x1
	.uleb128 .LLSDACSE2054-.LLSDACSB2054
.LLSDACSB2054:
	.uleb128 .LEHB16-.LFB2054
	.uleb128 .LEHE16-.LEHB16
	.uleb128 .L354-.LFB2054
	.uleb128 0x1
	.uleb128 .LEHB17-.LFB2054
	.uleb128 .LEHE17-.LEHB17
	.uleb128 .L353-.LFB2054
	.uleb128 0x3
	.uleb128 .LEHB18-.LFB2054
	.uleb128 .LEHE18-.LEHB18
	.uleb128 .L356-.LFB2054
	.uleb128 0x1
	.uleb128 .LEHB19-.LFB2054
	.uleb128 .LEHE19-.LEHB19
	.uleb128 .L355-.LFB2054
	.uleb128 0x1
	.uleb128 .LEHB20-.LFB2054
	.uleb128 .LEHE20-.LEHB20
	.uleb128 .L352-.LFB2054
	.uleb128 0x3
	.uleb128 .LEHB21-.LFB2054
	.uleb128 .LEHE21-.LEHB21
	.uleb128 .L351-.LFB2054
	.uleb128 0x1
	.uleb128 .LEHB22-.LFB2054
	.uleb128 .LEHE22-.LEHB22
	.uleb128 .L350-.LFB2054
	.uleb128 0x1
	.uleb128 .LEHB23-.LFB2054
	.uleb128 .LEHE23-.LEHB23
	.uleb128 .L348-.LFB2054
	.uleb128 0x1
	.uleb128 .LEHB24-.LFB2054
	.uleb128 .LEHE24-.LEHB24
	.uleb128 .L349-.LFB2054
	.uleb128 0x3
	.uleb128 .LEHB25-.LFB2054
	.uleb128 .LEHE25-.LEHB25
	.uleb128 .L346-.LFB2054
	.uleb128 0
	.uleb128 .LEHB26-.LFB2054
	.uleb128 .LEHE26-.LEHB26
	.uleb128 .L358-.LFB2054
	.uleb128 0x1
	.uleb128 .LEHB27-.LFB2054
	.uleb128 .LEHE27-.LEHB27
	.uleb128 .L347-.LFB2054
	.uleb128 0
	.uleb128 .LEHB28-.LFB2054
	.uleb128 .LEHE28-.LEHB28
	.uleb128 .L357-.LFB2054
	.uleb128 0
	.uleb128 .LEHB29-.LFB2054
	.uleb128 .LEHE29-.LEHB29
	.uleb128 .L371-.LFB2054
	.uleb128 0x1
	.uleb128 .LEHB30-.LFB2054
	.uleb128 .LEHE30-.LEHB30
	.uleb128 .L368-.LFB2054
	.uleb128 0x1
	.uleb128 .LEHB31-.LFB2054
	.uleb128 .LEHE31-.LEHB31
	.uleb128 .L369-.LFB2054
	.uleb128 0x3
	.uleb128 .LEHB32-.LFB2054
	.uleb128 .LEHE32-.LEHB32
	.uleb128 .L377-.LFB2054
	.uleb128 0x1
	.uleb128 .LEHB33-.LFB2054
	.uleb128 .LEHE33-.LEHB33
	.uleb128 .L367-.LFB2054
	.uleb128 0x3
	.uleb128 .LEHB34-.LFB2054
	.uleb128 .LEHE34-.LEHB34
	.uleb128 .L366-.LFB2054
	.uleb128 0x3
	.uleb128 .LEHB35-.LFB2054
	.uleb128 .LEHE35-.LEHB35
	.uleb128 .L365-.LFB2054
	.uleb128 0x1
	.uleb128 .LEHB36-.LFB2054
	.uleb128 .LEHE36-.LEHB36
	.uleb128 .L364-.LFB2054
	.uleb128 0x1
	.uleb128 .LEHB37-.LFB2054
	.uleb128 .LEHE37-.LEHB37
	.uleb128 .L363-.LFB2054
	.uleb128 0x1
	.uleb128 .LEHB38-.LFB2054
	.uleb128 .LEHE38-.LEHB38
	.uleb128 .L362-.LFB2054
	.uleb128 0x1
	.uleb128 .LEHB39-.LFB2054
	.uleb128 .LEHE39-.LEHB39
	.uleb128 .L361-.LFB2054
	.uleb128 0x1
	.uleb128 .LEHB40-.LFB2054
	.uleb128 .LEHE40-.LEHB40
	.uleb128 .L360-.LFB2054
	.uleb128 0x1
	.uleb128 .LEHB41-.LFB2054
	.uleb128 .LEHE41-.LEHB41
	.uleb128 .L359-.LFB2054
	.uleb128 0x1
	.uleb128 .LEHB42-.LFB2054
	.uleb128 .LEHE42-.LEHB42
	.uleb128 .L371-.LFB2054
	.uleb128 0x1
	.uleb128 .LEHB43-.LFB2054
	.uleb128 .LEHE43-.LEHB43
	.uleb128 .L372-.LFB2054
	.uleb128 0x3
	.uleb128 .LEHB44-.LFB2054
	.uleb128 .LEHE44-.LEHB44
	.uleb128 .L375-.LFB2054
	.uleb128 0x1
	.uleb128 .LEHB45-.LFB2054
	.uleb128 .LEHE45-.LEHB45
	.uleb128 .L368-.LFB2054
	.uleb128 0x1
	.uleb128 .LEHB46-.LFB2054
	.uleb128 .LEHE46-.LEHB46
	.uleb128 .L370-.LFB2054
	.uleb128 0x3
	.uleb128 .LEHB47-.LFB2054
	.uleb128 .LEHE47-.LEHB47
	.uleb128 .L376-.LFB2054
	.uleb128 0x1
	.uleb128 .LEHB48-.LFB2054
	.uleb128 .LEHE48-.LEHB48
	.uleb128 .L371-.LFB2054
	.uleb128 0x1
	.uleb128 .LEHB49-.LFB2054
	.uleb128 .LEHE49-.LEHB49
	.uleb128 .L373-.LFB2054
	.uleb128 0x3
	.uleb128 .LEHB50-.LFB2054
	.uleb128 .LEHE50-.LEHB50
	.uleb128 .L374-.LFB2054
	.uleb128 0x1
	.uleb128 .LEHB51-.LFB2054
	.uleb128 .LEHE51-.LEHB51
	.uleb128 .L368-.LFB2054
	.uleb128 0x1
	.uleb128 .LEHB52-.LFB2054
	.uleb128 .LEHE52-.LEHB52
	.uleb128 .L371-.LFB2054
	.uleb128 0x1
	.uleb128 .LEHB53-.LFB2054
	.uleb128 .LEHE53-.LEHB53
	.uleb128 0
	.uleb128 0
.LLSDACSE2054:
	.byte	0x7f
	.byte	0
	.byte	0
	.byte	0x7d
	.align 4
.LLSDATT2054:
	.byte	0
	.section	.text._Z7encryptRN5decaf5Ed4485PointERKNS_5BlockERKNS0_6ScalarES8_i
	.size	_Z7encryptRN5decaf5Ed4485PointERKNS_5BlockERKNS0_6ScalarES8_i, .-_Z7encryptRN5decaf5Ed4485PointERKNS_5BlockERKNS0_6ScalarES8_i
	.section	.text.unlikely._Z7encryptRN5decaf5Ed4485PointERKNS_5BlockERKNS0_6ScalarES8_i
.LCOLDE26:
	.section	.text._Z7encryptRN5decaf5Ed4485PointERKNS_5BlockERKNS0_6ScalarES8_i
.LHOTE26:
	.section	.text.unlikely._Z7decryptRN5decaf12SecureBufferENS_5Ed4485PointERKNS2_6ScalarES6_ih,"ax",@progbits
.LCOLDB27:
	.section	.text._Z7decryptRN5decaf12SecureBufferENS_5Ed4485PointERKNS2_6ScalarES6_ih,"ax",@progbits
.LHOTB27:
	.p2align 4,,15
	.globl	_Z7decryptRN5decaf12SecureBufferENS_5Ed4485PointERKNS2_6ScalarES6_ih
	.hidden	_Z7decryptRN5decaf12SecureBufferENS_5Ed4485PointERKNS2_6ScalarES6_ih
	.type	_Z7decryptRN5decaf12SecureBufferENS_5Ed4485PointERKNS2_6ScalarES6_ih, @function
_Z7decryptRN5decaf12SecureBufferENS_5Ed4485PointERKNS2_6ScalarES6_ih:
.LFB2061:
	.cfi_startproc
	.cfi_personality 0x9b,DW.ref.__gxx_personality_v0
	.cfi_lsda 0x1b,.LLSDA2061
	leaq	8(%rsp), %r10
	.cfi_def_cfa 10, 0
	andq	$-32, %rsp
	pushq	-8(%r10)
	pushq	%rbp
	.cfi_escape 0x10,0x6,0x2,0x76,0
	movq	%rsp, %rbp
	pushq	%r15
	pushq	%r14
	pushq	%r13
	pushq	%r12
	.cfi_escape 0x10,0xf,0x2,0x76,0x78
	.cfi_escape 0x10,0xe,0x2,0x76,0x70
	.cfi_escape 0x10,0xd,0x2,0x76,0x68
	.cfi_escape 0x10,0xc,0x2,0x76,0x60
	leaq	-432(%rbp), %r12
	pushq	%r10
	.cfi_escape 0xf,0x3,0x76,0x58,0x6
	pushq	%rbx
	movq	%rdi, %r13
	movq	%r12, %rdi
	movq	%rcx, %r14
	.cfi_escape 0x10,0x3,0x2,0x76,0x50
	movl	%r8d, %ebx
	subq	$1280, %rsp
	movq	%rsi, -1296(%rbp)
	movl	$2147483648, %esi
	movq	%rdx, -1304(%rbp)
	movl	%r9d, -1308(%rbp)
	movq	%fs:40, %rax
	movq	%rax, -56(%rbp)
	xorl	%eax, %eax
.LEHB54:
	call	decaf_448_scalar_set@PLT
.LEHE54:
	movslq	%ebx, %rsi
	leaq	-688(%rbp), %rbx
	movl	$2147483648, %eax
	addq	%rax, %rsi
	movq	%rbx, %rdi
.LEHB55:
	call	decaf_448_scalar_set@PLT
.LEHE55:
	movq	%r12, %rdx
	movq	%rbx, %rsi
	movq	%rbx, %rdi
.LEHB56:
	call	decaf_448_scalar_sub@PLT
.LEHE56:
	movq	%r12, %rdi
.LEHB57:
	call	decaf_448_scalar_destroy@PLT
.LEHE57:
	leaq	-1216(%rbp), %r15
	movq	%rbx, %rdx
	movq	%r14, %rsi
	movq	%r15, %rdi
.LEHB58:
	call	decaf_448_scalar_add@PLT
.LEHE58:
	movq	%rbx, %rdi
.LEHB59:
	call	decaf_448_scalar_destroy@PLT
.LEHE59:
	leaq	-1152(%rbp), %r14
	movq	SHAKE256_params_s@GOTPCREL(%rip), %rsi
	movq	%r14, %rdi
.LEHB60:
	call	sponge_init@PLT
.LEHE60:
	leaq	16+_ZTVN5decaf12SecureBufferE(%rip), %rax
	movl	$56, %edi
	movq	$0, -1240(%rbp)
	movq	$56, -1232(%rbp)
	movq	%rax, -1248(%rbp)
.LEHB61:
	call	_Znam@PLT
.LEHE61:
	leaq	8(%rax), %rdi
	movq	%rax, %rcx
	movq	%rax, -1240(%rbp)
	movq	%rax, %rdx
	movq	$0, (%rax)
	movq	$0, 48(%rax)
	andq	$-8, %rdi
	xorl	%eax, %eax
	movq	%r15, %rsi
	subq	%rdi, %rcx
	addl	$56, %ecx
	shrl	$3, %ecx
	rep stosq
	movq	%rdx, %rdi
.LEHB62:
	call	decaf_448_scalar_encode@PLT
.LEHE62:
	movq	-1232(%rbp), %rdx
	movq	-1240(%rbp), %rsi
	movq	%r14, %rdi
.LEHB63:
	call	sha3_update@PLT
.LEHE63:
	movq	-1240(%rbp), %rdi
	leaq	16+_ZTVN5decaf12SecureBufferE(%rip), %rax
	movq	%rax, -1248(%rbp)
	testq	%rdi, %rdi
	je	.L508
	movq	-1232(%rbp), %rsi
.LEHB64:
	call	decaf_bzero@PLT
.LEHE64:
	movq	-1240(%rbp), %rdi
	testq	%rdi, %rdi
	je	.L508
	call	_ZdaPv@PLT
.L508:
	leaq	16+_ZTVN5decaf12SecureBufferE(%rip), %rax
	movl	$56, %edi
	movq	$0, -1272(%rbp)
	movq	$56, -1264(%rbp)
	movq	%rax, -1280(%rbp)
.LEHB65:
	call	_Znam@PLT
.LEHE65:
	leaq	8(%rax), %rdi
	movq	%rax, %rcx
	movq	%rax, -1272(%rbp)
	movq	%rax, %rsi
	movq	$0, (%rax)
	movq	$0, 48(%rax)
	andq	$-8, %rdi
	xorl	%eax, %eax
	movl	$56, %edx
	subq	%rdi, %rcx
	addl	$56, %ecx
	shrl	$3, %ecx
	rep stosq
	movq	%r14, %rdi
.LEHB66:
	call	sha3_output@PLT
.LEHE66:
	movq	-1264(%rbp), %rax
	cmpq	$55, %rax
	jbe	.L685
	cmpq	$56, %rax
	je	.L686
	cmpq	$111, %rax
	jbe	.L687
	leaq	-944(%rbp), %rax
	movq	-1272(%rbp), %rsi
	movq	%rax, %rdi
	movq	%rax, -1288(%rbp)
.LEHB67:
	call	decaf_448_point_from_hash_uniform@PLT
.LEHE67:
.L517:
	movq	-1304(%rbp), %rdx
	movq	-1288(%rbp), %rsi
	movq	%r12, %rdi
.LEHB68:
	call	decaf_448_point_scalarmul@PLT
.LEHE68:
	movq	-1296(%rbp), %rsi
	movq	%r12, %rdx
	movq	%rbx, %rdi
.LEHB69:
	call	decaf_448_point_sub@PLT
.LEHE69:
	movq	%r12, %rdi
.LEHB70:
	call	decaf_448_point_destroy@PLT
.LEHE70:
	movq	16(%r13), %r8
	leaq	-176(%rbp), %r12
	xorl	%eax, %eax
	movl	$14, %ecx
	movq	%r12, %rdi
	cmpq	$112, %r8
	rep stosq
	ja	.L688
	movq	8(%r13), %rsi
	movq	%r8, %rdx
	movl	$112, %ecx
	movq	%r12, %rdi
	movq	%r8, -1296(%rbp)
	call	__memcpy_chk@PLT
	movq	-1296(%rbp), %r8
	cmpq	$56, %r8
	ja	.L570
	movzbl	-1308(%rbp), %edx
	movq	%rbx, %rsi
	movq	%r12, %rdi
.LEHB71:
	call	decaf_448_invert_elligator_nonuniform@PLT
	movq	16(%r13), %rdi
	cmpq	$55, %rdi
	jbe	.L689
.L542:
	movl	$56, %edx
.L544:
	cmpl	$8, %edx
	movq	8(%r13), %rcx
	movl	%edx, %eax
	jnb	.L545
	andl	$4, %edx
	jne	.L690
	testl	%eax, %eax
	je	.L546
	movzbl	(%r12), %edx
	testb	$2, %al
	movb	%dl, (%rcx)
	jne	.L691
.L546:
	movl	$112, %esi
	movq	%r12, %rdi
	call	decaf_bzero@PLT
.LEHE71:
	movq	%rbx, %rdi
.LEHB72:
	call	decaf_448_point_destroy@PLT
.LEHE72:
	movq	-1288(%rbp), %rdi
.LEHB73:
	call	decaf_448_point_destroy@PLT
.LEHE73:
	movq	-1272(%rbp), %rdi
	leaq	16+_ZTVN5decaf12SecureBufferE(%rip), %rax
	movq	%rax, -1280(%rbp)
	testq	%rdi, %rdi
	je	.L557
	movq	-1264(%rbp), %rsi
.LEHB74:
	call	decaf_bzero@PLT
.LEHE74:
	movq	-1272(%rbp), %rdi
	testq	%rdi, %rdi
	je	.L557
	call	_ZdaPv@PLT
.L557:
	movq	%r14, %rdi
.LEHB75:
	call	sponge_destroy@PLT
.LEHE75:
	movq	%r15, %rdi
.LEHB76:
	call	decaf_448_scalar_destroy@PLT
.LEHE76:
	movq	-56(%rbp), %rax
	xorq	%fs:40, %rax
	jne	.L692
	addq	$1280, %rsp
	popq	%rbx
	popq	%r10
	.cfi_remember_state
	.cfi_def_cfa 10, 0
	popq	%r12
	popq	%r13
	popq	%r14
	popq	%r15
	popq	%rbp
	leaq	-8(%r10), %rsp
	.cfi_def_cfa 7, 8
	ret
	.p2align 4,,10
	.p2align 3
.L687:
	.cfi_restore_state
	leaq	16+_ZTVN5decaf12SecureBufferE(%rip), %rax
	movl	$112, %edi
	movq	$0, -1240(%rbp)
	movq	$112, -1232(%rbp)
	movq	%rax, -1248(%rbp)
.LEHB77:
	call	_Znam@PLT
.LEHE77:
	leaq	8(%rax), %rdi
	movq	%rax, %rcx
	movq	%rax, -1240(%rbp)
	movq	%rax, %r8
	movq	$0, (%rax)
	movq	$0, 104(%rax)
	andq	$-8, %rdi
	xorl	%eax, %eax
	subq	%rdi, %rcx
	addl	$112, %ecx
	shrl	$3, %ecx
	rep stosq
	movq	%r8, %rdi
	movq	-1272(%rbp), %rsi
	movq	-1264(%rbp), %rdx
	call	memcpy@PLT
	movq	%rax, %r8
	leaq	-944(%rbp), %rax
	movq	%r8, %rsi
	movq	%rax, %rdi
	movq	%rax, -1288(%rbp)
.LEHB78:
	call	decaf_448_point_from_hash_uniform@PLT
.LEHE78:
	movq	-1240(%rbp), %rdi
	leaq	16+_ZTVN5decaf12SecureBufferE(%rip), %rax
	movq	%rax, -1248(%rbp)
	testq	%rdi, %rdi
	je	.L517
	movq	-1232(%rbp), %rsi
.LEHB79:
	call	decaf_bzero@PLT
.LEHE79:
.L654:
	movq	-1240(%rbp), %rdi
	testq	%rdi, %rdi
	je	.L517
	call	_ZdaPv@PLT
	jmp	.L517
	.p2align 4,,10
	.p2align 3
.L545:
	movq	-176(%rbp), %rax
	movq	%r12, %rdi
	movq	%rax, (%rcx)
	movl	%edx, %eax
	movq	-8(%r12,%rax), %rsi
	movq	%rsi, -8(%rcx,%rax)
	leaq	8(%rcx), %rsi
	andq	$-8, %rsi
	subq	%rsi, %rcx
	leal	(%rdx,%rcx), %eax
	subq	%rcx, %rdi
	andl	$-8, %eax
	cmpl	$8, %eax
	jb	.L546
	andl	$-8, %eax
	xorl	%edx, %edx
.L549:
	movl	%edx, %ecx
	addl	$8, %edx
	movq	(%rdi,%rcx), %r8
	cmpl	%eax, %edx
	movq	%r8, (%rsi,%rcx)
	jb	.L549
	jmp	.L546
	.p2align 4,,10
	.p2align 3
.L688:
	movq	8(%r13), %rax
	movq	(%rax), %rdx
	movq	%rdx, -176(%rbp)
	movq	8(%rax), %rdx
	movq	%rdx, -168(%rbp)
	movq	16(%rax), %rdx
	movq	%rdx, -160(%rbp)
	movq	24(%rax), %rdx
	movq	%rdx, -152(%rbp)
	movq	32(%rax), %rdx
	movq	%rdx, -144(%rbp)
	movq	40(%rax), %rdx
	movq	%rdx, -136(%rbp)
	movq	48(%rax), %rdx
	movq	%rdx, -128(%rbp)
	movq	56(%rax), %rdx
	movq	%rdx, -120(%rbp)
	movq	64(%rax), %rdx
	movq	%rdx, -112(%rbp)
	movq	72(%rax), %rdx
	movq	%rdx, -104(%rbp)
	movq	80(%rax), %rdx
	movq	%rdx, -96(%rbp)
	movq	88(%rax), %rdx
	movq	%rdx, -88(%rbp)
	movq	96(%rax), %rdx
	movq	%rdx, -80(%rbp)
	movq	104(%rax), %rax
	movq	%rax, -72(%rbp)
.L570:
	movzbl	-1308(%rbp), %edx
	movq	%rbx, %rsi
	movq	%r12, %rdi
.LEHB80:
	call	decaf_448_invert_elligator_uniform@PLT
	movq	16(%r13), %rdi
	cmpq	$55, %rdi
	ja	.L542
.L689:
	movl	$56, %edx
	leaq	56(%r12), %rsi
	subq	%rdi, %rdx
	addq	%r12, %rdi
	call	decaf_memeq@PLT
.LEHE80:
	movq	16(%r13), %rdx
	cmpq	$55, %rdx
	jbe	.L544
	jmp	.L542
	.p2align 4,,10
	.p2align 3
.L685:
	leaq	16+_ZTVN5decaf12SecureBufferE(%rip), %rax
	movl	$56, %edi
	movq	$0, -1240(%rbp)
	movq	$56, -1232(%rbp)
	movq	%rax, -1248(%rbp)
.LEHB81:
	call	_Znam@PLT
.LEHE81:
	leaq	8(%rax), %rdi
	movq	%rax, %rcx
	movq	%rax, -1240(%rbp)
	movq	%rax, %r8
	movq	$0, (%rax)
	movq	$0, 48(%rax)
	andq	$-8, %rdi
	xorl	%eax, %eax
	subq	%rdi, %rcx
	addl	$56, %ecx
	shrl	$3, %ecx
	rep stosq
	movq	%r8, %rdi
	movq	-1272(%rbp), %rsi
	movq	-1264(%rbp), %rdx
	call	memcpy@PLT
	movq	%rax, %r8
	leaq	-944(%rbp), %rax
	movq	%r8, %rsi
	movq	%rax, %rdi
	movq	%rax, -1288(%rbp)
.LEHB82:
	call	decaf_448_point_from_hash_nonuniform@PLT
.LEHE82:
	movq	-1240(%rbp), %rdi
	leaq	16+_ZTVN5decaf12SecureBufferE(%rip), %rax
	movq	%rax, -1248(%rbp)
	testq	%rdi, %rdi
	je	.L517
	movq	-1232(%rbp), %rsi
.LEHB83:
	call	decaf_bzero@PLT
.LEHE83:
	jmp	.L654
	.p2align 4,,10
	.p2align 3
.L686:
	leaq	-944(%rbp), %rax
	movq	-1272(%rbp), %rsi
	movq	%rax, %rdi
	movq	%rax, -1288(%rbp)
.LEHB84:
	call	decaf_448_point_from_hash_nonuniform@PLT
.LEHE84:
	jmp	.L517
	.p2align 4,,10
	.p2align 3
.L690:
	movl	(%r12), %edx
	movl	%edx, (%rcx)
	movl	%eax, %edx
	movl	-4(%r12,%rdx), %eax
	movl	%eax, -4(%rcx,%rdx)
	jmp	.L546
	.p2align 4,,10
	.p2align 3
.L691:
	movl	%eax, %edx
	movzwl	-2(%r12,%rdx), %eax
	movw	%ax, -2(%rcx,%rdx)
	jmp	.L546
.L692:
	call	__stack_chk_fail@PLT
.L585:
.L656:
	addq	$1, %rdx
	movq	%rax, %rdi
	je	.L568
	vzeroupper
.LEHB85:
	call	_Unwind_Resume@PLT
.L595:
.L647:
	movq	%rax, %rbx
	leaq	16+_ZTVN5decaf12SecureBufferE(%rip), %rax
	movq	%rdx, %r12
	movq	%rax, -1248(%rbp)
	leaq	-1248(%rbp), %rax
	leaq	16(%rax), %rsi
	leaq	8(%rax), %rdi
	vzeroupper
	call	_ZN5decaf12SecureBuffer5clearEv.isra.17
	movq	%rbx, %rdi
	movq	%r12, %rdx
.L528:
	addq	$1, %rdx
	je	.L651
.L652:
	call	_Unwind_Resume@PLT
.L598:
	jmp	.L656
.L568:
	vzeroupper
.L651:
	call	__cxa_call_unexpected@PLT
.LEHE85:
.L575:
	movq	%rax, %rbx
	leaq	16+_ZTVN5decaf12SecureBufferE(%rip), %rax
	movq	%rdx, %r12
	movq	%rax, -1248(%rbp)
	leaq	-1248(%rbp), %rax
	leaq	16(%rax), %rsi
	leaq	8(%rax), %rdi
	vzeroupper
	call	_ZN5decaf12SecureBuffer5clearEv.isra.17
	leaq	16+_ZTVN5decaf5BlockE(%rip), %rax
	movq	%rbx, %rdi
	movq	%r12, %rdx
	movq	%rax, -1248(%rbp)
	jmp	.L528
.L574:
.L670:
	movq	%rax, %rdi
	vzeroupper
	jmp	.L528
.L576:
	jmp	.L656
.L577:
	jmp	.L656
.L578:
	movq	%rax, %rbx
	movq	%rdx, %r12
	movq	%r15, %rdi
	vzeroupper
	call	_ZN5decaf5Ed4486ScalarD1Ev
	addq	$1, %r12
	movq	%rbx, %rdi
	jne	.L652
	jmp	.L651
.L581:
	jmp	.L656
.L582:
	jmp	.L656
.L579:
	movq	%rax, %rbx
	movq	%rdx, %r13
	movq	%r12, %rdi
	vzeroupper
	call	_ZN5decaf5Ed4486ScalarD1Ev
	addq	$1, %r13
	movq	%rbx, %rdi
	jne	.L652
	jmp	.L651
.L583:
	movq	%rax, %rbx
	leaq	16+_ZTVN5decaf12SecureBufferE(%rip), %rax
	movq	%rax, -1280(%rbp)
	leaq	-1280(%rbp), %rax
	leaq	16(%rax), %rsi
	leaq	8(%rax), %rdi
	vzeroupper
	call	_ZN5decaf12SecureBuffer5clearEv.isra.17
	leaq	16+_ZTVN5decaf5BlockE(%rip), %rax
	movq	%rax, -1280(%rbp)
.L514:
	movq	%r14, %rdi
	call	_ZN5decaf12KeccakSpongeD2Ev
	movq	%r15, %rdi
	call	_ZN5decaf5Ed4486ScalarD1Ev
	movq	%rbx, %rdi
	jmp	.L652
.L573:
	movq	%rax, %rbx
	vzeroupper
	jmp	.L514
.L584:
	jmp	.L656
.L572:
	movq	%rax, %rbx
	leaq	16+_ZTVN5decaf12SecureBufferE(%rip), %rax
	movq	%rax, -1248(%rbp)
	leaq	-1248(%rbp), %rax
	leaq	16(%rax), %rsi
	leaq	8(%rax), %rdi
	vzeroupper
	call	_ZN5decaf12SecureBuffer5clearEv.isra.17
	jmp	.L514
.L591:
	jmp	.L656
.L590:
	jmp	.L656
.L596:
	jmp	.L647
.L597:
	jmp	.L656
.L580:
	jmp	.L656
.L594:
	jmp	.L670
.L593:
	movq	%rax, %rbx
	movq	%rdx, %r13
	movq	%r12, %rdi
	vzeroupper
	call	_ZN5decaf5Ed4485PointD1Ev
	addq	$1, %r13
	movq	%rbx, %rdi
	jne	.L652
	jmp	.L651
.L592:
	movq	%rax, %r12
	movq	%rdx, %r13
	movq	%rbx, %rdi
	vzeroupper
	call	_ZN5decaf5Ed4485PointD1Ev
	addq	$1, %r13
	movq	%r12, %rdi
	jne	.L652
	jmp	.L651
.L589:
	jmp	.L656
.L588:
	jmp	.L656
.L587:
	jmp	.L656
.L586:
	jmp	.L656
	.cfi_endproc
.LFE2061:
	.section	.gcc_except_table._Z7decryptRN5decaf12SecureBufferENS_5Ed4485PointERKNS2_6ScalarES6_ih,"a",@progbits
	.align 4
.LLSDA2061:
	.byte	0xff
	.byte	0x9b
	.uleb128 .LLSDATT2061-.LLSDATTD2061
.LLSDATTD2061:
	.byte	0x1
	.uleb128 .LLSDACSE2061-.LLSDACSB2061
.LLSDACSB2061:
	.uleb128 .LEHB54-.LFB2061
	.uleb128 .LEHE54-.LEHB54
	.uleb128 .L580-.LFB2061
	.uleb128 0x1
	.uleb128 .LEHB55-.LFB2061
	.uleb128 .LEHE55-.LEHB55
	.uleb128 .L579-.LFB2061
	.uleb128 0x3
	.uleb128 .LEHB56-.LFB2061
	.uleb128 .LEHE56-.LEHB56
	.uleb128 .L582-.LFB2061
	.uleb128 0x1
	.uleb128 .LEHB57-.LFB2061
	.uleb128 .LEHE57-.LEHB57
	.uleb128 .L581-.LFB2061
	.uleb128 0x1
	.uleb128 .LEHB58-.LFB2061
	.uleb128 .LEHE58-.LEHB58
	.uleb128 .L578-.LFB2061
	.uleb128 0x3
	.uleb128 .LEHB59-.LFB2061
	.uleb128 .LEHE59-.LEHB59
	.uleb128 .L577-.LFB2061
	.uleb128 0x1
	.uleb128 .LEHB60-.LFB2061
	.uleb128 .LEHE60-.LEHB60
	.uleb128 .L576-.LFB2061
	.uleb128 0x1
	.uleb128 .LEHB61-.LFB2061
	.uleb128 .LEHE61-.LEHB61
	.uleb128 .L574-.LFB2061
	.uleb128 0x1
	.uleb128 .LEHB62-.LFB2061
	.uleb128 .LEHE62-.LEHB62
	.uleb128 .L575-.LFB2061
	.uleb128 0x3
	.uleb128 .LEHB63-.LFB2061
	.uleb128 .LEHE63-.LEHB63
	.uleb128 .L572-.LFB2061
	.uleb128 0
	.uleb128 .LEHB64-.LFB2061
	.uleb128 .LEHE64-.LEHB64
	.uleb128 .L584-.LFB2061
	.uleb128 0x1
	.uleb128 .LEHB65-.LFB2061
	.uleb128 .LEHE65-.LEHB65
	.uleb128 .L573-.LFB2061
	.uleb128 0
	.uleb128 .LEHB66-.LFB2061
	.uleb128 .LEHE66-.LEHB66
	.uleb128 .L583-.LFB2061
	.uleb128 0
	.uleb128 .LEHB67-.LFB2061
	.uleb128 .LEHE67-.LEHB67
	.uleb128 .L594-.LFB2061
	.uleb128 0x1
	.uleb128 .LEHB68-.LFB2061
	.uleb128 .LEHE68-.LEHB68
	.uleb128 .L593-.LFB2061
	.uleb128 0x3
	.uleb128 .LEHB69-.LFB2061
	.uleb128 .LEHE69-.LEHB69
	.uleb128 .L592-.LFB2061
	.uleb128 0x3
	.uleb128 .LEHB70-.LFB2061
	.uleb128 .LEHE70-.LEHB70
	.uleb128 .L591-.LFB2061
	.uleb128 0x1
	.uleb128 .LEHB71-.LFB2061
	.uleb128 .LEHE71-.LEHB71
	.uleb128 .L590-.LFB2061
	.uleb128 0x1
	.uleb128 .LEHB72-.LFB2061
	.uleb128 .LEHE72-.LEHB72
	.uleb128 .L589-.LFB2061
	.uleb128 0x1
	.uleb128 .LEHB73-.LFB2061
	.uleb128 .LEHE73-.LEHB73
	.uleb128 .L588-.LFB2061
	.uleb128 0x1
	.uleb128 .LEHB74-.LFB2061
	.uleb128 .LEHE74-.LEHB74
	.uleb128 .L587-.LFB2061
	.uleb128 0x1
	.uleb128 .LEHB75-.LFB2061
	.uleb128 .LEHE75-.LEHB75
	.uleb128 .L586-.LFB2061
	.uleb128 0x1
	.uleb128 .LEHB76-.LFB2061
	.uleb128 .LEHE76-.LEHB76
	.uleb128 .L585-.LFB2061
	.uleb128 0x1
	.uleb128 .LEHB77-.LFB2061
	.uleb128 .LEHE77-.LEHB77
	.uleb128 .L594-.LFB2061
	.uleb128 0x1
	.uleb128 .LEHB78-.LFB2061
	.uleb128 .LEHE78-.LEHB78
	.uleb128 .L595-.LFB2061
	.uleb128 0x3
	.uleb128 .LEHB79-.LFB2061
	.uleb128 .LEHE79-.LEHB79
	.uleb128 .L598-.LFB2061
	.uleb128 0x1
	.uleb128 .LEHB80-.LFB2061
	.uleb128 .LEHE80-.LEHB80
	.uleb128 .L590-.LFB2061
	.uleb128 0x1
	.uleb128 .LEHB81-.LFB2061
	.uleb128 .LEHE81-.LEHB81
	.uleb128 .L594-.LFB2061
	.uleb128 0x1
	.uleb128 .LEHB82-.LFB2061
	.uleb128 .LEHE82-.LEHB82
	.uleb128 .L596-.LFB2061
	.uleb128 0x3
	.uleb128 .LEHB83-.LFB2061
	.uleb128 .LEHE83-.LEHB83
	.uleb128 .L597-.LFB2061
	.uleb128 0x1
	.uleb128 .LEHB84-.LFB2061
	.uleb128 .LEHE84-.LEHB84
	.uleb128 .L594-.LFB2061
	.uleb128 0x1
	.uleb128 .LEHB85-.LFB2061
	.uleb128 .LEHE85-.LEHB85
	.uleb128 0
	.uleb128 0
.LLSDACSE2061:
	.byte	0x7f
	.byte	0
	.byte	0
	.byte	0x7d
	.align 4
.LLSDATT2061:
	.byte	0
	.section	.text._Z7decryptRN5decaf12SecureBufferENS_5Ed4485PointERKNS2_6ScalarES6_ih
	.size	_Z7decryptRN5decaf12SecureBufferENS_5Ed4485PointERKNS2_6ScalarES6_ih, .-_Z7decryptRN5decaf12SecureBufferENS_5Ed4485PointERKNS2_6ScalarES6_ih
	.section	.text.unlikely._Z7decryptRN5decaf12SecureBufferENS_5Ed4485PointERKNS2_6ScalarES6_ih
.LCOLDE27:
	.section	.text._Z7decryptRN5decaf12SecureBufferENS_5Ed4485PointERKNS2_6ScalarES6_ih
.LHOTE27:
	.section	.text.unlikely._Z5rekeyRN5decaf5Ed4485PointES1_RKNS0_6ScalarES5_i,"ax",@progbits
.LCOLDB28:
	.section	.text._Z5rekeyRN5decaf5Ed4485PointES1_RKNS0_6ScalarES5_i,"ax",@progbits
.LHOTB28:
	.p2align 4,,15
	.globl	_Z5rekeyRN5decaf5Ed4485PointES1_RKNS0_6ScalarES5_i
	.hidden	_Z5rekeyRN5decaf5Ed4485PointES1_RKNS0_6ScalarES5_i
	.type	_Z5rekeyRN5decaf5Ed4485PointES1_RKNS0_6ScalarES5_i, @function
_Z5rekeyRN5decaf5Ed4485PointES1_RKNS0_6ScalarES5_i:
.LFB2062:
	.cfi_startproc
	.cfi_personality 0x9b,DW.ref.__gxx_personality_v0
	.cfi_lsda 0x1b,.LLSDA2062
	leaq	8(%rsp), %r10
	.cfi_def_cfa 10, 0
	andq	$-32, %rsp
	pushq	-8(%r10)
	pushq	%rbp
	.cfi_escape 0x10,0x6,0x2,0x76,0
	movq	%rsp, %rbp
	pushq	%r15
	pushq	%r14
	pushq	%r13
	pushq	%r12
	.cfi_escape 0x10,0xf,0x2,0x76,0x78
	.cfi_escape 0x10,0xe,0x2,0x76,0x70
	.cfi_escape 0x10,0xd,0x2,0x76,0x68
	.cfi_escape 0x10,0xc,0x2,0x76,0x60
	leaq	-336(%rbp), %r12
	pushq	%r10
	.cfi_escape 0xf,0x3,0x76,0x58,0x6
	pushq	%rbx
	movq	%rcx, %r13
	.cfi_escape 0x10,0x3,0x2,0x76,0x50
	movl	%r8d, %ebx
	subq	$1184, %rsp
	movq	%rdi, -1192(%rbp)
	movq	%rsi, -1200(%rbp)
	movq	%r12, %rdi
	movl	$2147483648, %esi
	movq	%rdx, -1208(%rbp)
	movq	%fs:40, %rax
	movq	%rax, -56(%rbp)
	xorl	%eax, %eax
.LEHB86:
	call	decaf_448_scalar_set@PLT
.LEHE86:
	movslq	%ebx, %rsi
	leaq	-592(%rbp), %rbx
	movl	$2147483648, %eax
	addq	%rax, %rsi
	movq	%rbx, %rdi
.LEHB87:
	call	decaf_448_scalar_set@PLT
.LEHE87:
	movq	%r12, %rdx
	movq	%rbx, %rsi
	movq	%rbx, %rdi
.LEHB88:
	call	decaf_448_scalar_sub@PLT
.LEHE88:
	movq	%r12, %rdi
.LEHB89:
	call	decaf_448_scalar_destroy@PLT
.LEHE89:
	leaq	-1120(%rbp), %r14
	movq	%rbx, %rdx
	movq	%r13, %rsi
	movq	%r14, %rdi
.LEHB90:
	call	decaf_448_scalar_add@PLT
.LEHE90:
	movq	%rbx, %rdi
.LEHB91:
	call	decaf_448_scalar_destroy@PLT
.LEHE91:
	leaq	-1056(%rbp), %r13
	movq	SHAKE256_params_s@GOTPCREL(%rip), %rsi
	movq	%r13, %rdi
.LEHB92:
	call	sponge_init@PLT
.LEHE92:
	leaq	16+_ZTVN5decaf12SecureBufferE(%rip), %rax
	movl	$56, %edi
	movq	$0, -1144(%rbp)
	movq	$56, -1136(%rbp)
	movq	%rax, -1152(%rbp)
.LEHB93:
	call	_Znam@PLT
.LEHE93:
	leaq	8(%rax), %rdi
	movq	%rax, %rcx
	movq	%rax, -1144(%rbp)
	movq	%rax, %rdx
	movq	$0, (%rax)
	movq	$0, 48(%rax)
	andq	$-8, %rdi
	xorl	%eax, %eax
	movq	%r14, %rsi
	subq	%rdi, %rcx
	addl	$56, %ecx
	shrl	$3, %ecx
	rep stosq
	movq	%rdx, %rdi
.LEHB94:
	call	decaf_448_scalar_encode@PLT
.LEHE94:
	movq	-1136(%rbp), %rdx
	movq	-1144(%rbp), %rsi
	movq	%r13, %rdi
.LEHB95:
	call	sha3_update@PLT
.LEHE95:
	movq	-1144(%rbp), %rdi
	leaq	16+_ZTVN5decaf12SecureBufferE(%rip), %rax
	movq	%rax, -1152(%rbp)
	testq	%rdi, %rdi
	je	.L716
	movq	-1136(%rbp), %rsi
.LEHB96:
	call	decaf_bzero@PLT
.LEHE96:
	movq	-1144(%rbp), %rdi
	testq	%rdi, %rdi
	je	.L716
	call	_ZdaPv@PLT
.L716:
	leaq	16+_ZTVN5decaf12SecureBufferE(%rip), %rax
	movl	$56, %edi
	movq	$0, -1176(%rbp)
	movq	$56, -1168(%rbp)
	movq	%rax, -1184(%rbp)
.LEHB97:
	call	_Znam@PLT
.LEHE97:
	leaq	8(%rax), %rdi
	movq	%rax, %rcx
	movq	%rax, -1176(%rbp)
	movq	%rax, %rsi
	movq	$0, (%rax)
	movq	$0, 48(%rax)
	andq	$-8, %rdi
	xorl	%eax, %eax
	movl	$56, %edx
	subq	%rdi, %rcx
	addl	$56, %ecx
	shrl	$3, %ecx
	rep stosq
	movq	%r13, %rdi
.LEHB98:
	call	sha3_output@PLT
.LEHE98:
	movq	-1168(%rbp), %rax
	cmpq	$55, %rax
	jbe	.L865
	cmpq	$56, %rax
	je	.L866
	cmpq	$111, %rax
	jbe	.L867
	leaq	-848(%rbp), %r15
	movq	-1176(%rbp), %rsi
	movq	%r15, %rdi
.LEHB99:
	call	decaf_448_point_from_hash_uniform@PLT
.LEHE99:
.L725:
	movq	-1208(%rbp), %rdx
	movq	%r15, %rsi
	movq	%rbx, %rdi
.LEHB100:
	call	decaf_448_point_scalarmul@PLT
.LEHE100:
	movq	-1200(%rbp), %rsi
	movq	%rbx, %rdx
	movq	%r12, %rdi
.LEHB101:
	call	decaf_448_point_add@PLT
.LEHE101:
	movl	$32, %ecx
	movq	-1192(%rbp), %rdi
	movq	%r12, %rsi
	rep movsq
	leaq	-336(%rbp), %rdi
.LEHB102:
	call	decaf_448_point_destroy@PLT
.LEHE102:
	movq	%rbx, %rdi
.LEHB103:
	call	decaf_448_point_destroy@PLT
.LEHE103:
	movq	%r15, %rdi
.LEHB104:
	call	decaf_448_point_destroy@PLT
.LEHE104:
	movq	-1176(%rbp), %rdi
	leaq	16+_ZTVN5decaf12SecureBufferE(%rip), %rax
	movq	%rax, -1184(%rbp)
	testq	%rdi, %rdi
	je	.L750
	movq	-1168(%rbp), %rsi
.LEHB105:
	call	decaf_bzero@PLT
.LEHE105:
	movq	-1176(%rbp), %rdi
	testq	%rdi, %rdi
	je	.L750
	call	_ZdaPv@PLT
.L750:
	movq	%r13, %rdi
.LEHB106:
	call	sponge_destroy@PLT
.LEHE106:
	movq	%r14, %rdi
.LEHB107:
	call	decaf_448_scalar_destroy@PLT
.LEHE107:
	movq	-56(%rbp), %rax
	xorq	%fs:40, %rax
	jne	.L868
	addq	$1184, %rsp
	popq	%rbx
	popq	%r10
	.cfi_remember_state
	.cfi_def_cfa 10, 0
	popq	%r12
	popq	%r13
	popq	%r14
	popq	%r15
	popq	%rbp
	leaq	-8(%r10), %rsp
	.cfi_def_cfa 7, 8
	ret
	.p2align 4,,10
	.p2align 3
.L867:
	.cfi_restore_state
	leaq	16+_ZTVN5decaf12SecureBufferE(%rip), %rax
	movl	$112, %edi
	movq	$0, -1144(%rbp)
	movq	$112, -1136(%rbp)
	movq	%rax, -1152(%rbp)
.LEHB108:
	call	_Znam@PLT
.LEHE108:
	leaq	8(%rax), %rdi
	movq	%rax, %rcx
	movq	%rax, -1144(%rbp)
	movq	%rax, %r8
	movq	$0, (%rax)
	movq	$0, 104(%rax)
	andq	$-8, %rdi
	xorl	%eax, %eax
	leaq	-848(%rbp), %r15
	subq	%rdi, %rcx
	addl	$112, %ecx
	shrl	$3, %ecx
	rep stosq
	movq	%r8, %rdi
	movq	-1176(%rbp), %rsi
	movq	-1168(%rbp), %rdx
	call	memcpy@PLT
	movq	%r15, %rdi
	movq	%rax, %rsi
.LEHB109:
	call	decaf_448_point_from_hash_uniform@PLT
.LEHE109:
	movq	-1144(%rbp), %rdi
	leaq	16+_ZTVN5decaf12SecureBufferE(%rip), %rax
	movq	%rax, -1152(%rbp)
	testq	%rdi, %rdi
	je	.L725
	movq	-1136(%rbp), %rsi
.LEHB110:
	call	decaf_bzero@PLT
.LEHE110:
.L837:
	movq	-1144(%rbp), %rdi
	testq	%rdi, %rdi
	je	.L725
	call	_ZdaPv@PLT
	jmp	.L725
	.p2align 4,,10
	.p2align 3
.L865:
	leaq	16+_ZTVN5decaf12SecureBufferE(%rip), %rax
	movl	$56, %edi
	movq	$0, -1144(%rbp)
	movq	$56, -1136(%rbp)
	movq	%rax, -1152(%rbp)
.LEHB111:
	call	_Znam@PLT
.LEHE111:
	leaq	8(%rax), %rdi
	movq	%rax, %rcx
	movq	%rax, -1144(%rbp)
	movq	%rax, %r8
	movq	$0, (%rax)
	movq	$0, 48(%rax)
	andq	$-8, %rdi
	xorl	%eax, %eax
	leaq	-848(%rbp), %r15
	subq	%rdi, %rcx
	addl	$56, %ecx
	shrl	$3, %ecx
	rep stosq
	movq	%r8, %rdi
	movq	-1176(%rbp), %rsi
	movq	-1168(%rbp), %rdx
	call	memcpy@PLT
	movq	%r15, %rdi
	movq	%rax, %rsi
.LEHB112:
	call	decaf_448_point_from_hash_nonuniform@PLT
.LEHE112:
	movq	-1144(%rbp), %rdi
	leaq	16+_ZTVN5decaf12SecureBufferE(%rip), %rax
	movq	%rax, -1152(%rbp)
	testq	%rdi, %rdi
	je	.L725
	movq	-1136(%rbp), %rsi
.LEHB113:
	call	decaf_bzero@PLT
.LEHE113:
	jmp	.L837
	.p2align 4,,10
	.p2align 3
.L866:
	leaq	-848(%rbp), %r15
	movq	-1176(%rbp), %rsi
	movq	%r15, %rdi
.LEHB114:
	call	decaf_448_point_from_hash_nonuniform@PLT
.LEHE114:
	jmp	.L725
.L868:
	call	__stack_chk_fail@PLT
.L775:
	movq	%rax, %rbx
	leaq	16+_ZTVN5decaf12SecureBufferE(%rip), %rax
	movq	%rax, -1184(%rbp)
	leaq	-1184(%rbp), %rax
	leaq	16(%rax), %rsi
	leaq	8(%rax), %rdi
	vzeroupper
	call	_ZN5decaf12SecureBuffer5clearEv.isra.17
	leaq	16+_ZTVN5decaf5BlockE(%rip), %rax
	movq	%rax, -1184(%rbp)
.L722:
	movq	%r13, %rdi
	call	_ZN5decaf12KeccakSpongeD2Ev
	movq	%r14, %rdi
	call	_ZN5decaf5Ed4486ScalarD1Ev
	movq	%rbx, %rdi
.L835:
.LEHB115:
	call	_Unwind_Resume@PLT
.L765:
	movq	%rax, %rbx
	vzeroupper
	jmp	.L722
.L776:
.L839:
	addq	$1, %rdx
	movq	%rax, %rdi
	je	.L761
	vzeroupper
	call	_Unwind_Resume@PLT
.L764:
	movq	%rax, %rbx
	leaq	16+_ZTVN5decaf12SecureBufferE(%rip), %rax
	movq	%rax, -1152(%rbp)
	leaq	-1152(%rbp), %rax
	leaq	16(%rax), %rsi
	leaq	8(%rax), %rdi
	vzeroupper
	call	_ZN5decaf12SecureBuffer5clearEv.isra.17
	jmp	.L722
.L761:
	vzeroupper
.L834:
	call	__cxa_call_unexpected@PLT
.LEHE115:
.L767:
	movq	%rax, %rbx
	leaq	16+_ZTVN5decaf12SecureBufferE(%rip), %rax
	movq	%rdx, %r12
	movq	%rax, -1152(%rbp)
	leaq	-1152(%rbp), %rax
	leaq	16(%rax), %rsi
	leaq	8(%rax), %rdi
	vzeroupper
	call	_ZN5decaf12SecureBuffer5clearEv.isra.17
	leaq	16+_ZTVN5decaf5BlockE(%rip), %rax
	movq	%rbx, %rdi
	movq	%r12, %rdx
	movq	%rax, -1152(%rbp)
.L736:
	addq	$1, %rdx
	jne	.L835
	jmp	.L834
.L766:
.L852:
	movq	%rax, %rdi
	vzeroupper
	jmp	.L736
.L768:
	jmp	.L839
.L769:
	jmp	.L839
.L770:
	movq	%rax, %rbx
	movq	%rdx, %r12
	movq	%r14, %rdi
	vzeroupper
	call	_ZN5decaf5Ed4486ScalarD1Ev
	addq	$1, %r12
	movq	%rbx, %rdi
	jne	.L835
	jmp	.L834
.L773:
	jmp	.L839
.L774:
	jmp	.L839
.L771:
	movq	%rax, %rbx
	movq	%rdx, %r13
	movq	%r12, %rdi
	vzeroupper
	call	_ZN5decaf5Ed4486ScalarD1Ev
	addq	$1, %r13
	movq	%rbx, %rdi
	jne	.L835
	jmp	.L834
.L772:
	jmp	.L839
.L785:
	jmp	.L852
.L784:
	movq	%rax, %r12
	movq	%rdx, %r13
	movq	%rbx, %rdi
	vzeroupper
	call	_ZN5decaf5Ed4485PointD1Ev
	addq	$1, %r13
	movq	%r12, %rdi
	jne	.L835
	jmp	.L834
.L783:
	movq	%rax, %rbx
	movq	%rdx, %r13
	movq	%r12, %rdi
	vzeroupper
	call	_ZN5decaf5Ed4485PointD1Ev
	addq	$1, %r13
	movq	%rbx, %rdi
	jne	.L835
	jmp	.L834
.L782:
	jmp	.L839
.L781:
	jmp	.L839
.L780:
	jmp	.L839
.L779:
	jmp	.L839
.L778:
	jmp	.L839
.L777:
	jmp	.L839
.L786:
.L830:
	movq	%rax, %rbx
	leaq	16+_ZTVN5decaf12SecureBufferE(%rip), %rax
	movq	%rdx, %r12
	movq	%rax, -1152(%rbp)
	leaq	-1152(%rbp), %rax
	leaq	16(%rax), %rsi
	leaq	8(%rax), %rdi
	vzeroupper
	call	_ZN5decaf12SecureBuffer5clearEv.isra.17
	movq	%rbx, %rdi
	movq	%r12, %rdx
	jmp	.L736
.L788:
	jmp	.L839
.L789:
	jmp	.L839
.L787:
	jmp	.L830
	.cfi_endproc
.LFE2062:
	.section	.gcc_except_table._Z5rekeyRN5decaf5Ed4485PointES1_RKNS0_6ScalarES5_i,"a",@progbits
	.align 4
.LLSDA2062:
	.byte	0xff
	.byte	0x9b
	.uleb128 .LLSDATT2062-.LLSDATTD2062
.LLSDATTD2062:
	.byte	0x1
	.uleb128 .LLSDACSE2062-.LLSDACSB2062
.LLSDACSB2062:
	.uleb128 .LEHB86-.LFB2062
	.uleb128 .LEHE86-.LEHB86
	.uleb128 .L772-.LFB2062
	.uleb128 0x1
	.uleb128 .LEHB87-.LFB2062
	.uleb128 .LEHE87-.LEHB87
	.uleb128 .L771-.LFB2062
	.uleb128 0x3
	.uleb128 .LEHB88-.LFB2062
	.uleb128 .LEHE88-.LEHB88
	.uleb128 .L774-.LFB2062
	.uleb128 0x1
	.uleb128 .LEHB89-.LFB2062
	.uleb128 .LEHE89-.LEHB89
	.uleb128 .L773-.LFB2062
	.uleb128 0x1
	.uleb128 .LEHB90-.LFB2062
	.uleb128 .LEHE90-.LEHB90
	.uleb128 .L770-.LFB2062
	.uleb128 0x3
	.uleb128 .LEHB91-.LFB2062
	.uleb128 .LEHE91-.LEHB91
	.uleb128 .L769-.LFB2062
	.uleb128 0x1
	.uleb128 .LEHB92-.LFB2062
	.uleb128 .LEHE92-.LEHB92
	.uleb128 .L768-.LFB2062
	.uleb128 0x1
	.uleb128 .LEHB93-.LFB2062
	.uleb128 .LEHE93-.LEHB93
	.uleb128 .L766-.LFB2062
	.uleb128 0x1
	.uleb128 .LEHB94-.LFB2062
	.uleb128 .LEHE94-.LEHB94
	.uleb128 .L767-.LFB2062
	.uleb128 0x3
	.uleb128 .LEHB95-.LFB2062
	.uleb128 .LEHE95-.LEHB95
	.uleb128 .L764-.LFB2062
	.uleb128 0
	.uleb128 .LEHB96-.LFB2062
	.uleb128 .LEHE96-.LEHB96
	.uleb128 .L776-.LFB2062
	.uleb128 0x1
	.uleb128 .LEHB97-.LFB2062
	.uleb128 .LEHE97-.LEHB97
	.uleb128 .L765-.LFB2062
	.uleb128 0
	.uleb128 .LEHB98-.LFB2062
	.uleb128 .LEHE98-.LEHB98
	.uleb128 .L775-.LFB2062
	.uleb128 0
	.uleb128 .LEHB99-.LFB2062
	.uleb128 .LEHE99-.LEHB99
	.uleb128 .L785-.LFB2062
	.uleb128 0x1
	.uleb128 .LEHB100-.LFB2062
	.uleb128 .LEHE100-.LEHB100
	.uleb128 .L784-.LFB2062
	.uleb128 0x3
	.uleb128 .LEHB101-.LFB2062
	.uleb128 .LEHE101-.LEHB101
	.uleb128 .L783-.LFB2062
	.uleb128 0x3
	.uleb128 .LEHB102-.LFB2062
	.uleb128 .LEHE102-.LEHB102
	.uleb128 .L782-.LFB2062
	.uleb128 0x1
	.uleb128 .LEHB103-.LFB2062
	.uleb128 .LEHE103-.LEHB103
	.uleb128 .L781-.LFB2062
	.uleb128 0x1
	.uleb128 .LEHB104-.LFB2062
	.uleb128 .LEHE104-.LEHB104
	.uleb128 .L780-.LFB2062
	.uleb128 0x1
	.uleb128 .LEHB105-.LFB2062
	.uleb128 .LEHE105-.LEHB105
	.uleb128 .L779-.LFB2062
	.uleb128 0x1
	.uleb128 .LEHB106-.LFB2062
	.uleb128 .LEHE106-.LEHB106
	.uleb128 .L778-.LFB2062
	.uleb128 0x1
	.uleb128 .LEHB107-.LFB2062
	.uleb128 .LEHE107-.LEHB107
	.uleb128 .L777-.LFB2062
	.uleb128 0x1
	.uleb128 .LEHB108-.LFB2062
	.uleb128 .LEHE108-.LEHB108
	.uleb128 .L785-.LFB2062
	.uleb128 0x1
	.uleb128 .LEHB109-.LFB2062
	.uleb128 .LEHE109-.LEHB109
	.uleb128 .L786-.LFB2062
	.uleb128 0x3
	.uleb128 .LEHB110-.LFB2062
	.uleb128 .LEHE110-.LEHB110
	.uleb128 .L789-.LFB2062
	.uleb128 0x1
	.uleb128 .LEHB111-.LFB2062
	.uleb128 .LEHE111-.LEHB111
	.uleb128 .L785-.LFB2062
	.uleb128 0x1
	.uleb128 .LEHB112-.LFB2062
	.uleb128 .LEHE112-.LEHB112
	.uleb128 .L787-.LFB2062
	.uleb128 0x3
	.uleb128 .LEHB113-.LFB2062
	.uleb128 .LEHE113-.LEHB113
	.uleb128 .L788-.LFB2062
	.uleb128 0x1
	.uleb128 .LEHB114-.LFB2062
	.uleb128 .LEHE114-.LEHB114
	.uleb128 .L785-.LFB2062
	.uleb128 0x1
	.uleb128 .LEHB115-.LFB2062
	.uleb128 .LEHE115-.LEHB115
	.uleb128 0
	.uleb128 0
.LLSDACSE2062:
	.byte	0x7f
	.byte	0
	.byte	0
	.byte	0x7d
	.align 4
.LLSDATT2062:
	.byte	0
	.section	.text._Z5rekeyRN5decaf5Ed4485PointES1_RKNS0_6ScalarES5_i
	.size	_Z5rekeyRN5decaf5Ed4485PointES1_RKNS0_6ScalarES5_i, .-_Z5rekeyRN5decaf5Ed4485PointES1_RKNS0_6ScalarES5_i
	.section	.text.unlikely._Z5rekeyRN5decaf5Ed4485PointES1_RKNS0_6ScalarES5_i
.LCOLDE28:
	.section	.text._Z5rekeyRN5decaf5Ed4485PointES1_RKNS0_6ScalarES5_i
.LHOTE28:
	.section	.rodata.str1.1
.LC29:
	.string	"original:"
.LC30:
	.string	"block size:"
.LC31:
	.string	"Couldn't load from file"
.LC32:
	.string	"k_encode"
.LC33:
	.string	"k_str"
.LC34:
	.string	"basic_string::append"
.LC35:
	.string	"#"
.LC36:
	.string	"keys_str"
.LC37:
	.string	"one---------------------:"
.LC38:
	.string	"n_encode"
.LC39:
	.string	"n_str"
.LC40:
	.string	"hints"
.LC41:
	.string	"first_decrypt:"
	.section	.rodata.str1.8,"aMS",@progbits,1
	.align 8
.LC42:
	.string	"basic_string::_M_construct null not valid"
	.section	.text.unlikely._Z11wwh_encryptPcS_,"ax",@progbits
.LCOLDB43:
	.section	.text._Z11wwh_encryptPcS_,"ax",@progbits
.LHOTB43:
	.p2align 4,,15
	.globl	_Z11wwh_encryptPcS_
	.hidden	_Z11wwh_encryptPcS_
	.type	_Z11wwh_encryptPcS_, @function
_Z11wwh_encryptPcS_:
.LFB2063:
	.cfi_startproc
	.cfi_personality 0x9b,DW.ref.__gxx_personality_v0
	.cfi_lsda 0x1b,.LLSDA2063
	leaq	8(%rsp), %r10
	.cfi_def_cfa 10, 0
	andq	$-32, %rsp
	leaq	.LC29(%rip), %rsi
	movl	$9, %edx
	pushq	-8(%r10)
	pushq	%rbp
	.cfi_escape 0x10,0x6,0x2,0x76,0
	movq	%rsp, %rbp
	pushq	%r15
	pushq	%r14
	pushq	%r13
	pushq	%r12
	pushq	%r10
	.cfi_escape 0xf,0x3,0x76,0x58,0x6
	.cfi_escape 0x10,0xf,0x2,0x76,0x78
	.cfi_escape 0x10,0xe,0x2,0x76,0x70
	.cfi_escape 0x10,0xd,0x2,0x76,0x68
	.cfi_escape 0x10,0xc,0x2,0x76,0x60
	pushq	%rbx
	.cfi_escape 0x10,0x3,0x2,0x76,0x50
	movq	%rdi, %rbx
	subq	$1120, %rsp
	movq	%rdi, -1096(%rbp)
	movq	_ZSt4cout@GOTPCREL(%rip), %rdi
	movq	%fs:40, %rax
	movq	%rax, -56(%rbp)
	xorl	%eax, %eax
.LEHB116:
	call	_ZSt16__ostream_insertIcSt11char_traitsIcEERSt13basic_ostreamIT_T0_ES6_PKS3_l@PLT
	testq	%rbx, %rbx
	je	.L1201
	movq	-1096(%rbp), %rbx
	movq	%rbx, %rdi
	call	strlen@PLT
	movq	_ZSt4cout@GOTPCREL(%rip), %rdi
	movq	%rax, %rdx
	movq	%rbx, %rsi
	call	_ZSt16__ostream_insertIcSt11char_traitsIcEERSt13basic_ostreamIT_T0_ES6_PKS3_l@PLT
.L871:
	movq	_ZSt4cout@GOTPCREL(%rip), %rax
	movq	_ZSt4cout@GOTPCREL(%rip), %rsi
	movq	(%rax), %rax
	movq	-24(%rax), %rax
	movq	240(%rax,%rsi), %rbx
	testq	%rbx, %rbx
	je	.L875
	cmpb	$0, 56(%rbx)
	je	.L873
	movsbl	67(%rbx), %esi
.L874:
	movq	_ZSt4cout@GOTPCREL(%rip), %rdi
	call	_ZNSo3putEc@PLT
	movq	%rax, %rdi
	call	_ZNSo5flushEv@PLT
	movq	-1096(%rbp), %rdi
	call	strlen@PLT
	movq	%rax, %r14
	movq	%rax, %r15
	movabsq	$2635249153387078803, %rdx
	shrq	$3, %r14
	movq	_ZSt4cout@GOTPCREL(%rip), %rdi
	leaq	.LC30(%rip), %rsi
	movq	%r14, %rax
	mulq	%rdx
	leal	1(%rdx), %eax
	movq	%rdx, %r14
	movl	$11, %edx
	movl	%eax, %ebx
	movl	%eax, -1076(%rbp)
	call	_ZSt16__ostream_insertIcSt11char_traitsIcEERSt13basic_ostreamIT_T0_ES6_PKS3_l@PLT
	movq	_ZSt4cout@GOTPCREL(%rip), %rdi
	movl	%ebx, %esi
	call	_ZNSolsEi@PLT
	movq	%rax, %r12
	movq	(%rax), %rax
	movq	-24(%rax), %rax
	movq	240(%r12,%rax), %rbx
	testq	%rbx, %rbx
	je	.L875
	cmpb	$0, 56(%rbx)
	je	.L876
	movsbl	67(%rbx), %esi
.L877:
	movq	%r12, %rdi
	call	_ZNSo3putEc@PLT
	movq	%rax, %rdi
	call	_ZNSo5flushEv@PLT
	movslq	-1076(%rbp), %rbx
	movabsq	$35747322042253312, %rax
	movq	$-1, %rdi
	cmpq	%rax, %rbx
	ja	.L878
	movq	%rbx, %rdi
	salq	$8, %rdi
	addq	$32, %rdi
.L878:
	call	_Znam@PLT
	movq	%rbx, 24(%rax)
	movq	%rax, -1088(%rbp)
	addq	$32, %rax
	testq	%rbx, %rbx
	movq	%rax, -1104(%rbp)
	je	.L881
	movq	decaf_448_point_identity@GOTPCREL(%rip), %rdx
	movq	-1088(%rbp), %r8
	xorl	%eax, %eax
	.p2align 4,,10
	.p2align 3
.L879:
	movq	%rax, %rcx
	addq	$1, %rax
	movq	%rdx, %rsi
	salq	$8, %rcx
	cmpq	%rax, %rbx
	leaq	32(%r8,%rcx), %rdi
	movl	$32, %ecx
	rep movsq
	jne	.L879
.L881:
	movq	%rbx, %rdi
	call	_Znam@PLT
.LEHE116:
	movq	%rax, -1056(%rbp)
	leaq	-336(%rbp), %rax
	xorl	%ecx, %ecx
	movl	$32, %edx
	leaq	16(%rax), %rsi
	movq	%rax, -1048(%rbp)
	movabsq	$7021803615734293551, %rax
	movq	%rax, -320(%rbp)
	leaq	-544(%rbp), %rax
	movq	%rsi, -336(%rbp)
	movl	$1836016750, 8(%rsi)
	movq	%rax, %rdi
	movq	$12, -328(%rbp)
	movb	$0, -308(%rbp)
	movq	%rax, -1128(%rbp)
.LEHB117:
	call	spongerng_init_from_file@PLT
.LEHE117:
	testl	%eax, %eax
	movl	%eax, %ebx
	jne	.L1202
	movq	-1048(%rbp), %rax
	movq	-336(%rbp), %rdi
	addq	$16, %rax
	cmpq	%rax, %rdi
	je	.L886
	call	_ZdlPv@PLT
.L886:
	movl	$56, %edi
.LEHB118:
	call	_Znam@PLT
.LEHE118:
	leaq	8(%rax), %rdi
	movq	%rax, %rcx
	movq	$0, (%rax)
	movq	$0, 48(%rax)
	movq	%rax, %rbx
	xorl	%eax, %eax
	andq	$-8, %rdi
	movl	$56, %edx
	movq	%rbx, %rsi
	subq	%rdi, %rcx
	addl	$56, %ecx
	shrl	$3, %ecx
	rep stosq
	movq	-1128(%rbp), %rdi
.LEHB119:
	call	spongerng_next@PLT
.LEHE119:
	leaq	-672(%rbp), %rax
	movl	$56, %edx
	movq	%rbx, %rsi
	movq	%rax, %rdi
	movq	%rax, -1064(%rbp)
.LEHB120:
	call	decaf_448_scalar_decode_long@PLT
.LEHE120:
	movl	$56, %esi
	movq	%rbx, %rdi
.LEHB121:
	call	decaf_bzero@PLT
.LEHE121:
	movq	%rbx, %rdi
	call	_ZdaPv@PLT
	leaq	-960(%rbp), %rax
	movl	$56, %edi
	movq	$0, -952(%rbp)
	movb	$0, -944(%rbp)
	movq	%rax, -1120(%rbp)
	addq	$16, %rax
	movq	%rax, -960(%rbp)
.LEHB122:
	call	_Znam@PLT
.LEHE122:
	movq	-1064(%rbp), %rsi
	movq	%rax, %rdi
	movq	%rax, %rbx
.LEHB123:
	call	decaf_448_scalar_encode@PLT
.LEHE123:
	movq	_ZSt4cout@GOTPCREL(%rip), %rdi
	leaq	.LC32(%rip), %rsi
	movl	$8, %edx
.LEHB124:
	call	_ZSt16__ostream_insertIcSt11char_traitsIcEERSt13basic_ostreamIT_T0_ES6_PKS3_l@PLT
	movq	%rbx, %rdi
	call	strlen@PLT
	movq	_ZSt4cout@GOTPCREL(%rip), %rdi
	movq	%rax, %rdx
	movq	%rbx, %rsi
	call	_ZSt16__ostream_insertIcSt11char_traitsIcEERSt13basic_ostreamIT_T0_ES6_PKS3_l@PLT
	movq	_ZSt4cout@GOTPCREL(%rip), %rax
	movq	_ZSt4cout@GOTPCREL(%rip), %rsi
	movq	(%rax), %rax
	movq	-24(%rax), %rax
	movq	240(%rax,%rsi), %r12
	testq	%r12, %r12
	je	.L1203
	cmpb	$0, 56(%r12)
	je	.L904
	movsbl	67(%r12), %esi
.L905:
	movq	_ZSt4cout@GOTPCREL(%rip), %rdi
	call	_ZNSo3putEc@PLT
	movq	%rax, %rdi
	call	_ZNSo5flushEv@PLT
.LEHE124:
	leaq	-928(%rbp), %rax
	movq	%rbx, %rdi
	leaq	16(%rax), %r13
	movq	%rax, -1144(%rbp)
	movq	%r13, -928(%rbp)
	call	strlen@PLT
	cmpq	$15, %rax
	movq	%rax, %r12
	movq	%rax, -1032(%rbp)
	ja	.L1204
	cmpq	$1, %rax
	je	.L1205
	testq	%rax, %rax
	movq	%r13, %rdx
	jne	.L1206
.L909:
	movq	_ZSt4cout@GOTPCREL(%rip), %rdi
	leaq	.LC33(%rip), %rsi
	movq	%rax, -920(%rbp)
	movb	$0, (%rdx,%rax)
	movl	$5, %edx
.LEHB125:
	call	_ZSt16__ostream_insertIcSt11char_traitsIcEERSt13basic_ostreamIT_T0_ES6_PKS3_l@PLT
	movq	-920(%rbp), %rdx
	movq	-928(%rbp), %rsi
	movq	_ZSt4cout@GOTPCREL(%rip), %rdi
	call	_ZSt16__ostream_insertIcSt11char_traitsIcEERSt13basic_ostreamIT_T0_ES6_PKS3_l@PLT
	movq	%rax, %r12
	movq	(%rax), %rax
	movq	-24(%rax), %rax
	movq	240(%r12,%rax), %rbx
	testq	%rbx, %rbx
	je	.L1207
	cmpb	$0, 56(%rbx)
	je	.L911
	movsbl	67(%rbx), %esi
.L912:
	movq	%r12, %rdi
	call	_ZNSo3putEc@PLT
	movq	%rax, %rdi
	call	_ZNSo5flushEv@PLT
	leaq	-896(%rbp), %r12
	movq	-928(%rbp), %r13
	movq	-920(%rbp), %rbx
	leaq	16(%r12), %rax
	movq	%rax, -896(%rbp)
	movq	%r13, %rax
	addq	%rbx, %rax
	je	.L915
	testq	%r13, %r13
	jne	.L915
	leaq	.LC42(%rip), %rdi
	call	_ZSt19__throw_logic_errorPKc@PLT
.LEHE125:
.L915:
	cmpq	$15, %rbx
	movq	%rbx, -1024(%rbp)
	ja	.L1208
	cmpq	$1, %rbx
	je	.L1209
	testq	%rbx, %rbx
	leaq	16(%r12), %rax
	jne	.L916
.L918:
	movq	%rbx, -888(%rbp)
	movb	$0, (%rax,%rbx)
	movabsq	$9223372036854775807, %rax
	cmpq	%rax, -888(%rbp)
	je	.L1210
	leaq	.LC35(%rip), %rsi
	movl	$1, %edx
	movq	%r12, %rdi
.LEHB126:
	call	_ZNSt7__cxx1112basic_stringIcSt11char_traitsIcESaIcEE9_M_appendEPKcm@PLT
.LEHE126:
	movq	-888(%rbp), %rdx
	movq	-896(%rbp), %rsi
	movq	-1120(%rbp), %rdi
.LEHB127:
	call	_ZNSt7__cxx1112basic_stringIcSt11char_traitsIcESaIcEE9_M_appendEPKcm@PLT
.LEHE127:
	movq	-896(%rbp), %rdi
	addq	$16, %r12
	cmpq	%r12, %rdi
	je	.L924
	call	_ZdlPv@PLT
.L924:
	movq	_ZSt4cout@GOTPCREL(%rip), %rdi
	leaq	.LC36(%rip), %rsi
	movl	$8, %edx
.LEHB128:
	call	_ZSt16__ostream_insertIcSt11char_traitsIcEERSt13basic_ostreamIT_T0_ES6_PKS3_l@PLT
	movq	-952(%rbp), %rdx
	movq	-960(%rbp), %rsi
	movq	_ZSt4cout@GOTPCREL(%rip), %rdi
	call	_ZSt16__ostream_insertIcSt11char_traitsIcEERSt13basic_ostreamIT_T0_ES6_PKS3_l@PLT
	movq	%rax, %r12
	movq	(%rax), %rax
	movq	-24(%rax), %rax
	movq	240(%r12,%rax), %rbx
	testq	%rbx, %rbx
	je	.L1211
	cmpb	$0, 56(%rbx)
	je	.L926
	movsbl	67(%rbx), %esi
.L927:
	movq	%r12, %rdi
	call	_ZNSo3putEc@PLT
	movq	%rax, %rdi
	call	_ZNSo5flushEv@PLT
.LEHE128:
	movl	$56, %edi
.LEHB129:
	call	_Znam@PLT
.LEHE129:
	leaq	8(%rax), %rdi
	movq	%rax, %rcx
	movq	$0, (%rax)
	movq	$0, 48(%rax)
	movq	%rax, %rbx
	xorl	%eax, %eax
	andq	$-8, %rdi
	movl	$56, %edx
	movq	%rbx, %rsi
	subq	%rdi, %rcx
	addl	$56, %ecx
	shrl	$3, %ecx
	rep stosq
	movq	-1128(%rbp), %rdi
.LEHB130:
	call	spongerng_next@PLT
.LEHE130:
	leaq	-608(%rbp), %rax
	movl	$56, %edx
	movq	%rbx, %rsi
	movq	%rax, %rdi
	movq	%rax, -1072(%rbp)
.LEHB131:
	call	decaf_448_scalar_decode_long@PLT
.LEHE131:
	movl	$56, %esi
	movq	%rbx, %rdi
.LEHB132:
	call	decaf_bzero@PLT
.LEHE132:
	movq	%rbx, %rdi
	call	_ZdaPv@PLT
	leaq	-864(%rbp), %rax
	movl	$1634232686, -848(%rbp)
	movl	$1634234231, -816(%rbp)
	movl	$5, %edx
	movq	$5, -856(%rbp)
	movq	$5, -824(%rbp)
	movq	%rax, %rdi
	movq	%rax, -1168(%rbp)
	addq	$16, %rax
	movb	$111, 4(%rax)
	movq	%rax, -864(%rbp)
	leaq	-832(%rbp), %rax
	movb	$0, -843(%rbp)
	leaq	16(%rax), %rsi
	movb	$111, 4(%rsi)
	movq	%rax, -1160(%rbp)
	movb	$0, -811(%rbp)
	movq	%rsi, -832(%rbp)
.LEHB133:
	call	_ZNSt7__cxx1112basic_stringIcSt11char_traitsIcESaIcEE9_M_appendEPKcm@PLT
	movq	_ZSt4cout@GOTPCREL(%rip), %rdi
	leaq	.LC37(%rip), %rsi
	movl	$25, %edx
	call	_ZSt16__ostream_insertIcSt11char_traitsIcEERSt13basic_ostreamIT_T0_ES6_PKS3_l@PLT
	movq	-856(%rbp), %rdx
	movq	-864(%rbp), %rsi
	movq	_ZSt4cout@GOTPCREL(%rip), %rdi
	call	_ZSt16__ostream_insertIcSt11char_traitsIcEERSt13basic_ostreamIT_T0_ES6_PKS3_l@PLT
	movq	%rax, %r12
	movq	(%rax), %rax
	movq	-24(%rax), %rax
	movq	240(%r12,%rax), %rbx
	testq	%rbx, %rbx
	je	.L1212
	cmpb	$0, 56(%rbx)
	je	.L942
	movsbl	67(%rbx), %esi
.L943:
	movq	%r12, %rdi
	call	_ZNSo3putEc@PLT
	movq	%rax, %rdi
	call	_ZNSo5flushEv@PLT
	movl	$56, %edi
	call	_Znam@PLT
.LEHE133:
	movq	-1072(%rbp), %rsi
	movq	%rax, %rdi
	movq	%rax, %r12
.LEHB134:
	call	decaf_448_scalar_encode@PLT
.LEHE134:
	movq	_ZSt4cout@GOTPCREL(%rip), %rdi
	leaq	.LC38(%rip), %rsi
	movl	$8, %edx
.LEHB135:
	call	_ZSt16__ostream_insertIcSt11char_traitsIcEERSt13basic_ostreamIT_T0_ES6_PKS3_l@PLT
	movq	%r12, %rdi
	call	strlen@PLT
	movq	_ZSt4cout@GOTPCREL(%rip), %rdi
	movq	%rax, %rdx
	movq	%r12, %rsi
	call	_ZSt16__ostream_insertIcSt11char_traitsIcEERSt13basic_ostreamIT_T0_ES6_PKS3_l@PLT
	movq	_ZSt4cout@GOTPCREL(%rip), %rax
	movq	_ZSt4cout@GOTPCREL(%rip), %rsi
	movq	(%rax), %rax
	movq	-24(%rax), %rax
	movq	240(%rax,%rsi), %rbx
	testq	%rbx, %rbx
	je	.L1213
	cmpb	$0, 56(%rbx)
	je	.L948
	movsbl	67(%rbx), %esi
.L949:
	movq	_ZSt4cout@GOTPCREL(%rip), %rdi
	call	_ZNSo3putEc@PLT
	movq	%rax, %rdi
	call	_ZNSo5flushEv@PLT
.LEHE135:
	leaq	-800(%rbp), %rax
	movq	%r12, %rdi
	leaq	16(%rax), %r13
	movq	%rax, -1136(%rbp)
	movq	%r13, -800(%rbp)
	call	strlen@PLT
	cmpq	$15, %rax
	movq	%rax, %rbx
	movq	%rax, -1016(%rbp)
	ja	.L1214
	cmpq	$1, %rax
	je	.L1215
	testq	%rax, %rax
	movq	%r13, %rdx
	jne	.L1216
.L953:
	movq	_ZSt4cout@GOTPCREL(%rip), %rdi
	leaq	.LC39(%rip), %rsi
	movq	%rax, -792(%rbp)
	movb	$0, (%rdx,%rax)
	movl	$5, %edx
.LEHB136:
	call	_ZSt16__ostream_insertIcSt11char_traitsIcEERSt13basic_ostreamIT_T0_ES6_PKS3_l@PLT
	movq	-792(%rbp), %rdx
	movq	-800(%rbp), %rsi
	movq	_ZSt4cout@GOTPCREL(%rip), %rdi
	call	_ZSt16__ostream_insertIcSt11char_traitsIcEERSt13basic_ostreamIT_T0_ES6_PKS3_l@PLT
	movq	%rax, %r12
	movq	(%rax), %rax
	movq	-24(%rax), %rax
	movq	240(%r12,%rax), %rbx
	testq	%rbx, %rbx
	je	.L1217
	cmpb	$0, 56(%rbx)
	je	.L955
	movsbl	67(%rbx), %esi
.L956:
	movq	%r12, %rdi
	call	_ZNSo3putEc@PLT
	movq	%rax, %rdi
	call	_ZNSo5flushEv@PLT
	leaq	-768(%rbp), %r13
	movq	-800(%rbp), %r12
	movq	-792(%rbp), %rbx
	leaq	16(%r13), %rax
	movq	%rax, -768(%rbp)
	movq	%r12, %rax
	addq	%rbx, %rax
	je	.L959
	testq	%r12, %r12
	jne	.L959
	leaq	.LC42(%rip), %rdi
	call	_ZSt19__throw_logic_errorPKc@PLT
.LEHE136:
.L959:
	cmpq	$15, %rbx
	movq	%rbx, -1008(%rbp)
	ja	.L1218
	cmpq	$1, %rbx
	je	.L1219
	testq	%rbx, %rbx
	leaq	16(%r13), %rax
	jne	.L960
.L962:
	movq	%rbx, -760(%rbp)
	movb	$0, (%rax,%rbx)
	movabsq	$9223372036854775807, %rax
	cmpq	%rax, -760(%rbp)
	je	.L1220
	leaq	.LC35(%rip), %rsi
	movl	$1, %edx
	movq	%r13, %rdi
.LEHB137:
	call	_ZNSt7__cxx1112basic_stringIcSt11char_traitsIcESaIcEE9_M_appendEPKcm@PLT
.LEHE137:
	movq	-760(%rbp), %rdx
	movq	-768(%rbp), %rsi
	movq	-1120(%rbp), %rdi
.LEHB138:
	call	_ZNSt7__cxx1112basic_stringIcSt11char_traitsIcESaIcEE9_M_appendEPKcm@PLT
.LEHE138:
	movq	-768(%rbp), %rdi
	addq	$16, %r13
	cmpq	%r13, %rdi
	je	.L968
	call	_ZdlPv@PLT
.L968:
	movq	_ZSt4cout@GOTPCREL(%rip), %rdi
	leaq	.LC36(%rip), %rsi
	movl	$8, %edx
.LEHB139:
	call	_ZSt16__ostream_insertIcSt11char_traitsIcEERSt13basic_ostreamIT_T0_ES6_PKS3_l@PLT
	movq	-952(%rbp), %rdx
	movq	-960(%rbp), %rsi
	movq	_ZSt4cout@GOTPCREL(%rip), %rdi
	call	_ZSt16__ostream_insertIcSt11char_traitsIcEERSt13basic_ostreamIT_T0_ES6_PKS3_l@PLT
	movq	%rax, %r12
	movq	(%rax), %rax
	movq	-24(%rax), %rax
	movq	240(%r12,%rax), %rbx
	testq	%rbx, %rbx
	je	.L1221
	cmpb	$0, 56(%rbx)
	je	.L970
	movsbl	67(%rbx), %esi
.L971:
	movq	%r12, %rdi
	call	_ZNSo3putEc@PLT
	movq	%rax, %rdi
	call	_ZNSo5flushEv@PLT
	movl	-1076(%rbp), %edx
	testl	%edx, %edx
	jle	.L981
	movq	-1088(%rbp), %rax
	movl	%r14d, %r14d
	movq	-1104(%rbp), %rbx
	salq	$8, %r14
	xorl	%r13d, %r13d
	xorl	%r12d, %r12d
	leaq	288(%rax,%r14), %r14
	leaq	-992(%rbp), %rax
	movq	%rax, -1104(%rbp)
	jmp	.L982
	.p2align 4,,10
	.p2align 3
.L1222:
	cmpq	%r15, %rax
	ja	.L976
	movq	%r15, %rdx
	subq	%rax, %rdx
.L978:
	leaq	16+_ZTVN5decaf5BlockE(%rip), %rsi
	addq	-1096(%rbp), %rax
	movq	%rdx, -976(%rbp)
	movq	-1072(%rbp), %rcx
	movq	-1064(%rbp), %rdx
	movq	%rbx, %rdi
	movq	%rsi, -992(%rbp)
	movq	-1104(%rbp), %rsi
	movq	%rax, -984(%rbp)
	call	_Z7encryptRN5decaf5Ed4485PointERKNS_5BlockERKNS0_6ScalarES8_i
.LEHE139:
	movq	-1056(%rbp), %rdx
	addq	$256, %rbx
	addl	$56, %r13d
	movb	%al, (%rdx,%r12)
	addq	$1, %r12
	cmpq	%rbx, %r14
	je	.L981
.L982:
	movl	%r13d, %eax
	movl	%r12d, %r8d
	leaq	56(%rax), %rdx
	cmpq	%r15, %rdx
	jnb	.L1222
	cmpq	%r15, %rax
	ja	.L976
	movq	%r15, %rdx
	subq	%rax, %rdx
	cmpq	$55, %rdx
	ja	.L1223
.L976:
	movl	$8, %edi
	call	__cxa_allocate_exception@PLT
	leaq	16+_ZTVN5decaf15LengthExceptionE(%rip), %rcx
	leaq	_ZN5decaf15LengthExceptionD1Ev(%rip), %rdx
	leaq	_ZTIN5decaf15LengthExceptionE(%rip), %rsi
	movq	%rax, %rdi
	movq	%rcx, (%rax)
.LEHB140:
	call	__cxa_throw@PLT
.LEHE140:
	.p2align 4,,10
	.p2align 3
.L981:
	leaq	-736(%rbp), %rax
	movq	-1056(%rbp), %rdi
	leaq	16(%rax), %r12
	movq	%rax, -1152(%rbp)
	movq	%r12, -736(%rbp)
	call	strlen@PLT
	cmpq	$15, %rax
	movq	%rax, %rbx
	movq	%rax, -992(%rbp)
	ja	.L1224
	cmpq	$1, %rax
	je	.L1225
	testq	%rax, %rax
	movq	%r12, %rdx
	jne	.L1226
.L985:
	movq	_ZSt4cout@GOTPCREL(%rip), %rdi
	leaq	.LC40(%rip), %rsi
	movq	%rax, -728(%rbp)
	movb	$0, (%rdx,%rax)
	movl	$5, %edx
.LEHB141:
	call	_ZSt16__ostream_insertIcSt11char_traitsIcEERSt13basic_ostreamIT_T0_ES6_PKS3_l@PLT
	movq	-1056(%rbp), %rbx
	movq	%rbx, %rdi
	call	strlen@PLT
	movq	_ZSt4cout@GOTPCREL(%rip), %rdi
	movq	%rax, %rdx
	movq	%rbx, %rsi
	call	_ZSt16__ostream_insertIcSt11char_traitsIcEERSt13basic_ostreamIT_T0_ES6_PKS3_l@PLT
	movq	_ZSt4cout@GOTPCREL(%rip), %rax
	movq	_ZSt4cout@GOTPCREL(%rip), %rsi
	movq	(%rax), %rax
	movq	-24(%rax), %rax
	movq	240(%rax,%rsi), %rbx
	testq	%rbx, %rbx
	je	.L1227
	cmpb	$0, 56(%rbx)
	je	.L987
	movsbl	67(%rbx), %esi
.L988:
	movq	_ZSt4cout@GOTPCREL(%rip), %rdi
	call	_ZNSo3putEc@PLT
	movq	%rax, %rdi
	call	_ZNSo5flushEv@PLT
	movq	-728(%rbp), %rdx
	movq	-736(%rbp), %rsi
	movq	-1120(%rbp), %rdi
	call	_ZNSt7__cxx1112basic_stringIcSt11char_traitsIcESaIcEE9_M_appendEPKcm@PLT
	movq	_ZSt4cout@GOTPCREL(%rip), %rdi
	leaq	.LC36(%rip), %rsi
	movl	$8, %edx
	call	_ZSt16__ostream_insertIcSt11char_traitsIcEERSt13basic_ostreamIT_T0_ES6_PKS3_l@PLT
	movq	-952(%rbp), %rdx
	movq	-960(%rbp), %rsi
	movq	_ZSt4cout@GOTPCREL(%rip), %rdi
	call	_ZSt16__ostream_insertIcSt11char_traitsIcEERSt13basic_ostreamIT_T0_ES6_PKS3_l@PLT
	movq	%rax, %r12
	movq	(%rax), %rax
	movq	-24(%rax), %rax
	movq	240(%r12,%rax), %rbx
	testq	%rbx, %rbx
	je	.L1228
	cmpb	$0, 56(%rbx)
	je	.L990
	movsbl	67(%rbx), %esi
.L991:
	movq	%r12, %rdi
	call	_ZNSo3putEc@PLT
	movq	%rax, %rdi
	call	_ZNSo5flushEv@PLT
.LEHE141:
	leaq	-704(%rbp), %rax
	movq	$0, -696(%rbp)
	movb	$0, -688(%rbp)
	movq	%rax, -1096(%rbp)
	addq	$16, %rax
	movq	%rax, -704(%rbp)
	movl	-1076(%rbp), %eax
	testl	%eax, %eax
	jle	.L1004
	leaq	-992(%rbp), %rax
	leaq	-336(%rbp), %r14
	xorl	%r12d, %r12d
	movq	%rax, -1104(%rbp)
	leaq	-1000(%rbp), %rax
	leaq	16(%r14), %r15
	movq	%rax, -1112(%rbp)
	.p2align 4,,10
	.p2align 3
.L1005:
	leaq	16+_ZTVN5decaf12SecureBufferE(%rip), %rax
	movl	$56, %edi
	movq	$0, -984(%rbp)
	movq	$56, -976(%rbp)
	movq	%rax, -992(%rbp)
.LEHB142:
	call	_Znam@PLT
.LEHE142:
	leaq	8(%rax), %rdi
	movq	%rax, -984(%rbp)
	movq	$0, (%rax)
	movq	$0, 48(%rax)
	movl	%r12d, %r8d
	andq	$-8, %rdi
	subq	%rdi, %rax
	leal	56(%rax), %ecx
	xorl	%eax, %eax
	shrl	$3, %ecx
	rep stosq
	movl	$32, %ecx
	movq	-1056(%rbp), %rax
	movq	-1088(%rbp), %rdx
	movq	-1048(%rbp), %rdi
	movq	%r14, -1048(%rbp)
	movzbl	(%rax,%r12), %r9d
	movq	%r12, %rax
	salq	$8, %rax
	leaq	32(%rdx,%rax), %rsi
	movq	-1064(%rbp), %rdx
	rep movsq
	movq	-1072(%rbp), %rcx
	movq	-1104(%rbp), %rdi
	movq	%r14, %rsi
.LEHB143:
	call	_Z7decryptRN5decaf12SecureBufferENS_5Ed4485PointERKNS2_6ScalarES6_ih
.LEHE143:
	movq	%r14, %rdi
.LEHB144:
	call	decaf_448_point_destroy@PLT
.LEHE144:
	movq	-984(%rbp), %r13
	movq	-976(%rbp), %rbx
	movq	%r15, -336(%rbp)
	movq	%r13, %rax
	addq	%rbx, %rax
	je	.L996
	testq	%r13, %r13
	jne	.L996
	leaq	.LC42(%rip), %rdi
.LEHB145:
	call	_ZSt19__throw_logic_errorPKc@PLT
.LEHE145:
	.p2align 4,,10
	.p2align 3
.L996:
	cmpq	$15, %rbx
	movq	%rbx, -1000(%rbp)
	ja	.L1229
	cmpq	$1, %rbx
	je	.L1230
	testq	%rbx, %rbx
	movq	%r15, %rax
	jne	.L1231
.L1001:
	movq	%rbx, -328(%rbp)
	movq	-1096(%rbp), %rdi
	movb	$0, (%rax,%rbx)
	movq	-328(%rbp), %rdx
	movq	-336(%rbp), %rsi
.LEHB146:
	call	_ZNSt7__cxx1112basic_stringIcSt11char_traitsIcESaIcEE9_M_appendEPKcm@PLT
.LEHE146:
	movq	-336(%rbp), %rdi
	cmpq	%r15, %rdi
	je	.L1002
	call	_ZdlPv@PLT
.L1002:
	movq	-984(%rbp), %rdi
	leaq	16+_ZTVN5decaf12SecureBufferE(%rip), %rax
	movq	%rax, -992(%rbp)
	testq	%rdi, %rdi
	je	.L1003
	movq	-976(%rbp), %rsi
.LEHB147:
	call	decaf_bzero@PLT
.LEHE147:
	movq	-984(%rbp), %rdi
	testq	%rdi, %rdi
	je	.L1003
	call	_ZdaPv@PLT
.L1003:
	addq	$1, %r12
	cmpl	%r12d, -1076(%rbp)
	jg	.L1005
.L1004:
	movq	_ZSt4cout@GOTPCREL(%rip), %rdi
	leaq	.LC41(%rip), %rsi
	movl	$14, %edx
.LEHB148:
	call	_ZSt16__ostream_insertIcSt11char_traitsIcEERSt13basic_ostreamIT_T0_ES6_PKS3_l@PLT
	movq	-696(%rbp), %rdx
	movq	-704(%rbp), %rsi
	movq	_ZSt4cout@GOTPCREL(%rip), %rdi
	call	_ZSt16__ostream_insertIcSt11char_traitsIcEERSt13basic_ostreamIT_T0_ES6_PKS3_l@PLT
	movq	%rax, %r12
	movq	(%rax), %rax
	movq	-24(%rax), %rax
	movq	240(%r12,%rax), %rbx
	testq	%rbx, %rbx
	je	.L1232
	cmpb	$0, 56(%rbx)
	je	.L1009
	movsbl	67(%rbx), %esi
.L1010:
	movq	%r12, %rdi
	call	_ZNSo3putEc@PLT
	movq	%rax, %rdi
	call	_ZNSo5flushEv@PLT
.LEHE148:
	movq	-1096(%rbp), %rax
	movq	-704(%rbp), %rdi
	addq	$16, %rax
	cmpq	%rax, %rdi
	je	.L1011
	call	_ZdlPv@PLT
.L1011:
	movq	-1152(%rbp), %rax
	movq	-736(%rbp), %rdi
	addq	$16, %rax
	cmpq	%rax, %rdi
	je	.L1012
	call	_ZdlPv@PLT
.L1012:
	movq	-1136(%rbp), %rax
	movq	-800(%rbp), %rdi
	addq	$16, %rax
	cmpq	%rax, %rdi
	je	.L1013
	call	_ZdlPv@PLT
.L1013:
	movq	-1160(%rbp), %rax
	movq	-832(%rbp), %rdi
	addq	$16, %rax
	cmpq	%rax, %rdi
	je	.L1014
	call	_ZdlPv@PLT
.L1014:
	movq	-1168(%rbp), %rax
	movq	-864(%rbp), %rdi
	addq	$16, %rax
	cmpq	%rax, %rdi
	je	.L1015
	call	_ZdlPv@PLT
.L1015:
	movq	-1072(%rbp), %rdi
.LEHB149:
	call	decaf_448_scalar_destroy@PLT
.LEHE149:
	movq	-1144(%rbp), %rax
	movq	-928(%rbp), %rdi
	addq	$16, %rax
	cmpq	%rax, %rdi
	je	.L1017
	call	_ZdlPv@PLT
.L1017:
	movq	-1120(%rbp), %rax
	movq	-960(%rbp), %rdi
	addq	$16, %rax
	cmpq	%rax, %rdi
	je	.L1020
	call	_ZdlPv@PLT
.L1020:
	movq	-1064(%rbp), %rdi
.LEHB150:
	call	decaf_448_scalar_destroy@PLT
.LEHE150:
	movq	-1128(%rbp), %rdi
.LEHB151:
	call	sponge_destroy@PLT
.LEHE151:
	movq	-56(%rbp), %rsi
	xorq	%fs:40, %rsi
	movl	$1, %eax
	jne	.L1233
	addq	$1120, %rsp
	popq	%rbx
	popq	%r10
	.cfi_remember_state
	.cfi_def_cfa 10, 0
	popq	%r12
	popq	%r13
	popq	%r14
	popq	%r15
	popq	%rbp
	leaq	-8(%r10), %rsp
	.cfi_def_cfa 7, 8
	ret
	.p2align 4,,10
	.p2align 3
.L1229:
	.cfi_restore_state
	movq	-1112(%rbp), %rsi
	xorl	%edx, %edx
	movq	%r14, %rdi
.LEHB152:
	call	_ZNSt7__cxx1112basic_stringIcSt11char_traitsIcESaIcEE9_M_createERmm@PLT
.LEHE152:
	movq	%rax, %rdi
	movq	%rax, -336(%rbp)
	movq	-1000(%rbp), %rax
	movq	%rax, -320(%rbp)
.L999:
	movq	%rbx, %rdx
	movq	%r13, %rsi
	call	memcpy@PLT
	movq	-1000(%rbp), %rbx
	movq	-336(%rbp), %rax
	jmp	.L1001
	.p2align 4,,10
	.p2align 3
.L1230:
	movzbl	0(%r13), %eax
	movb	%al, -320(%rbp)
	movq	%r15, %rax
	jmp	.L1001
	.p2align 4,,10
	.p2align 3
.L1231:
	movq	%r15, %rdi
	jmp	.L999
.L1208:
	leaq	-1024(%rbp), %rsi
	xorl	%edx, %edx
	movq	%r12, %rdi
.LEHB153:
	call	_ZNSt7__cxx1112basic_stringIcSt11char_traitsIcESaIcEE9_M_createERmm@PLT
.LEHE153:
	movq	-1024(%rbp), %rdx
	movq	%rax, -896(%rbp)
	movq	%rdx, -880(%rbp)
.L916:
	movq	%rbx, %rdx
	movq	%r13, %rsi
	movq	%rax, %rdi
	call	memcpy@PLT
	movq	-1024(%rbp), %rbx
	movq	-896(%rbp), %rax
	jmp	.L918
.L1218:
	leaq	-1008(%rbp), %rsi
	xorl	%edx, %edx
	movq	%r13, %rdi
.LEHB154:
	call	_ZNSt7__cxx1112basic_stringIcSt11char_traitsIcESaIcEE9_M_createERmm@PLT
.LEHE154:
	movq	-1008(%rbp), %rdx
	movq	%rax, -768(%rbp)
	movq	%rdx, -752(%rbp)
.L960:
	movq	%rbx, %rdx
	movq	%r12, %rsi
	movq	%rax, %rdi
	call	memcpy@PLT
	movq	-1008(%rbp), %rbx
	movq	-768(%rbp), %rax
	jmp	.L962
.L911:
	movq	%rbx, %rdi
.LEHB155:
	call	_ZNKSt5ctypeIcE13_M_widen_initEv@PLT
	movq	(%rbx), %rax
	movl	$10, %esi
	movq	48(%rax), %rax
	cmpq	_ZNKSt5ctypeIcE8do_widenEc@GOTPCREL(%rip), %rax
	je	.L912
	movq	%rbx, %rdi
	call	*%rax
.LEHE155:
	movsbl	%al, %esi
	jmp	.L912
.L876:
	movq	%rbx, %rdi
.LEHB156:
	call	_ZNKSt5ctypeIcE13_M_widen_initEv@PLT
	movq	(%rbx), %rax
	movl	$10, %esi
	movq	48(%rax), %rax
	cmpq	_ZNKSt5ctypeIcE8do_widenEc@GOTPCREL(%rip), %rax
	je	.L877
	movq	%rbx, %rdi
	call	*%rax
	movsbl	%al, %esi
	jmp	.L877
.L873:
	movq	%rbx, %rdi
	call	_ZNKSt5ctypeIcE13_M_widen_initEv@PLT
	movq	(%rbx), %rax
	movl	$10, %esi
	movq	48(%rax), %rax
	cmpq	_ZNKSt5ctypeIcE8do_widenEc@GOTPCREL(%rip), %rax
	je	.L874
	movq	%rbx, %rdi
	call	*%rax
.LEHE156:
	movsbl	%al, %esi
	jmp	.L874
.L948:
	movq	%rbx, %rdi
.LEHB157:
	call	_ZNKSt5ctypeIcE13_M_widen_initEv@PLT
	movq	(%rbx), %rax
	movl	$10, %esi
	movq	48(%rax), %rax
	cmpq	_ZNKSt5ctypeIcE8do_widenEc@GOTPCREL(%rip), %rax
	je	.L949
	movq	%rbx, %rdi
	call	*%rax
.LEHE157:
	movsbl	%al, %esi
	jmp	.L949
.L904:
	movq	%r12, %rdi
.LEHB158:
	call	_ZNKSt5ctypeIcE13_M_widen_initEv@PLT
	movq	(%r12), %rax
	movl	$10, %esi
	movq	48(%rax), %rax
	cmpq	_ZNKSt5ctypeIcE8do_widenEc@GOTPCREL(%rip), %rax
	je	.L905
	movq	%r12, %rdi
	call	*%rax
.LEHE158:
	movsbl	%al, %esi
	jmp	.L905
.L955:
	movq	%rbx, %rdi
.LEHB159:
	call	_ZNKSt5ctypeIcE13_M_widen_initEv@PLT
	movq	(%rbx), %rax
	movl	$10, %esi
	movq	48(%rax), %rax
	cmpq	_ZNKSt5ctypeIcE8do_widenEc@GOTPCREL(%rip), %rax
	je	.L956
	movq	%rbx, %rdi
	call	*%rax
.LEHE159:
	movsbl	%al, %esi
	jmp	.L956
.L926:
	movq	%rbx, %rdi
.LEHB160:
	call	_ZNKSt5ctypeIcE13_M_widen_initEv@PLT
	movq	(%rbx), %rax
	movl	$10, %esi
	movq	48(%rax), %rax
	cmpq	_ZNKSt5ctypeIcE8do_widenEc@GOTPCREL(%rip), %rax
	je	.L927
	movq	%rbx, %rdi
	call	*%rax
.LEHE160:
	movsbl	%al, %esi
	jmp	.L927
.L970:
	movq	%rbx, %rdi
.LEHB161:
	call	_ZNKSt5ctypeIcE13_M_widen_initEv@PLT
	movq	(%rbx), %rax
	movl	$10, %esi
	movq	48(%rax), %rax
	cmpq	_ZNKSt5ctypeIcE8do_widenEc@GOTPCREL(%rip), %rax
	je	.L971
	movq	%rbx, %rdi
	call	*%rax
.LEHE161:
	movsbl	%al, %esi
	jmp	.L971
.L942:
	movq	%rbx, %rdi
.LEHB162:
	call	_ZNKSt5ctypeIcE13_M_widen_initEv@PLT
	movq	(%rbx), %rax
	movl	$10, %esi
	movq	48(%rax), %rax
	cmpq	_ZNKSt5ctypeIcE8do_widenEc@GOTPCREL(%rip), %rax
	je	.L943
	movq	%rbx, %rdi
	call	*%rax
.LEHE162:
	movsbl	%al, %esi
	jmp	.L943
.L987:
	movq	%rbx, %rdi
.LEHB163:
	call	_ZNKSt5ctypeIcE13_M_widen_initEv@PLT
	movq	(%rbx), %rax
	movl	$10, %esi
	movq	48(%rax), %rax
	cmpq	_ZNKSt5ctypeIcE8do_widenEc@GOTPCREL(%rip), %rax
	je	.L988
	movq	%rbx, %rdi
	call	*%rax
	movsbl	%al, %esi
	jmp	.L988
.L990:
	movq	%rbx, %rdi
	call	_ZNKSt5ctypeIcE13_M_widen_initEv@PLT
	movq	(%rbx), %rax
	movl	$10, %esi
	movq	48(%rax), %rax
	cmpq	_ZNKSt5ctypeIcE8do_widenEc@GOTPCREL(%rip), %rax
	je	.L991
	movq	%rbx, %rdi
	call	*%rax
.LEHE163:
	movsbl	%al, %esi
	jmp	.L991
.L1009:
	movq	%rbx, %rdi
.LEHB164:
	call	_ZNKSt5ctypeIcE13_M_widen_initEv@PLT
	movq	(%rbx), %rax
	movl	$10, %esi
	movq	48(%rax), %rax
	cmpq	_ZNKSt5ctypeIcE8do_widenEc@GOTPCREL(%rip), %rax
	je	.L1010
	movq	%rbx, %rdi
	call	*%rax
.LEHE164:
	movsbl	%al, %esi
	jmp	.L1010
.L1204:
	movq	-1144(%rbp), %rdi
	leaq	-1032(%rbp), %rsi
	xorl	%edx, %edx
.LEHB165:
	call	_ZNSt7__cxx1112basic_stringIcSt11char_traitsIcESaIcEE9_M_createERmm@PLT
.LEHE165:
	movq	-1032(%rbp), %rdx
	movq	%rax, -928(%rbp)
	movq	%rdx, -912(%rbp)
.L907:
	movq	%r12, %rdx
	movq	%rbx, %rsi
	movq	%rax, %rdi
	call	memcpy@PLT
	movq	-1032(%rbp), %rax
	movq	-928(%rbp), %rdx
	jmp	.L909
.L1214:
	movq	-1136(%rbp), %rdi
	leaq	-1016(%rbp), %rsi
	xorl	%edx, %edx
.LEHB166:
	call	_ZNSt7__cxx1112basic_stringIcSt11char_traitsIcESaIcEE9_M_createERmm@PLT
.LEHE166:
	movq	-1016(%rbp), %rdx
	movq	%rax, -800(%rbp)
	movq	%rdx, -784(%rbp)
.L951:
	movq	%rbx, %rdx
	movq	%r12, %rsi
	movq	%rax, %rdi
	call	memcpy@PLT
	movq	-1016(%rbp), %rax
	movq	-800(%rbp), %rdx
	jmp	.L953
.L1224:
	movq	-1152(%rbp), %rdi
	leaq	-992(%rbp), %rsi
	xorl	%edx, %edx
.LEHB167:
	call	_ZNSt7__cxx1112basic_stringIcSt11char_traitsIcESaIcEE9_M_createERmm@PLT
.LEHE167:
	movq	%rax, %rdi
	movq	%rax, -736(%rbp)
	movq	-992(%rbp), %rax
	movq	%rax, -720(%rbp)
.L983:
	movq	-1056(%rbp), %rsi
	movq	%rbx, %rdx
	call	memcpy@PLT
	movq	-992(%rbp), %rax
	movq	-736(%rbp), %rdx
	jmp	.L985
.L1215:
	movzbl	(%r12), %edx
	movb	%dl, -784(%rbp)
	movq	%r13, %rdx
	jmp	.L953
.L1225:
	movq	-1056(%rbp), %rsi
	movzbl	(%rsi), %edx
	movb	%dl, -720(%rbp)
	movq	%r12, %rdx
	jmp	.L985
.L1209:
	movzbl	0(%r13), %eax
	movb	%al, -880(%rbp)
	leaq	16(%r12), %rax
	jmp	.L918
.L1219:
	movzbl	(%r12), %eax
	movb	%al, -752(%rbp)
	leaq	16(%r13), %rax
	jmp	.L962
.L1205:
	movzbl	(%rbx), %edx
	movb	%dl, -912(%rbp)
	movq	%r13, %rdx
	jmp	.L909
.L1201:
	movq	_ZSt4cout@GOTPCREL(%rip), %rax
	movq	_ZSt4cout@GOTPCREL(%rip), %rdi
	movq	(%rax), %rax
	addq	-24(%rax), %rdi
	movl	32(%rdi), %esi
	orl	$1, %esi
.LEHB168:
	call	_ZNSt9basic_iosIcSt11char_traitsIcEE5clearESt12_Ios_Iostate@PLT
	jmp	.L871
	.p2align 4,,10
	.p2align 3
.L1101:
	cmpq	$-6, %rdx
	je	.L1234
.L1157:
	movq	%rax, %rbx
	vzeroupper
.L967:
	movq	-1136(%rbp), %rax
	movq	-800(%rbp), %rdi
	addq	$16, %rax
	cmpq	%rax, %rdi
	je	.L1040
	call	_ZdlPv@PLT
.L1040:
	movq	-1160(%rbp), %rax
	movq	-832(%rbp), %rdi
	addq	$16, %rax
	cmpq	%rax, %rdi
	je	.L1041
	call	_ZdlPv@PLT
.L1041:
	movq	-1168(%rbp), %rax
	movq	-864(%rbp), %rdi
	addq	$16, %rax
	cmpq	%rax, %rdi
	je	.L1042
	call	_ZdlPv@PLT
.L1042:
	movq	-1072(%rbp), %rdi
	call	_ZN5decaf5Ed4486ScalarD1Ev
.L923:
	movq	-1144(%rbp), %rax
	movq	-928(%rbp), %rdi
	addq	$16, %rax
	cmpq	%rax, %rdi
	je	.L1044
	call	_ZdlPv@PLT
.L1044:
	movq	-1120(%rbp), %rax
	movq	-960(%rbp), %rdi
	addq	$16, %rax
	cmpq	%rax, %rdi
	je	.L1045
	call	_ZdlPv@PLT
.L1045:
	movq	-1064(%rbp), %rdi
	call	_ZN5decaf5Ed4486ScalarD1Ev
	movq	-1128(%rbp), %rdi
	call	_ZN5decaf12KeccakSpongeD2Ev
.L1161:
	movq	%rbx, %rdi
	call	_Unwind_Resume@PLT
.LEHE168:
	.p2align 4,,10
	.p2align 3
.L1083:
	movq	%rax, %rbx
	vzeroupper
.L1032:
	leaq	16+_ZTVN5decaf12SecureBufferE(%rip), %rax
	movq	%rax, -992(%rbp)
	movq	-1104(%rbp), %rax
	leaq	16(%rax), %rsi
	leaq	8(%rax), %rdi
	call	_ZN5decaf12SecureBuffer5clearEv.isra.17
.L1035:
	movq	-1096(%rbp), %rax
	movq	-704(%rbp), %rdi
	addq	$16, %rax
	cmpq	%rax, %rdi
	je	.L1037
	call	_ZdlPv@PLT
.L1037:
	movq	-1152(%rbp), %rax
	movq	-736(%rbp), %rdi
	addq	$16, %rax
	cmpq	%rax, %rdi
	je	.L967
	call	_ZdlPv@PLT
	jmp	.L967
.L1079:
	jmp	.L1157
.L1076:
	movq	%rax, %rbx
	vzeroupper
	jmp	.L923
	.p2align 4,,10
	.p2align 3
.L1216:
	movq	%r13, %rax
	jmp	.L951
.L1206:
	movq	%r13, %rax
	jmp	.L907
.L1226:
	movq	%r12, %rdi
	jmp	.L983
.L1234:
	movq	%rax, %rdi
	vzeroupper
.LEHB169:
	call	__cxa_call_unexpected@PLT
.LEHE169:
.L1213:
.LEHB170:
	call	_ZSt16__throw_bad_castv@PLT
.LEHE170:
.L1086:
	movq	-1128(%rbp), %rdi
	movq	%rax, %rbx
	movq	%rdx, %r12
	vzeroupper
	call	_ZN5decaf12KeccakSpongeD2Ev
	cmpq	$-1, %r12
	je	.L1235
.L885:
	movq	-1048(%rbp), %rax
	movq	-336(%rbp), %rdi
	addq	$16, %rax
	cmpq	%rax, %rdi
	je	.L1161
	call	_ZdlPv@PLT
	jmp	.L1161
.L1078:
	movq	%rax, %rbx
	vzeroupper
	jmp	.L1040
.L1095:
	cmpq	$-4, %rdx
	movq	%rax, %rdi
	je	.L1236
.L1171:
	cmpq	$-3, %rdx
	je	.L1025
	vzeroupper
.LEHB171:
	call	_Unwind_Resume@PLT
.LEHE171:
.L1232:
.LEHB172:
	call	_ZSt16__throw_bad_castv@PLT
.LEHE172:
.L1025:
	vzeroupper
.LEHB173:
	call	__cxa_call_unexpected@PLT
.LEHE173:
.L1236:
	vzeroupper
.LEHB174:
	call	__cxa_call_unexpected@PLT
.LEHE174:
.L875:
.LEHB175:
	call	_ZSt16__throw_bad_castv@PLT
.LEHE175:
.L1210:
	leaq	.LC34(%rip), %rdi
.LEHB176:
	call	_ZSt20__throw_length_errorPKc@PLT
.LEHE176:
.L1094:
.L1164:
	movq	%rax, %rdi
	jmp	.L1171
.L1098:
	jmp	.L1164
.L1096:
	jmp	.L1164
.L1097:
	jmp	.L1164
.L1235:
	movq	%rbx, %rdi
.LEHB177:
	call	__cxa_call_unexpected@PLT
.LEHE177:
.L1220:
	leaq	.LC34(%rip), %rdi
.LEHB178:
	call	_ZSt20__throw_length_errorPKc@PLT
.LEHE178:
.L1084:
	movq	-336(%rbp), %rdi
	addq	$16, %r14
	movq	%rax, %rbx
	cmpq	%r14, %rdi
	je	.L1153
	vzeroupper
	call	_ZdlPv@PLT
	jmp	.L1032
.L1223:
	movl	$56, %edx
	jmp	.L978
.L1153:
	vzeroupper
	jmp	.L1032
.L1102:
	jmp	.L1164
.L1082:
	movq	%rax, %rbx
	movq	%r14, %rdi
	vzeroupper
	call	_ZN5decaf5Ed4485PointD1Ev
	jmp	.L1032
.L1085:
	movq	%rax, %rbx
	vzeroupper
	jmp	.L1035
.L1092:
	jmp	.L1164
.L1075:
	movq	%rax, %rbx
	vzeroupper
	jmp	.L1044
.L1090:
	jmp	.L1164
.L1091:
	jmp	.L1164
.L1089:
	jmp	.L1164
.L1088:
	cmpq	$-4, %rdx
	movq	%rax, %rdi
	jne	.L1171
	vzeroupper
.LEHB179:
	call	__cxa_call_unexpected@PLT
.LEHE179:
.L1202:
	movl	$24, %edi
	call	__cxa_allocate_exception@PLT
	leaq	16+_ZTVN5decaf9SpongeRng12RngExceptionE(%rip), %rsi
	leaq	_ZN5decaf9SpongeRng12RngExceptionD1Ev(%rip), %rdx
	movl	%ebx, 16(%rax)
	movq	%rax, %rdi
	movq	%rsi, (%rax)
	leaq	.LC31(%rip), %rsi
	movq	%rsi, 8(%rax)
	leaq	_ZTIN5decaf9SpongeRng12RngExceptionE(%rip), %rsi
.LEHB180:
	call	__cxa_throw@PLT
.LEHE180:
.L1087:
	jmp	.L1164
.L1203:
.LEHB181:
	call	_ZSt16__throw_bad_castv@PLT
.LEHE181:
.L1221:
.LEHB182:
	call	_ZSt16__throw_bad_castv@PLT
.LEHE182:
.L1099:
	jmp	.L1164
.L1212:
.LEHB183:
	call	_ZSt16__throw_bad_castv@PLT
.LEHE183:
.L1093:
.L1180:
	movq	-896(%rbp), %rdi
	addq	$16, %r12
	movq	%rax, %rbx
	cmpq	%r12, %rdi
	je	.L1151
	vzeroupper
	call	_ZdlPv@PLT
	jmp	.L923
.L1233:
	call	__stack_chk_fail@PLT
.L1151:
	vzeroupper
	jmp	.L923
.L1105:
	jmp	.L1164
.L1106:
	jmp	.L1164
.L1104:
	jmp	.L1164
.L1227:
.LEHB184:
	call	_ZSt16__throw_bad_castv@PLT
.L1228:
	call	_ZSt16__throw_bad_castv@PLT
.LEHE184:
.L1103:
	jmp	.L1164
.L1100:
.L1182:
	movq	-768(%rbp), %rdi
	addq	$16, %r13
	movq	%rax, %rbx
	cmpq	%r13, %rdi
	je	.L1152
	vzeroupper
	call	_ZdlPv@PLT
	jmp	.L967
.L1217:
.LEHB185:
	call	_ZSt16__throw_bad_castv@PLT
.LEHE185:
.L1152:
	vzeroupper
	jmp	.L967
.L1211:
.LEHB186:
	call	_ZSt16__throw_bad_castv@PLT
.L1077:
	jmp	.L1180
.L1207:
	call	_ZSt16__throw_bad_castv@PLT
.LEHE186:
.L1080:
	jmp	.L1182
.L1081:
	movq	%rax, %rbx
	vzeroupper
	jmp	.L1037
.L1074:
	movq	%rax, %rbx
	vzeroupper
	jmp	.L885
	.cfi_endproc
.LFE2063:
	.section	.gcc_except_table._Z11wwh_encryptPcS_,"a",@progbits
	.align 4
.LLSDA2063:
	.byte	0xff
	.byte	0x9b
	.uleb128 .LLSDATT2063-.LLSDATTD2063
.LLSDATTD2063:
	.byte	0x1
	.uleb128 .LLSDACSE2063-.LLSDACSB2063
.LLSDACSB2063:
	.uleb128 .LEHB116-.LFB2063
	.uleb128 .LEHE116-.LEHB116
	.uleb128 0
	.uleb128 0
	.uleb128 .LEHB117-.LFB2063
	.uleb128 .LEHE117-.LEHB117
	.uleb128 .L1086-.LFB2063
	.uleb128 0x3
	.uleb128 .LEHB118-.LFB2063
	.uleb128 .LEHE118-.LEHB118
	.uleb128 .L1088-.LFB2063
	.uleb128 0x7
	.uleb128 .LEHB119-.LFB2063
	.uleb128 .LEHE119-.LEHB119
	.uleb128 .L1089-.LFB2063
	.uleb128 0x5
	.uleb128 .LEHB120-.LFB2063
	.uleb128 .LEHE120-.LEHB120
	.uleb128 .L1091-.LFB2063
	.uleb128 0x5
	.uleb128 .LEHB121-.LFB2063
	.uleb128 .LEHE121-.LEHB121
	.uleb128 .L1090-.LFB2063
	.uleb128 0x5
	.uleb128 .LEHB122-.LFB2063
	.uleb128 .LEHE122-.LEHB122
	.uleb128 .L1075-.LFB2063
	.uleb128 0
	.uleb128 .LEHB123-.LFB2063
	.uleb128 .LEHE123-.LEHB123
	.uleb128 .L1092-.LFB2063
	.uleb128 0x5
	.uleb128 .LEHB124-.LFB2063
	.uleb128 .LEHE124-.LEHB124
	.uleb128 .L1075-.LFB2063
	.uleb128 0
	.uleb128 .LEHB125-.LFB2063
	.uleb128 .LEHE125-.LEHB125
	.uleb128 .L1076-.LFB2063
	.uleb128 0
	.uleb128 .LEHB126-.LFB2063
	.uleb128 .LEHE126-.LEHB126
	.uleb128 .L1093-.LFB2063
	.uleb128 0
	.uleb128 .LEHB127-.LFB2063
	.uleb128 .LEHE127-.LEHB127
	.uleb128 .L1077-.LFB2063
	.uleb128 0
	.uleb128 .LEHB128-.LFB2063
	.uleb128 .LEHE128-.LEHB128
	.uleb128 .L1076-.LFB2063
	.uleb128 0
	.uleb128 .LEHB129-.LFB2063
	.uleb128 .LEHE129-.LEHB129
	.uleb128 .L1095-.LFB2063
	.uleb128 0x7
	.uleb128 .LEHB130-.LFB2063
	.uleb128 .LEHE130-.LEHB130
	.uleb128 .L1096-.LFB2063
	.uleb128 0x5
	.uleb128 .LEHB131-.LFB2063
	.uleb128 .LEHE131-.LEHB131
	.uleb128 .L1098-.LFB2063
	.uleb128 0x5
	.uleb128 .LEHB132-.LFB2063
	.uleb128 .LEHE132-.LEHB132
	.uleb128 .L1097-.LFB2063
	.uleb128 0x5
	.uleb128 .LEHB133-.LFB2063
	.uleb128 .LEHE133-.LEHB133
	.uleb128 .L1078-.LFB2063
	.uleb128 0
	.uleb128 .LEHB134-.LFB2063
	.uleb128 .LEHE134-.LEHB134
	.uleb128 .L1099-.LFB2063
	.uleb128 0x5
	.uleb128 .LEHB135-.LFB2063
	.uleb128 .LEHE135-.LEHB135
	.uleb128 .L1078-.LFB2063
	.uleb128 0
	.uleb128 .LEHB136-.LFB2063
	.uleb128 .LEHE136-.LEHB136
	.uleb128 .L1079-.LFB2063
	.uleb128 0
	.uleb128 .LEHB137-.LFB2063
	.uleb128 .LEHE137-.LEHB137
	.uleb128 .L1100-.LFB2063
	.uleb128 0
	.uleb128 .LEHB138-.LFB2063
	.uleb128 .LEHE138-.LEHB138
	.uleb128 .L1080-.LFB2063
	.uleb128 0
	.uleb128 .LEHB139-.LFB2063
	.uleb128 .LEHE139-.LEHB139
	.uleb128 .L1079-.LFB2063
	.uleb128 0
	.uleb128 .LEHB140-.LFB2063
	.uleb128 .LEHE140-.LEHB140
	.uleb128 .L1101-.LFB2063
	.uleb128 0x9
	.uleb128 .LEHB141-.LFB2063
	.uleb128 .LEHE141-.LEHB141
	.uleb128 .L1081-.LFB2063
	.uleb128 0
	.uleb128 .LEHB142-.LFB2063
	.uleb128 .LEHE142-.LEHB142
	.uleb128 .L1085-.LFB2063
	.uleb128 0
	.uleb128 .LEHB143-.LFB2063
	.uleb128 .LEHE143-.LEHB143
	.uleb128 .L1082-.LFB2063
	.uleb128 0
	.uleb128 .LEHB144-.LFB2063
	.uleb128 .LEHE144-.LEHB144
	.uleb128 .L1102-.LFB2063
	.uleb128 0x5
	.uleb128 .LEHB145-.LFB2063
	.uleb128 .LEHE145-.LEHB145
	.uleb128 .L1083-.LFB2063
	.uleb128 0
	.uleb128 .LEHB146-.LFB2063
	.uleb128 .LEHE146-.LEHB146
	.uleb128 .L1084-.LFB2063
	.uleb128 0
	.uleb128 .LEHB147-.LFB2063
	.uleb128 .LEHE147-.LEHB147
	.uleb128 .L1103-.LFB2063
	.uleb128 0x5
	.uleb128 .LEHB148-.LFB2063
	.uleb128 .LEHE148-.LEHB148
	.uleb128 .L1085-.LFB2063
	.uleb128 0
	.uleb128 .LEHB149-.LFB2063
	.uleb128 .LEHE149-.LEHB149
	.uleb128 .L1104-.LFB2063
	.uleb128 0x5
	.uleb128 .LEHB150-.LFB2063
	.uleb128 .LEHE150-.LEHB150
	.uleb128 .L1106-.LFB2063
	.uleb128 0x5
	.uleb128 .LEHB151-.LFB2063
	.uleb128 .LEHE151-.LEHB151
	.uleb128 .L1105-.LFB2063
	.uleb128 0x5
	.uleb128 .LEHB152-.LFB2063
	.uleb128 .LEHE152-.LEHB152
	.uleb128 .L1083-.LFB2063
	.uleb128 0
	.uleb128 .LEHB153-.LFB2063
	.uleb128 .LEHE153-.LEHB153
	.uleb128 .L1076-.LFB2063
	.uleb128 0
	.uleb128 .LEHB154-.LFB2063
	.uleb128 .LEHE154-.LEHB154
	.uleb128 .L1079-.LFB2063
	.uleb128 0
	.uleb128 .LEHB155-.LFB2063
	.uleb128 .LEHE155-.LEHB155
	.uleb128 .L1076-.LFB2063
	.uleb128 0
	.uleb128 .LEHB156-.LFB2063
	.uleb128 .LEHE156-.LEHB156
	.uleb128 0
	.uleb128 0
	.uleb128 .LEHB157-.LFB2063
	.uleb128 .LEHE157-.LEHB157
	.uleb128 .L1078-.LFB2063
	.uleb128 0
	.uleb128 .LEHB158-.LFB2063
	.uleb128 .LEHE158-.LEHB158
	.uleb128 .L1075-.LFB2063
	.uleb128 0
	.uleb128 .LEHB159-.LFB2063
	.uleb128 .LEHE159-.LEHB159
	.uleb128 .L1079-.LFB2063
	.uleb128 0
	.uleb128 .LEHB160-.LFB2063
	.uleb128 .LEHE160-.LEHB160
	.uleb128 .L1076-.LFB2063
	.uleb128 0
	.uleb128 .LEHB161-.LFB2063
	.uleb128 .LEHE161-.LEHB161
	.uleb128 .L1079-.LFB2063
	.uleb128 0
	.uleb128 .LEHB162-.LFB2063
	.uleb128 .LEHE162-.LEHB162
	.uleb128 .L1078-.LFB2063
	.uleb128 0
	.uleb128 .LEHB163-.LFB2063
	.uleb128 .LEHE163-.LEHB163
	.uleb128 .L1081-.LFB2063
	.uleb128 0
	.uleb128 .LEHB164-.LFB2063
	.uleb128 .LEHE164-.LEHB164
	.uleb128 .L1085-.LFB2063
	.uleb128 0
	.uleb128 .LEHB165-.LFB2063
	.uleb128 .LEHE165-.LEHB165
	.uleb128 .L1075-.LFB2063
	.uleb128 0
	.uleb128 .LEHB166-.LFB2063
	.uleb128 .LEHE166-.LEHB166
	.uleb128 .L1078-.LFB2063
	.uleb128 0
	.uleb128 .LEHB167-.LFB2063
	.uleb128 .LEHE167-.LEHB167
	.uleb128 .L1079-.LFB2063
	.uleb128 0
	.uleb128 .LEHB168-.LFB2063
	.uleb128 .LEHE168-.LEHB168
	.uleb128 0
	.uleb128 0
	.uleb128 .LEHB169-.LFB2063
	.uleb128 .LEHE169-.LEHB169
	.uleb128 .L1079-.LFB2063
	.uleb128 0
	.uleb128 .LEHB170-.LFB2063
	.uleb128 .LEHE170-.LEHB170
	.uleb128 .L1078-.LFB2063
	.uleb128 0
	.uleb128 .LEHB171-.LFB2063
	.uleb128 .LEHE171-.LEHB171
	.uleb128 0
	.uleb128 0
	.uleb128 .LEHB172-.LFB2063
	.uleb128 .LEHE172-.LEHB172
	.uleb128 .L1085-.LFB2063
	.uleb128 0
	.uleb128 .LEHB173-.LFB2063
	.uleb128 .LEHE173-.LEHB173
	.uleb128 0
	.uleb128 0
	.uleb128 .LEHB174-.LFB2063
	.uleb128 .LEHE174-.LEHB174
	.uleb128 .L1094-.LFB2063
	.uleb128 0x5
	.uleb128 .LEHB175-.LFB2063
	.uleb128 .LEHE175-.LEHB175
	.uleb128 0
	.uleb128 0
	.uleb128 .LEHB176-.LFB2063
	.uleb128 .LEHE176-.LEHB176
	.uleb128 .L1093-.LFB2063
	.uleb128 0
	.uleb128 .LEHB177-.LFB2063
	.uleb128 .LEHE177-.LEHB177
	.uleb128 .L1074-.LFB2063
	.uleb128 0
	.uleb128 .LEHB178-.LFB2063
	.uleb128 .LEHE178-.LEHB178
	.uleb128 .L1100-.LFB2063
	.uleb128 0
	.uleb128 .LEHB179-.LFB2063
	.uleb128 .LEHE179-.LEHB179
	.uleb128 .L1087-.LFB2063
	.uleb128 0x5
	.uleb128 .LEHB180-.LFB2063
	.uleb128 .LEHE180-.LEHB180
	.uleb128 .L1086-.LFB2063
	.uleb128 0x3
	.uleb128 .LEHB181-.LFB2063
	.uleb128 .LEHE181-.LEHB181
	.uleb128 .L1075-.LFB2063
	.uleb128 0
	.uleb128 .LEHB182-.LFB2063
	.uleb128 .LEHE182-.LEHB182
	.uleb128 .L1079-.LFB2063
	.uleb128 0
	.uleb128 .LEHB183-.LFB2063
	.uleb128 .LEHE183-.LEHB183
	.uleb128 .L1078-.LFB2063
	.uleb128 0
	.uleb128 .LEHB184-.LFB2063
	.uleb128 .LEHE184-.LEHB184
	.uleb128 .L1081-.LFB2063
	.uleb128 0
	.uleb128 .LEHB185-.LFB2063
	.uleb128 .LEHE185-.LEHB185
	.uleb128 .L1079-.LFB2063
	.uleb128 0
	.uleb128 .LEHB186-.LFB2063
	.uleb128 .LEHE186-.LEHB186
	.uleb128 .L1076-.LFB2063
	.uleb128 0
.LLSDACSE2063:
	.byte	0
	.byte	0
	.byte	0x7f
	.byte	0x7d
	.byte	0x7d
	.byte	0
	.byte	0x7c
	.byte	0x7d
	.byte	0x7a
	.byte	0x77
	.align 4
	.long	DW.ref._ZTIN5decaf15LengthExceptionE-.
	.long	DW.ref._ZTISt9bad_alloc-.
	.long	DW.ref._ZTIN5decaf9SpongeRng12RngExceptionE-.
.LLSDATT2063:
	.byte	0x1
	.byte	0
	.byte	0
	.byte	0x2
	.byte	0
	.byte	0x3
	.byte	0
	.section	.text._Z11wwh_encryptPcS_
	.size	_Z11wwh_encryptPcS_, .-_Z11wwh_encryptPcS_
	.section	.text.unlikely._Z11wwh_encryptPcS_
.LCOLDE43:
	.section	.text._Z11wwh_encryptPcS_
.LHOTE43:
	.section	.rodata.str1.1
.LC44:
	.string	"second_decrypt:"
	.section	.text.unlikely._Z10basic_testv,"ax",@progbits
.LCOLDB45:
	.section	.text._Z10basic_testv,"ax",@progbits
.LHOTB45:
	.p2align 4,,15
	.globl	_Z10basic_testv
	.hidden	_Z10basic_testv
	.type	_Z10basic_testv, @function
_Z10basic_testv:
.LFB2067:
	.cfi_startproc
	.cfi_personality 0x9b,DW.ref.__gxx_personality_v0
	.cfi_lsda 0x1b,.LLSDA2067
	leaq	8(%rsp), %r10
	.cfi_def_cfa 10, 0
	andq	$-32, %rsp
	xorl	%edi, %edi
	pushq	-8(%r10)
	pushq	%rbp
	.cfi_escape 0x10,0x6,0x2,0x76,0
	movq	%rsp, %rbp
	pushq	%r15
	pushq	%r14
	.cfi_escape 0x10,0xf,0x2,0x76,0x78
	.cfi_escape 0x10,0xe,0x2,0x76,0x70
	leaq	-160(%rbp), %r15
	pushq	%r13
	pushq	%r12
	pushq	%r10
	.cfi_escape 0xf,0x3,0x76,0x58,0x6
	.cfi_escape 0x10,0xd,0x2,0x76,0x68
	.cfi_escape 0x10,0xc,0x2,0x76,0x60
	pushq	%rbx
	leaq	_ZZ10gen_randomPciE8alphanum(%rip), %r14
	leaq	100(%r15), %r12
	movq	%r15, %r13
	.cfi_escape 0x10,0x3,0x2,0x76,0x50
	movabsq	$-8925843906633654007, %rbx
	subq	$1120, %rsp
	movq	%fs:40, %rax
	movq	%rax, -56(%rbp)
	xorl	%eax, %eax
	call	time@PLT
	movl	%eax, %edi
	call	srand@PLT
	.p2align 4,,10
	.p2align 3
.L1238:
	call	rand@PLT
	movslq	%eax, %rcx
	addq	$1, %r13
	movq	%rcx, %rdx
	shrq	%rdx
	movq	%rdx, %rax
	mulq	%rbx
	shrq	$4, %rdx
	movq	%rdx, %rsi
	leaq	(%rcx,%rdx,2), %rax
	salq	$6, %rsi
	subq	%rsi, %rax
	movzbl	(%r14,%rax), %eax
	movb	%al, -1(%r13)
	cmpq	%r12, %r13
	jne	.L1238
	movq	_ZSt4cout@GOTPCREL(%rip), %rdi
	leaq	.LC29(%rip), %rsi
	movl	$9, %edx
	movb	$0, -60(%rbp)
.LEHB187:
	call	_ZSt16__ostream_insertIcSt11char_traitsIcEERSt13basic_ostreamIT_T0_ES6_PKS3_l@PLT
	movq	%r15, %rdx
.L1239:
	movl	(%rdx), %ecx
	addq	$4, %rdx
	leal	-16843009(%rcx), %eax
	notl	%ecx
	andl	%ecx, %eax
	andl	$-2139062144, %eax
	je	.L1239
	movl	%eax, %ecx
	movq	_ZSt4cout@GOTPCREL(%rip), %rdi
	shrl	$16, %ecx
	testl	$32896, %eax
	cmove	%ecx, %eax
	leaq	2(%rdx), %rcx
	movl	%eax, %esi
	cmove	%rcx, %rdx
	addb	%al, %sil
	movq	%r15, %rsi
	sbbq	$3, %rdx
	subq	%r15, %rdx
	call	_ZSt16__ostream_insertIcSt11char_traitsIcEERSt13basic_ostreamIT_T0_ES6_PKS3_l@PLT
	movq	_ZSt4cout@GOTPCREL(%rip), %rax
	movq	_ZSt4cout@GOTPCREL(%rip), %rdx
	movq	(%rax), %rax
	movq	-24(%rax), %rax
	movq	240(%rax,%rdx), %rbx
	testq	%rbx, %rbx
	je	.L1246
	cmpb	$0, 56(%rbx)
	je	.L1242
	movsbl	67(%rbx), %esi
.L1243:
	movq	_ZSt4cout@GOTPCREL(%rip), %rdi
	movq	%r15, %r14
	call	_ZNSo3putEc@PLT
	movq	%rax, %rdi
	call	_ZNSo5flushEv@PLT
.L1244:
	movl	(%r14), %edx
	addq	$4, %r14
	leal	-16843009(%rdx), %eax
	notl	%edx
	andl	%edx, %eax
	andl	$-2139062144, %eax
	je	.L1244
	movl	%eax, %edx
	movq	_ZSt4cout@GOTPCREL(%rip), %rdi
	shrl	$16, %edx
	testl	$32896, %eax
	cmove	%edx, %eax
	leaq	2(%r14), %rdx
	movl	%eax, %esi
	cmove	%rdx, %r14
	addb	%al, %sil
	movabsq	$2635249153387078803, %rdx
	sbbq	$3, %r14
	leaq	.LC30(%rip), %rsi
	subq	%r15, %r14
	movq	%r14, %rax
	shrq	$3, %rax
	mulq	%rdx
	leal	1(%rdx), %eax
	movl	$11, %edx
	movl	%eax, %ebx
	movl	%eax, -1052(%rbp)
	call	_ZSt16__ostream_insertIcSt11char_traitsIcEERSt13basic_ostreamIT_T0_ES6_PKS3_l@PLT
	movq	_ZSt4cout@GOTPCREL(%rip), %rdi
	movl	%ebx, %esi
	call	_ZNSolsEi@PLT
	movq	%rax, %r12
	movq	(%rax), %rax
	movq	-24(%rax), %rax
	movq	240(%r12,%rax), %rbx
	testq	%rbx, %rbx
	je	.L1246
	cmpb	$0, 56(%rbx)
	je	.L1247
	movsbl	67(%rbx), %esi
.L1248:
	movq	%r12, %rdi
	call	_ZNSo3putEc@PLT
	movq	%rax, %rdi
	call	_ZNSo5flushEv@PLT
	movslq	-1052(%rbp), %rax
	movq	$-1, %rdi
	movq	%rax, %rsi
	movq	%rax, -1144(%rbp)
	movabsq	$35747322042253312, %rax
	cmpq	%rax, %rsi
	ja	.L1249
	movq	%rsi, %rdi
	salq	$8, %rdi
	addq	$32, %rdi
.L1249:
	call	_Znam@PLT
	movq	-1144(%rbp), %rsi
	movq	%rax, -1096(%rbp)
	leaq	32(%rax), %r12
	movq	%rsi, 24(%rax)
	leaq	-1(%rsi), %rax
	cmpq	$-1, %rax
	movq	%rax, -1160(%rbp)
	je	.L1252
	movq	decaf_448_point_identity@GOTPCREL(%rip), %rax
	movq	-1096(%rbp), %r9
	movq	%rsi, %r8
	xorl	%edx, %edx
	.p2align 4,,10
	.p2align 3
.L1250:
	movq	%rdx, %rcx
	addq	$1, %rdx
	movq	%rax, %rsi
	salq	$8, %rcx
	cmpq	%rdx, %r8
	leaq	32(%r9,%rcx), %rdi
	movl	$32, %ecx
	rep movsq
	jne	.L1250
.L1252:
	movq	-1144(%rbp), %rdi
	call	_Znam@PLT
.LEHE187:
	movq	%rax, -1072(%rbp)
	leaq	-432(%rbp), %rax
	xorl	%ecx, %ecx
	movl	$32, %edx
	leaq	16(%rax), %rsi
	movq	%rax, -1048(%rbp)
	movabsq	$7021803615734293551, %rax
	movq	%rax, -416(%rbp)
	leaq	-640(%rbp), %rax
	movq	%rsi, -432(%rbp)
	movl	$1836016750, 8(%rsi)
	movq	%rax, %rdi
	movq	$12, -424(%rbp)
	movb	$0, -404(%rbp)
	movq	%rax, -1152(%rbp)
.LEHB188:
	call	spongerng_init_from_file@PLT
.LEHE188:
	testl	%eax, %eax
	movl	%eax, %ebx
	jne	.L1541
	movq	-1048(%rbp), %rax
	movq	-432(%rbp), %rdi
	addq	$16, %rax
	cmpq	%rax, %rdi
	je	.L1257
	call	_ZdlPv@PLT
.L1257:
	movl	$56, %edi
.LEHB189:
	call	_Znam@PLT
.LEHE189:
	leaq	8(%rax), %rdi
	movq	%rax, %rcx
	movq	$0, (%rax)
	movq	$0, 48(%rax)
	movq	%rax, %rbx
	xorl	%eax, %eax
	andq	$-8, %rdi
	movl	$56, %edx
	movq	%rbx, %rsi
	subq	%rdi, %rcx
	addl	$56, %ecx
	shrl	$3, %ecx
	rep stosq
	movq	-1152(%rbp), %rdi
.LEHB190:
	call	spongerng_next@PLT
.LEHE190:
	leaq	-896(%rbp), %rax
	movl	$56, %edx
	movq	%rbx, %rsi
	movq	%rax, %rdi
	movq	%rax, -1080(%rbp)
.LEHB191:
	call	decaf_448_scalar_decode_long@PLT
.LEHE191:
	movl	$56, %esi
	movq	%rbx, %rdi
.LEHB192:
	call	decaf_bzero@PLT
.LEHE192:
	movq	%rbx, %rdi
	call	_ZdaPv@PLT
	movl	$56, %edi
.LEHB193:
	call	_Znam@PLT
.LEHE193:
	leaq	8(%rax), %rdi
	movq	%rax, %rcx
	movq	$0, (%rax)
	movq	$0, 48(%rax)
	movq	%rax, %rbx
	xorl	%eax, %eax
	andq	$-8, %rdi
	movl	$56, %edx
	movq	%rbx, %rsi
	subq	%rdi, %rcx
	addl	$56, %ecx
	shrl	$3, %ecx
	rep stosq
	movq	-1152(%rbp), %rdi
.LEHB194:
	call	spongerng_next@PLT
.LEHE194:
	leaq	-832(%rbp), %rax
	movl	$56, %edx
	movq	%rbx, %rsi
	movq	%rax, %rdi
	movq	%rax, -1112(%rbp)
.LEHB195:
	call	decaf_448_scalar_decode_long@PLT
.LEHE195:
	movl	$56, %esi
	movq	%rbx, %rdi
.LEHB196:
	call	decaf_bzero@PLT
.LEHE196:
	movq	%rbx, %rdi
	call	_ZdaPv@PLT
	leaq	-768(%rbp), %rax
	movq	-1080(%rbp), %rdx
	movq	-1112(%rbp), %rsi
	movq	%rax, %rdi
	movq	%rax, -1128(%rbp)
.LEHB197:
	call	decaf_448_scalar_sub@PLT
.LEHE197:
	movl	$56, %edi
.LEHB198:
	call	_Znam@PLT
.LEHE198:
	leaq	8(%rax), %rdi
	movq	%rax, %rcx
	movq	$0, (%rax)
	movq	$0, 48(%rax)
	movq	%rax, %rbx
	xorl	%eax, %eax
	andq	$-8, %rdi
	movl	$56, %edx
	movq	%rbx, %rsi
	subq	%rdi, %rcx
	addl	$56, %ecx
	shrl	$3, %ecx
	rep stosq
	movq	-1152(%rbp), %rdi
.LEHB199:
	call	spongerng_next@PLT
.LEHE199:
	leaq	-704(%rbp), %rax
	movl	$56, %edx
	movq	%rbx, %rsi
	movq	%rax, %rdi
	movq	%rax, -1064(%rbp)
.LEHB200:
	call	decaf_448_scalar_decode_long@PLT
.LEHE200:
	movl	$56, %esi
	movq	%rbx, %rdi
.LEHB201:
	call	decaf_bzero@PLT
.LEHE201:
	movq	%rbx, %rdi
	call	_ZdaPv@PLT
	movl	-1052(%rbp), %edx
	testl	%edx, %edx
	jle	.L1542
	leaq	-1024(%rbp), %rax
	xorl	%r13d, %r13d
	xorl	%ebx, %ebx
	movq	%rax, -1088(%rbp)
	jmp	.L1308
	.p2align 4,,10
	.p2align 3
.L1544:
	cmpq	%r14, %rax
	ja	.L1301
	movq	%r14, %rdx
	subq	%rax, %rdx
.L1303:
	leaq	16+_ZTVN5decaf5BlockE(%rip), %rsi
	movq	%rdx, -1008(%rbp)
	movq	-1064(%rbp), %rcx
	movq	-1080(%rbp), %rdx
	addq	%r15, %rax
	movq	%r12, %rdi
	movq	%rsi, -1024(%rbp)
	movq	-1088(%rbp), %rsi
	movq	%rax, -1016(%rbp)
.LEHB202:
	call	_Z7encryptRN5decaf5Ed4485PointERKNS_5BlockERKNS0_6ScalarES8_i
.LEHE202:
	movq	-1072(%rbp), %rsi
	addl	$56, %r13d
	addq	$256, %r12
	movb	%al, (%rsi,%rbx)
	addq	$1, %rbx
	cmpl	%ebx, -1052(%rbp)
	jle	.L1543
.L1308:
	movl	%r13d, %eax
	movl	%ebx, %r8d
	leaq	56(%rax), %rdx
	cmpq	%r14, %rdx
	jnb	.L1544
	cmpq	%r14, %rax
	ja	.L1301
	movq	%r14, %rdx
	subq	%rax, %rdx
	cmpq	$55, %rdx
	ja	.L1545
.L1301:
	movl	$8, %edi
	call	__cxa_allocate_exception@PLT
	leaq	16+_ZTVN5decaf15LengthExceptionE(%rip), %rdx
	leaq	_ZTIN5decaf15LengthExceptionE(%rip), %rsi
	movq	%rax, %rdi
	movq	%rdx, (%rax)
	leaq	_ZN5decaf15LengthExceptionD1Ev(%rip), %rdx
.LEHB203:
	call	__cxa_throw@PLT
.LEHE203:
	.p2align 4,,10
	.p2align 3
.L1543:
	leaq	-992(%rbp), %rax
	leaq	-432(%rbp), %r14
	movq	$0, -984(%rbp)
	movb	$0, -976(%rbp)
	xorl	%r12d, %r12d
	movq	%rax, -1104(%rbp)
	addq	$16, %rax
	movq	%rax, -992(%rbp)
	leaq	-960(%rbp), %rax
	movq	%rax, -1120(%rbp)
	leaq	16(%rax), %r15
	leaq	-1040(%rbp), %rax
	movq	%rax, -1136(%rbp)
	.p2align 4,,10
	.p2align 3
.L1320:
	leaq	16+_ZTVN5decaf12SecureBufferE(%rip), %rax
	movl	$56, %edi
	movq	$0, -1016(%rbp)
	movq	$56, -1008(%rbp)
	movq	%rax, -1024(%rbp)
.LEHB204:
	call	_Znam@PLT
.LEHE204:
	leaq	8(%rax), %rdi
	movq	%rax, -1016(%rbp)
	movq	$0, (%rax)
	movq	$0, 48(%rax)
	movl	%r12d, %r8d
	andq	$-8, %rdi
	subq	%rdi, %rax
	leal	56(%rax), %ecx
	xorl	%eax, %eax
	shrl	$3, %ecx
	rep stosq
	movl	$32, %ecx
	movq	-1072(%rbp), %rax
	movq	-1096(%rbp), %rdx
	movq	-1048(%rbp), %rdi
	movq	%r14, -1048(%rbp)
	movzbl	(%rax,%r12), %r9d
	movq	%r12, %rax
	salq	$8, %rax
	leaq	32(%rdx,%rax), %rsi
	movq	-1080(%rbp), %rdx
	rep movsq
	movq	-1064(%rbp), %rcx
	movq	-1088(%rbp), %rdi
	movq	%r14, %rsi
.LEHB205:
	call	_Z7decryptRN5decaf12SecureBufferENS_5Ed4485PointERKNS2_6ScalarES6_ih
.LEHE205:
	movq	%r14, %rdi
.LEHB206:
	call	decaf_448_point_destroy@PLT
.LEHE206:
	movq	-1016(%rbp), %r13
	movq	-1008(%rbp), %rbx
	movq	%r15, -960(%rbp)
	movq	%r13, %rax
	addq	%rbx, %rax
	je	.L1311
	testq	%r13, %r13
	jne	.L1311
	leaq	.LC42(%rip), %rdi
.LEHB207:
	call	_ZSt19__throw_logic_errorPKc@PLT
.LEHE207:
	.p2align 4,,10
	.p2align 3
.L1311:
	cmpq	$15, %rbx
	movq	%rbx, -1040(%rbp)
	ja	.L1546
	cmpq	$1, %rbx
	je	.L1547
	testq	%rbx, %rbx
	movq	%r15, %rax
	jne	.L1548
.L1316:
	movq	%rbx, -952(%rbp)
	movq	-1104(%rbp), %rdi
	movb	$0, (%rax,%rbx)
	movq	-952(%rbp), %rdx
	movq	-960(%rbp), %rsi
.LEHB208:
	call	_ZNSt7__cxx1112basic_stringIcSt11char_traitsIcESaIcEE9_M_appendEPKcm@PLT
.LEHE208:
	movq	-960(%rbp), %rdi
	cmpq	%r15, %rdi
	je	.L1317
	call	_ZdlPv@PLT
.L1317:
	movq	-1016(%rbp), %rdi
	leaq	16+_ZTVN5decaf12SecureBufferE(%rip), %rax
	movq	%rax, -1024(%rbp)
	testq	%rdi, %rdi
	je	.L1318
	movq	-1008(%rbp), %rsi
.LEHB209:
	call	decaf_bzero@PLT
.LEHE209:
	movq	-1016(%rbp), %rdi
	testq	%rdi, %rdi
	je	.L1318
	call	_ZdaPv@PLT
.L1318:
	addq	$1, %r12
	cmpl	%r12d, -1052(%rbp)
	jg	.L1320
.L1319:
	movq	_ZSt4cout@GOTPCREL(%rip), %rdi
	leaq	.LC41(%rip), %rsi
	movl	$14, %edx
.LEHB210:
	call	_ZSt16__ostream_insertIcSt11char_traitsIcEERSt13basic_ostreamIT_T0_ES6_PKS3_l@PLT
	movq	-984(%rbp), %rdx
	movq	-992(%rbp), %rsi
	movq	_ZSt4cout@GOTPCREL(%rip), %rdi
	call	_ZSt16__ostream_insertIcSt11char_traitsIcEERSt13basic_ostreamIT_T0_ES6_PKS3_l@PLT
	movq	%rax, %r12
	movq	(%rax), %rax
	movq	-24(%rax), %rax
	movq	240(%r12,%rax), %rbx
	testq	%rbx, %rbx
	je	.L1549
	cmpb	$0, 56(%rbx)
	je	.L1324
	movsbl	67(%rbx), %esi
.L1325:
	movq	%r12, %rdi
	call	_ZNSo3putEc@PLT
	movq	%rax, %rdi
	call	_ZNSo5flushEv@PLT
	movq	-1144(%rbp), %rdx
	movabsq	$35747322042253312, %rax
	movq	$-1, %rdi
	cmpq	%rax, %rdx
	jbe	.L1550
.L1326:
	call	_Znam@PLT
.LEHE210:
	cmpq	$-1, -1160(%rbp)
	movq	-1144(%rbp), %rsi
	leaq	32(%rax), %r12
	movq	%rax, -1120(%rbp)
	movq	%rsi, 24(%rax)
	je	.L1330
	movq	%rax, %r9
	movq	decaf_448_point_identity@GOTPCREL(%rip), %rax
	movq	%rsi, %r8
	xorl	%edx, %edx
	.p2align 4,,10
	.p2align 3
.L1327:
	movq	%rdx, %rcx
	addq	$1, %rdx
	movq	%rax, %rsi
	salq	$8, %rcx
	cmpq	%rdx, %r8
	leaq	32(%r9,%rcx), %rdi
	movl	$32, %ecx
	rep movsq
	jne	.L1327
.L1330:
	movl	-1052(%rbp), %eax
	xorl	%ebx, %ebx
	leaq	-432(%rbp), %r13
	testl	%eax, %eax
	jle	.L1551
	.p2align 4,,10
	.p2align 3
.L1332:
	movq	-1096(%rbp), %rsi
	movq	%rbx, %rax
	movq	-1048(%rbp), %rdi
	salq	$8, %rax
	movl	$32, %ecx
	movq	-1128(%rbp), %rdx
	movl	%ebx, %r8d
	movq	%r13, -1048(%rbp)
	leaq	32(%rsi,%rax), %rsi
	rep movsq
	movq	-1064(%rbp), %rcx
	movq	%r13, %rsi
	movq	%r12, %rdi
.LEHB211:
	call	_Z5rekeyRN5decaf5Ed4485PointES1_RKNS0_6ScalarES5_i
.LEHE211:
	movq	%r13, %rdi
.LEHB212:
	call	decaf_448_point_destroy@PLT
.LEHE212:
	addq	$1, %rbx
	addq	$256, %r12
	cmpl	%ebx, -1052(%rbp)
	jg	.L1332
	leaq	-928(%rbp), %rax
	leaq	-432(%rbp), %r14
	movq	$0, -920(%rbp)
	movb	$0, -912(%rbp)
	xorl	%r12d, %r12d
	movq	%rax, -1088(%rbp)
	addq	$16, %rax
	leaq	16(%r14), %r15
	movq	%rax, -928(%rbp)
	leaq	-1024(%rbp), %rax
	movq	%rax, -1096(%rbp)
	leaq	-1032(%rbp), %rax
	movq	%rax, -1136(%rbp)
	.p2align 4,,10
	.p2align 3
.L1346:
	leaq	16+_ZTVN5decaf12SecureBufferE(%rip), %rax
	movl	$56, %edi
	movq	$0, -1016(%rbp)
	movq	$56, -1008(%rbp)
	movq	%rax, -1024(%rbp)
.LEHB213:
	call	_Znam@PLT
.LEHE213:
	leaq	8(%rax), %rdi
	movq	%rax, -1016(%rbp)
	movq	$0, (%rax)
	movq	$0, 48(%rax)
	movl	%r12d, %r8d
	andq	$-8, %rdi
	subq	%rdi, %rax
	leal	56(%rax), %ecx
	xorl	%eax, %eax
	shrl	$3, %ecx
	rep stosq
	movl	$32, %ecx
	movq	-1072(%rbp), %rax
	movq	-1120(%rbp), %rdx
	movq	-1048(%rbp), %rdi
	movq	%r14, -1048(%rbp)
	movzbl	(%rax,%r12), %r9d
	movq	%r12, %rax
	salq	$8, %rax
	leaq	32(%rdx,%rax), %rsi
	movq	-1112(%rbp), %rdx
	rep movsq
	movq	-1064(%rbp), %rcx
	movq	-1096(%rbp), %rdi
	movq	%r14, %rsi
.LEHB214:
	call	_Z7decryptRN5decaf12SecureBufferENS_5Ed4485PointERKNS2_6ScalarES6_ih
.LEHE214:
	movq	%r14, %rdi
.LEHB215:
	call	decaf_448_point_destroy@PLT
.LEHE215:
	movq	-1016(%rbp), %r13
	movq	-1008(%rbp), %rbx
	movq	%r15, -432(%rbp)
	movq	%r13, %rax
	addq	%rbx, %rax
	je	.L1337
	testq	%r13, %r13
	jne	.L1337
	leaq	.LC42(%rip), %rdi
.LEHB216:
	call	_ZSt19__throw_logic_errorPKc@PLT
.LEHE216:
	.p2align 4,,10
	.p2align 3
.L1337:
	cmpq	$15, %rbx
	movq	%rbx, -1032(%rbp)
	ja	.L1552
	cmpq	$1, %rbx
	je	.L1553
	testq	%rbx, %rbx
	movq	%r15, %rax
	jne	.L1554
.L1342:
	movq	%rbx, -424(%rbp)
	movq	-1088(%rbp), %rdi
	movb	$0, (%rax,%rbx)
	movq	-424(%rbp), %rdx
	movq	-432(%rbp), %rsi
.LEHB217:
	call	_ZNSt7__cxx1112basic_stringIcSt11char_traitsIcESaIcEE9_M_appendEPKcm@PLT
.LEHE217:
	movq	-432(%rbp), %rdi
	cmpq	%r15, %rdi
	je	.L1343
	call	_ZdlPv@PLT
.L1343:
	movq	-1016(%rbp), %rdi
	leaq	16+_ZTVN5decaf12SecureBufferE(%rip), %rax
	movq	%rax, -1024(%rbp)
	testq	%rdi, %rdi
	je	.L1344
	movq	-1008(%rbp), %rsi
.LEHB218:
	call	decaf_bzero@PLT
.LEHE218:
	movq	-1016(%rbp), %rdi
	testq	%rdi, %rdi
	je	.L1344
	call	_ZdaPv@PLT
.L1344:
	addq	$1, %r12
	cmpl	%r12d, -1052(%rbp)
	jg	.L1346
.L1345:
	movq	_ZSt4cout@GOTPCREL(%rip), %rdi
	leaq	.LC44(%rip), %rsi
	movl	$15, %edx
.LEHB219:
	call	_ZSt16__ostream_insertIcSt11char_traitsIcEERSt13basic_ostreamIT_T0_ES6_PKS3_l@PLT
	movq	-920(%rbp), %rdx
	movq	-928(%rbp), %rsi
	movq	_ZSt4cout@GOTPCREL(%rip), %rdi
	call	_ZSt16__ostream_insertIcSt11char_traitsIcEERSt13basic_ostreamIT_T0_ES6_PKS3_l@PLT
	movq	%rax, %r12
	movq	(%rax), %rax
	movq	-24(%rax), %rax
	movq	240(%r12,%rax), %rbx
	testq	%rbx, %rbx
	je	.L1555
	cmpb	$0, 56(%rbx)
	je	.L1350
	movsbl	67(%rbx), %esi
.L1351:
	movq	%r12, %rdi
	call	_ZNSo3putEc@PLT
	movq	%rax, %rdi
	call	_ZNSo5flushEv@PLT
.LEHE219:
	movq	-984(%rbp), %rdx
	xorl	%ebx, %ebx
	cmpq	-920(%rbp), %rdx
	movq	-928(%rbp), %r12
	je	.L1556
.L1353:
	movq	-1088(%rbp), %rax
	addq	$16, %rax
	cmpq	%rax, %r12
	je	.L1354
	movq	%r12, %rdi
	call	_ZdlPv@PLT
.L1354:
	movq	-1104(%rbp), %rax
	movq	-992(%rbp), %rdi
	addq	$16, %rax
	cmpq	%rax, %rdi
	je	.L1355
	call	_ZdlPv@PLT
.L1355:
	movq	-1064(%rbp), %rdi
.LEHB220:
	call	decaf_448_scalar_destroy@PLT
.LEHE220:
	movq	-1128(%rbp), %rdi
.LEHB221:
	call	decaf_448_scalar_destroy@PLT
.LEHE221:
	movq	-1112(%rbp), %rdi
.LEHB222:
	call	decaf_448_scalar_destroy@PLT
.LEHE222:
	movq	-1080(%rbp), %rdi
.LEHB223:
	call	decaf_448_scalar_destroy@PLT
.LEHE223:
	movq	-1152(%rbp), %rdi
.LEHB224:
	call	sponge_destroy@PLT
.LEHE224:
	movq	-56(%rbp), %rdx
	xorq	%fs:40, %rdx
	movl	%ebx, %eax
	jne	.L1557
	addq	$1120, %rsp
	popq	%rbx
	popq	%r10
	.cfi_remember_state
	.cfi_def_cfa 10, 0
	popq	%r12
	popq	%r13
	popq	%r14
	popq	%r15
	popq	%rbp
	leaq	-8(%r10), %rsp
	.cfi_def_cfa 7, 8
	ret
	.p2align 4,,10
	.p2align 3
.L1546:
	.cfi_restore_state
	movq	-1136(%rbp), %rsi
	movq	-1120(%rbp), %rdi
	xorl	%edx, %edx
.LEHB225:
	call	_ZNSt7__cxx1112basic_stringIcSt11char_traitsIcESaIcEE9_M_createERmm@PLT
.LEHE225:
	movq	%rax, %rdi
	movq	%rax, -960(%rbp)
	movq	-1040(%rbp), %rax
	movq	%rax, -944(%rbp)
.L1314:
	movq	%rbx, %rdx
	movq	%r13, %rsi
	call	memcpy@PLT
	movq	-1040(%rbp), %rbx
	movq	-960(%rbp), %rax
	jmp	.L1316
	.p2align 4,,10
	.p2align 3
.L1552:
	movq	-1136(%rbp), %rsi
	xorl	%edx, %edx
	movq	%r14, %rdi
.LEHB226:
	call	_ZNSt7__cxx1112basic_stringIcSt11char_traitsIcESaIcEE9_M_createERmm@PLT
.LEHE226:
	movq	%rax, %rdi
	movq	%rax, -432(%rbp)
	movq	-1032(%rbp), %rax
	movq	%rax, -416(%rbp)
.L1340:
	movq	%rbx, %rdx
	movq	%r13, %rsi
	call	memcpy@PLT
	movq	-1032(%rbp), %rbx
	movq	-432(%rbp), %rax
	jmp	.L1342
	.p2align 4,,10
	.p2align 3
.L1547:
	movzbl	0(%r13), %eax
	movb	%al, -944(%rbp)
	movq	%r15, %rax
	jmp	.L1316
	.p2align 4,,10
	.p2align 3
.L1553:
	movzbl	0(%r13), %eax
	movb	%al, -416(%rbp)
	movq	%r15, %rax
	jmp	.L1342
	.p2align 4,,10
	.p2align 3
.L1548:
	movq	%r15, %rdi
	jmp	.L1314
	.p2align 4,,10
	.p2align 3
.L1554:
	movq	%r15, %rdi
	jmp	.L1340
	.p2align 4,,10
	.p2align 3
.L1550:
	movq	%rdx, %rdi
	salq	$8, %rdi
	addq	$32, %rdi
	jmp	.L1326
.L1247:
	movq	%rbx, %rdi
.LEHB227:
	call	_ZNKSt5ctypeIcE13_M_widen_initEv@PLT
	movq	(%rbx), %rax
	movl	$10, %esi
	movq	48(%rax), %rax
	cmpq	_ZNKSt5ctypeIcE8do_widenEc@GOTPCREL(%rip), %rax
	je	.L1248
	movq	%rbx, %rdi
	call	*%rax
	movsbl	%al, %esi
	jmp	.L1248
.L1242:
	movq	%rbx, %rdi
	call	_ZNKSt5ctypeIcE13_M_widen_initEv@PLT
	movq	(%rbx), %rax
	movl	$10, %esi
	movq	48(%rax), %rax
	cmpq	_ZNKSt5ctypeIcE8do_widenEc@GOTPCREL(%rip), %rax
	je	.L1243
	movq	%rbx, %rdi
	call	*%rax
.LEHE227:
	movsbl	%al, %esi
	jmp	.L1243
.L1324:
	movq	%rbx, %rdi
.LEHB228:
	call	_ZNKSt5ctypeIcE13_M_widen_initEv@PLT
	movq	(%rbx), %rax
	movl	$10, %esi
	movq	48(%rax), %rax
	cmpq	_ZNKSt5ctypeIcE8do_widenEc@GOTPCREL(%rip), %rax
	je	.L1325
	movq	%rbx, %rdi
	call	*%rax
.LEHE228:
	movsbl	%al, %esi
	jmp	.L1325
.L1350:
	movq	%rbx, %rdi
.LEHB229:
	call	_ZNKSt5ctypeIcE13_M_widen_initEv@PLT
	movq	(%rbx), %rax
	movl	$10, %esi
	movq	48(%rax), %rax
	cmpq	_ZNKSt5ctypeIcE8do_widenEc@GOTPCREL(%rip), %rax
	je	.L1351
	movq	%rbx, %rdi
	call	*%rax
.LEHE229:
	movsbl	%al, %esi
	jmp	.L1351
.L1556:
	testq	%rdx, %rdx
	movl	$1, %ebx
	je	.L1353
	movq	-992(%rbp), %rdi
	movq	%r12, %rsi
	call	memcmp@PLT
	testl	%eax, %eax
	sete	%bl
	jmp	.L1353
	.p2align 4,,10
	.p2align 3
.L1429:
	cmpq	$-6, %rdx
	je	.L1558
.L1491:
	movq	%rax, %rbx
	vzeroupper
.L1306:
	movq	-1064(%rbp), %rdi
	call	_ZN5decaf5Ed4486ScalarD1Ev
	movq	-1128(%rbp), %rdi
	call	_ZN5decaf5Ed4486ScalarD1Ev
	movq	-1112(%rbp), %rdi
	call	_ZN5decaf5Ed4486ScalarD1Ev
	movq	-1080(%rbp), %rdi
	call	_ZN5decaf5Ed4486ScalarD1Ev
	movq	-1152(%rbp), %rdi
	call	_ZN5decaf12KeccakSpongeD2Ev
.L1494:
	movq	%rbx, %rdi
.L1497:
.LEHB230:
	call	_Unwind_Resume@PLT
.LEHE230:
	.p2align 4,,10
	.p2align 3
.L1404:
	movq	%rax, %rbx
	vzeroupper
.L1372:
	leaq	16+_ZTVN5decaf12SecureBufferE(%rip), %rax
	movq	%rax, -1024(%rbp)
	movq	-1088(%rbp), %rax
	leaq	16(%rax), %rsi
	leaq	8(%rax), %rdi
	call	_ZN5decaf12SecureBuffer5clearEv.isra.17
.L1375:
	movq	-1104(%rbp), %rax
	movq	-992(%rbp), %rdi
	addq	$16, %rax
	cmpq	%rax, %rdi
	je	.L1306
	call	_ZdlPv@PLT
	jmp	.L1306
	.p2align 4,,10
	.p2align 3
.L1409:
	movq	%rax, %rbx
	vzeroupper
.L1378:
	leaq	16+_ZTVN5decaf12SecureBufferE(%rip), %rax
	movq	%rax, -1024(%rbp)
	movq	-1096(%rbp), %rax
	leaq	16(%rax), %rsi
	leaq	8(%rax), %rdi
	call	_ZN5decaf12SecureBuffer5clearEv.isra.17
.L1381:
	movq	-1088(%rbp), %rax
	movq	-928(%rbp), %rdi
	addq	$16, %rax
	cmpq	%rax, %rdi
	je	.L1375
	call	_ZdlPv@PLT
	jmp	.L1375
	.p2align 4,,10
	.p2align 3
.L1551:
	leaq	-928(%rbp), %rax
	movq	$0, -920(%rbp)
	movb	$0, -912(%rbp)
	movq	%rax, -1088(%rbp)
	addq	$16, %rax
	movq	%rax, -928(%rbp)
	jmp	.L1345
.L1542:
	leaq	-992(%rbp), %rax
	movq	$0, -984(%rbp)
	movb	$0, -976(%rbp)
	movq	%rax, -1104(%rbp)
	addq	$16, %rax
	movq	%rax, -992(%rbp)
	jmp	.L1319
.L1558:
	movq	%rax, %rdi
	vzeroupper
.LEHB231:
	call	__cxa_call_unexpected@PLT
.LEHE231:
.L1427:
.L1499:
	movq	%rax, %rdi
.L1510:
	cmpq	$-3, %rdx
	je	.L1369
	vzeroupper
.LEHB232:
	call	_Unwind_Resume@PLT
.L1545:
	movl	$56, %edx
	jmp	.L1303
.L1369:
	vzeroupper
.L1496:
	call	__cxa_call_unexpected@PLT
.LEHE232:
.L1438:
	jmp	.L1499
.L1541:
	movl	$24, %edi
	call	__cxa_allocate_exception@PLT
	leaq	16+_ZTVN5decaf9SpongeRng12RngExceptionE(%rip), %rsi
	leaq	_ZN5decaf9SpongeRng12RngExceptionD1Ev(%rip), %rdx
	movl	%ebx, 16(%rax)
	movq	%rax, %rdi
	movq	%rsi, (%rax)
	leaq	.LC31(%rip), %rsi
	movq	%rsi, 8(%rax)
	leaq	_ZTIN5decaf9SpongeRng12RngExceptionE(%rip), %rsi
.LEHB233:
	call	__cxa_throw@PLT
.LEHE233:
.L1412:
	movq	-1152(%rbp), %rdi
	movq	%rax, %rbx
	movq	%rdx, %r12
	vzeroupper
	call	_ZN5decaf12KeccakSpongeD2Ev
	cmpq	$-1, %r12
	je	.L1559
.L1256:
	movq	-1048(%rbp), %rax
	movq	-432(%rbp), %rdi
	addq	$16, %rax
	cmpq	%rax, %rdi
	je	.L1494
	call	_ZdlPv@PLT
	jmp	.L1494
.L1434:
	jmp	.L1499
.L1559:
	movq	%rbx, %rdi
.LEHB234:
	call	__cxa_call_unexpected@PLT
.LEHE234:
.L1402:
	jmp	.L1491
.L1421:
	cmpq	$-4, %rdx
	movq	%rax, %rdi
	jne	.L1510
	vzeroupper
.LEHB235:
	call	__cxa_call_unexpected@PLT
.LEHE235:
.L1419:
	jmp	.L1499
.L1415:
	jmp	.L1499
.L1420:
	jmp	.L1499
.L1418:
	jmp	.L1499
.L1417:
	cmpq	$-4, %rdx
	movq	%rax, %rdi
	jne	.L1510
	vzeroupper
.LEHB236:
	call	__cxa_call_unexpected@PLT
.LEHE236:
.L1403:
	movq	%rax, %rbx
	movq	%r14, %rdi
	vzeroupper
	call	_ZN5decaf5Ed4485PointD1Ev
	jmp	.L1372
.L1416:
	jmp	.L1499
.L1406:
	movq	%rax, %rbx
	vzeroupper
	jmp	.L1375
.L1432:
	jmp	.L1499
.L1407:
	movq	%rax, %rbx
	movq	%r13, %rdi
	vzeroupper
	call	_ZN5decaf5Ed4485PointD1Ev
	jmp	.L1375
.L1430:
	jmp	.L1499
.L1433:
	jmp	.L1499
.L1408:
	movq	%rax, %rbx
	movq	%r14, %rdi
	vzeroupper
	call	_ZN5decaf5Ed4485PointD1Ev
	jmp	.L1378
.L1411:
	movq	%rax, %rbx
	vzeroupper
	jmp	.L1381
.L1555:
.LEHB237:
	call	_ZSt16__throw_bad_castv@PLT
.LEHE237:
.L1557:
	call	__stack_chk_fail@PLT
.L1435:
	jmp	.L1499
.L1436:
	jmp	.L1499
.L1549:
.LEHB238:
	call	_ZSt16__throw_bad_castv@PLT
.LEHE238:
.L1405:
	movq	%rax, %rbx
	movq	-1120(%rbp), %rax
	movq	-960(%rbp), %rdi
	addq	$16, %rax
	cmpq	%rax, %rdi
	je	.L1487
	vzeroupper
	call	_ZdlPv@PLT
	jmp	.L1372
.L1246:
.LEHB239:
	call	_ZSt16__throw_bad_castv@PLT
.LEHE239:
.L1487:
	vzeroupper
	jmp	.L1372
.L1431:
	jmp	.L1499
.L1410:
	movq	-432(%rbp), %rdi
	addq	$16, %r14
	movq	%rax, %rbx
	cmpq	%r14, %rdi
	je	.L1488
	vzeroupper
	call	_ZdlPv@PLT
	jmp	.L1378
.L1439:
	jmp	.L1499
.L1437:
	jmp	.L1499
.L1488:
	vzeroupper
	jmp	.L1378
.L1414:
	movq	-1128(%rbp), %rdi
	movq	%rax, %rbx
	movq	%rdx, %r12
	vzeroupper
	call	_ZN5decaf5Ed4486ScalarD1Ev
	cmpq	$-3, %r12
	movq	%rbx, %rdi
	jne	.L1497
	jmp	.L1496
.L1423:
	jmp	.L1499
.L1424:
	jmp	.L1499
.L1422:
	jmp	.L1499
.L1426:
	jmp	.L1499
.L1425:
	cmpq	$-4, %rdx
	movq	%rax, %rdi
	jne	.L1510
	vzeroupper
.LEHB240:
	call	__cxa_call_unexpected@PLT
.LEHE240:
.L1428:
	jmp	.L1499
.L1401:
	movq	%rax, %rbx
	vzeroupper
	jmp	.L1256
.L1413:
	jmp	.L1499
	.cfi_endproc
.LFE2067:
	.section	.gcc_except_table._Z10basic_testv,"a",@progbits
	.align 4
.LLSDA2067:
	.byte	0xff
	.byte	0x9b
	.uleb128 .LLSDATT2067-.LLSDATTD2067
.LLSDATTD2067:
	.byte	0x1
	.uleb128 .LLSDACSE2067-.LLSDACSB2067
.LLSDACSB2067:
	.uleb128 .LEHB187-.LFB2067
	.uleb128 .LEHE187-.LEHB187
	.uleb128 0
	.uleb128 0
	.uleb128 .LEHB188-.LFB2067
	.uleb128 .LEHE188-.LEHB188
	.uleb128 .L1412-.LFB2067
	.uleb128 0x3
	.uleb128 .LEHB189-.LFB2067
	.uleb128 .LEHE189-.LEHB189
	.uleb128 .L1417-.LFB2067
	.uleb128 0x7
	.uleb128 .LEHB190-.LFB2067
	.uleb128 .LEHE190-.LEHB190
	.uleb128 .L1418-.LFB2067
	.uleb128 0x5
	.uleb128 .LEHB191-.LFB2067
	.uleb128 .LEHE191-.LEHB191
	.uleb128 .L1420-.LFB2067
	.uleb128 0x5
	.uleb128 .LEHB192-.LFB2067
	.uleb128 .LEHE192-.LEHB192
	.uleb128 .L1419-.LFB2067
	.uleb128 0x5
	.uleb128 .LEHB193-.LFB2067
	.uleb128 .LEHE193-.LEHB193
	.uleb128 .L1421-.LFB2067
	.uleb128 0x7
	.uleb128 .LEHB194-.LFB2067
	.uleb128 .LEHE194-.LEHB194
	.uleb128 .L1422-.LFB2067
	.uleb128 0x5
	.uleb128 .LEHB195-.LFB2067
	.uleb128 .LEHE195-.LEHB195
	.uleb128 .L1424-.LFB2067
	.uleb128 0x5
	.uleb128 .LEHB196-.LFB2067
	.uleb128 .LEHE196-.LEHB196
	.uleb128 .L1423-.LFB2067
	.uleb128 0x5
	.uleb128 .LEHB197-.LFB2067
	.uleb128 .LEHE197-.LEHB197
	.uleb128 .L1414-.LFB2067
	.uleb128 0x9
	.uleb128 .LEHB198-.LFB2067
	.uleb128 .LEHE198-.LEHB198
	.uleb128 .L1425-.LFB2067
	.uleb128 0x7
	.uleb128 .LEHB199-.LFB2067
	.uleb128 .LEHE199-.LEHB199
	.uleb128 .L1426-.LFB2067
	.uleb128 0x5
	.uleb128 .LEHB200-.LFB2067
	.uleb128 .LEHE200-.LEHB200
	.uleb128 .L1428-.LFB2067
	.uleb128 0x5
	.uleb128 .LEHB201-.LFB2067
	.uleb128 .LEHE201-.LEHB201
	.uleb128 .L1427-.LFB2067
	.uleb128 0x5
	.uleb128 .LEHB202-.LFB2067
	.uleb128 .LEHE202-.LEHB202
	.uleb128 .L1402-.LFB2067
	.uleb128 0
	.uleb128 .LEHB203-.LFB2067
	.uleb128 .LEHE203-.LEHB203
	.uleb128 .L1429-.LFB2067
	.uleb128 0xb
	.uleb128 .LEHB204-.LFB2067
	.uleb128 .LEHE204-.LEHB204
	.uleb128 .L1406-.LFB2067
	.uleb128 0
	.uleb128 .LEHB205-.LFB2067
	.uleb128 .LEHE205-.LEHB205
	.uleb128 .L1403-.LFB2067
	.uleb128 0
	.uleb128 .LEHB206-.LFB2067
	.uleb128 .LEHE206-.LEHB206
	.uleb128 .L1430-.LFB2067
	.uleb128 0x5
	.uleb128 .LEHB207-.LFB2067
	.uleb128 .LEHE207-.LEHB207
	.uleb128 .L1404-.LFB2067
	.uleb128 0
	.uleb128 .LEHB208-.LFB2067
	.uleb128 .LEHE208-.LEHB208
	.uleb128 .L1405-.LFB2067
	.uleb128 0
	.uleb128 .LEHB209-.LFB2067
	.uleb128 .LEHE209-.LEHB209
	.uleb128 .L1431-.LFB2067
	.uleb128 0x5
	.uleb128 .LEHB210-.LFB2067
	.uleb128 .LEHE210-.LEHB210
	.uleb128 .L1406-.LFB2067
	.uleb128 0
	.uleb128 .LEHB211-.LFB2067
	.uleb128 .LEHE211-.LEHB211
	.uleb128 .L1407-.LFB2067
	.uleb128 0
	.uleb128 .LEHB212-.LFB2067
	.uleb128 .LEHE212-.LEHB212
	.uleb128 .L1432-.LFB2067
	.uleb128 0x5
	.uleb128 .LEHB213-.LFB2067
	.uleb128 .LEHE213-.LEHB213
	.uleb128 .L1411-.LFB2067
	.uleb128 0
	.uleb128 .LEHB214-.LFB2067
	.uleb128 .LEHE214-.LEHB214
	.uleb128 .L1408-.LFB2067
	.uleb128 0
	.uleb128 .LEHB215-.LFB2067
	.uleb128 .LEHE215-.LEHB215
	.uleb128 .L1433-.LFB2067
	.uleb128 0x5
	.uleb128 .LEHB216-.LFB2067
	.uleb128 .LEHE216-.LEHB216
	.uleb128 .L1409-.LFB2067
	.uleb128 0
	.uleb128 .LEHB217-.LFB2067
	.uleb128 .LEHE217-.LEHB217
	.uleb128 .L1410-.LFB2067
	.uleb128 0
	.uleb128 .LEHB218-.LFB2067
	.uleb128 .LEHE218-.LEHB218
	.uleb128 .L1434-.LFB2067
	.uleb128 0x5
	.uleb128 .LEHB219-.LFB2067
	.uleb128 .LEHE219-.LEHB219
	.uleb128 .L1411-.LFB2067
	.uleb128 0
	.uleb128 .LEHB220-.LFB2067
	.uleb128 .LEHE220-.LEHB220
	.uleb128 .L1439-.LFB2067
	.uleb128 0x5
	.uleb128 .LEHB221-.LFB2067
	.uleb128 .LEHE221-.LEHB221
	.uleb128 .L1438-.LFB2067
	.uleb128 0x5
	.uleb128 .LEHB222-.LFB2067
	.uleb128 .LEHE222-.LEHB222
	.uleb128 .L1437-.LFB2067
	.uleb128 0x5
	.uleb128 .LEHB223-.LFB2067
	.uleb128 .LEHE223-.LEHB223
	.uleb128 .L1436-.LFB2067
	.uleb128 0x5
	.uleb128 .LEHB224-.LFB2067
	.uleb128 .LEHE224-.LEHB224
	.uleb128 .L1435-.LFB2067
	.uleb128 0x5
	.uleb128 .LEHB225-.LFB2067
	.uleb128 .LEHE225-.LEHB225
	.uleb128 .L1404-.LFB2067
	.uleb128 0
	.uleb128 .LEHB226-.LFB2067
	.uleb128 .LEHE226-.LEHB226
	.uleb128 .L1409-.LFB2067
	.uleb128 0
	.uleb128 .LEHB227-.LFB2067
	.uleb128 .LEHE227-.LEHB227
	.uleb128 0
	.uleb128 0
	.uleb128 .LEHB228-.LFB2067
	.uleb128 .LEHE228-.LEHB228
	.uleb128 .L1406-.LFB2067
	.uleb128 0
	.uleb128 .LEHB229-.LFB2067
	.uleb128 .LEHE229-.LEHB229
	.uleb128 .L1411-.LFB2067
	.uleb128 0
	.uleb128 .LEHB230-.LFB2067
	.uleb128 .LEHE230-.LEHB230
	.uleb128 0
	.uleb128 0
	.uleb128 .LEHB231-.LFB2067
	.uleb128 .LEHE231-.LEHB231
	.uleb128 .L1402-.LFB2067
	.uleb128 0
	.uleb128 .LEHB232-.LFB2067
	.uleb128 .LEHE232-.LEHB232
	.uleb128 0
	.uleb128 0
	.uleb128 .LEHB233-.LFB2067
	.uleb128 .LEHE233-.LEHB233
	.uleb128 .L1412-.LFB2067
	.uleb128 0x3
	.uleb128 .LEHB234-.LFB2067
	.uleb128 .LEHE234-.LEHB234
	.uleb128 .L1401-.LFB2067
	.uleb128 0
	.uleb128 .LEHB235-.LFB2067
	.uleb128 .LEHE235-.LEHB235
	.uleb128 .L1415-.LFB2067
	.uleb128 0x5
	.uleb128 .LEHB236-.LFB2067
	.uleb128 .LEHE236-.LEHB236
	.uleb128 .L1416-.LFB2067
	.uleb128 0x5
	.uleb128 .LEHB237-.LFB2067
	.uleb128 .LEHE237-.LEHB237
	.uleb128 .L1411-.LFB2067
	.uleb128 0
	.uleb128 .LEHB238-.LFB2067
	.uleb128 .LEHE238-.LEHB238
	.uleb128 .L1406-.LFB2067
	.uleb128 0
	.uleb128 .LEHB239-.LFB2067
	.uleb128 .LEHE239-.LEHB239
	.uleb128 0
	.uleb128 0
	.uleb128 .LEHB240-.LFB2067
	.uleb128 .LEHE240-.LEHB240
	.uleb128 .L1413-.LFB2067
	.uleb128 0x5
.LLSDACSE2067:
	.byte	0
	.byte	0
	.byte	0x7f
	.byte	0x7d
	.byte	0x7d
	.byte	0
	.byte	0x7c
	.byte	0x7d
	.byte	0
	.byte	0x7b
	.byte	0x7a
	.byte	0x75
	.align 4
	.long	DW.ref._ZTIN5decaf15LengthExceptionE-.
	.long	DW.ref._ZTISt9bad_alloc-.
	.long	DW.ref._ZTIN5decaf9SpongeRng12RngExceptionE-.
.LLSDATT2067:
	.byte	0x1
	.byte	0
	.byte	0
	.byte	0x2
	.byte	0
	.byte	0x3
	.byte	0
	.section	.text._Z10basic_testv
	.size	_Z10basic_testv, .-_Z10basic_testv
	.section	.text.unlikely._Z10basic_testv
.LCOLDE45:
	.section	.text._Z10basic_testv
.LHOTE45:
	.section	.rodata.str1.1
.LC48:
	.string	"Encrypt time: "
.LC49:
	.string	"Decrypt time: "
.LC50:
	.string	"Rekey time: "
	.section	.text.unlikely._Z14run_benchmarksPKc,"ax",@progbits
.LCOLDB51:
	.section	.text._Z14run_benchmarksPKc,"ax",@progbits
.LHOTB51:
	.p2align 4,,15
	.globl	_Z14run_benchmarksPKc
	.hidden	_Z14run_benchmarksPKc
	.type	_Z14run_benchmarksPKc, @function
_Z14run_benchmarksPKc:
.LFB2068:
	.cfi_startproc
	.cfi_personality 0x9b,DW.ref.__gxx_personality_v0
	.cfi_lsda 0x1b,.LLSDA2068
	leaq	8(%rsp), %r10
	.cfi_def_cfa 10, 0
	andq	$-32, %rsp
	pushq	-8(%r10)
	pushq	%rbp
	.cfi_escape 0x10,0x6,0x2,0x76,0
	movq	%rsp, %rbp
	pushq	%r15
	pushq	%r14
	pushq	%r13
	pushq	%r12
	pushq	%r10
	.cfi_escape 0xf,0x3,0x76,0x58,0x6
	.cfi_escape 0x10,0xf,0x2,0x76,0x78
	.cfi_escape 0x10,0xe,0x2,0x76,0x70
	.cfi_escape 0x10,0xd,0x2,0x76,0x68
	.cfi_escape 0x10,0xc,0x2,0x76,0x60
	pushq	%rbx
	subq	$896, %rsp
	.cfi_escape 0x10,0x3,0x2,0x76,0x50
	movq	%rdi, -920(%rbp)
	movq	%fs:40, %rax
	movq	%rax, -56(%rbp)
	xorl	%eax, %eax
	call	strlen@PLT
	movabsq	$2635249153387078803, %rdx
	movq	%rax, -896(%rbp)
	shrq	$3, %rax
	mulq	%rdx
	movq	$-1, %rdi
	movl	%edx, %eax
	movq	%rdx, -888(%rbp)
	addl	$1, %eax
	movl	%eax, -836(%rbp)
	cltq
	movq	%rax, %rdx
	movq	%rax, -880(%rbp)
	movabsq	$35747322042253312, %rax
	cmpq	%rax, %rdx
	ja	.L1561
	movq	%rdx, %rax
	salq	$8, %rax
	movq	%rax, %rdi
	addq	$32, %rdi
.L1561:
.LEHB241:
	call	_Znam@PLT
	movq	%rax, %r15
	movq	-880(%rbp), %rax
	leaq	32(%r15), %r13
	movq	%rax, 24(%r15)
	subq	$1, %rax
	cmpq	$-1, %rax
	movq	%rax, -904(%rbp)
	je	.L1564
	movq	decaf_448_point_identity@GOTPCREL(%rip), %r8
	movq	-880(%rbp), %r9
	xorl	%eax, %eax
.L1562:
	movq	%rax, %rdx
	addq	$1, %rax
	movl	$32, %ecx
	salq	$8, %rdx
	cmpq	%rax, %r9
	movq	%r8, %rsi
	leaq	32(%r15,%rdx), %rdi
	rep movsq
	jne	.L1562
.L1564:
	movq	-880(%rbp), %rdi
	leaq	-336(%rbp), %rbx
	call	_Znam@PLT
.LEHE241:
	movq	%rax, %r14
	movabsq	$7021803615734293551, %rax
	leaq	16(%rbx), %rsi
	movq	%rax, -320(%rbp)
	leaq	-544(%rbp), %rax
	xorl	%ecx, %ecx
	movq	%rsi, -336(%rbp)
	movl	$32, %edx
	movl	$1836016750, 8(%rsi)
	movq	%rax, %rdi
	movq	$12, -328(%rbp)
	movb	$0, -308(%rbp)
	movq	%rax, -928(%rbp)
.LEHB242:
	call	spongerng_init_from_file@PLT
.LEHE242:
	testl	%eax, %eax
	movl	%eax, %r12d
	jne	.L1774
	movq	-336(%rbp), %rdi
	leaq	16(%rbx), %rax
	cmpq	%rax, %rdi
	je	.L1569
	call	_ZdlPv@PLT
.L1569:
	movl	$56, %edi
.LEHB243:
	call	_Znam@PLT
.LEHE243:
	leaq	8(%rax), %rdi
	movq	%rax, %rcx
	movq	$0, (%rax)
	movq	$0, 48(%rax)
	movq	%rax, %r12
	xorl	%eax, %eax
	andq	$-8, %rdi
	movl	$56, %edx
	movq	%r12, %rsi
	subq	%rdi, %rcx
	addl	$56, %ecx
	shrl	$3, %ecx
	rep stosq
	movq	-928(%rbp), %rdi
.LEHB244:
	call	spongerng_next@PLT
.LEHE244:
	leaq	-800(%rbp), %rax
	movl	$56, %edx
	movq	%r12, %rsi
	movq	%rax, %rdi
	movq	%rax, -864(%rbp)
.LEHB245:
	call	decaf_448_scalar_decode_long@PLT
.LEHE245:
	movl	$56, %esi
	movq	%r12, %rdi
.LEHB246:
	call	decaf_bzero@PLT
.LEHE246:
	movq	%r12, %rdi
	call	_ZdaPv@PLT
	movl	$56, %edi
.LEHB247:
	call	_Znam@PLT
.LEHE247:
	leaq	8(%rax), %rdi
	movq	%rax, %rcx
	movq	$0, (%rax)
	movq	$0, 48(%rax)
	movq	%rax, %r12
	xorl	%eax, %eax
	andq	$-8, %rdi
	movl	$56, %edx
	movq	%r12, %rsi
	subq	%rdi, %rcx
	addl	$56, %ecx
	shrl	$3, %ecx
	rep stosq
	movq	-928(%rbp), %rdi
.LEHB248:
	call	spongerng_next@PLT
.LEHE248:
	leaq	-736(%rbp), %rax
	movl	$56, %edx
	movq	%r12, %rsi
	movq	%rax, %rdi
	movq	%rax, -936(%rbp)
.LEHB249:
	call	decaf_448_scalar_decode_long@PLT
.LEHE249:
	movl	$56, %esi
	movq	%r12, %rdi
.LEHB250:
	call	decaf_bzero@PLT
.LEHE250:
	movq	%r12, %rdi
	call	_ZdaPv@PLT
	leaq	-672(%rbp), %rax
	movq	-864(%rbp), %rdx
	movq	-936(%rbp), %rsi
	movq	%rax, %rdi
	movq	%rax, -872(%rbp)
.LEHB251:
	call	decaf_448_scalar_sub@PLT
.LEHE251:
	movl	$56, %edi
.LEHB252:
	call	_Znam@PLT
.LEHE252:
	leaq	8(%rax), %rdi
	movq	%rax, %rcx
	movq	$0, (%rax)
	movq	$0, 48(%rax)
	movq	%rax, %r12
	xorl	%eax, %eax
	andq	$-8, %rdi
	movl	$56, %edx
	movq	%r12, %rsi
	subq	%rdi, %rcx
	addl	$56, %ecx
	shrl	$3, %ecx
	rep stosq
	movq	-928(%rbp), %rdi
.LEHB253:
	call	spongerng_next@PLT
.LEHE253:
	leaq	-608(%rbp), %rax
	movl	$56, %edx
	movq	%r12, %rsi
	movq	%rax, %rdi
	movq	%rax, -848(%rbp)
.LEHB254:
	call	decaf_448_scalar_decode_long@PLT
.LEHE254:
	movl	$56, %esi
	movq	%r12, %rdi
.LEHB255:
	call	decaf_bzero@PLT
.LEHE255:
	movq	%r12, %rdi
	call	_ZdaPv@PLT
	leaq	-832(%rbp), %rax
	xorl	%esi, %esi
	movq	%rax, %rdi
	movq	%rax, -856(%rbp)
	call	gettimeofday@PLT
	vxorpd	%xmm0, %xmm0, %xmm0
	movl	-836(%rbp), %ecx
	vxorpd	%xmm1, %xmm1, %xmm1
	vcvtsi2sdq	-824(%rbp), %xmm0, %xmm0
	vdivsd	.LC46(%rip), %xmm0, %xmm0
	testl	%ecx, %ecx
	vcvtsi2sdq	-832(%rbp), %xmm1, %xmm1
	vaddsd	%xmm1, %xmm0, %xmm3
	vmovsd	%xmm3, -944(%rbp)
	jle	.L1619
	movl	-888(%rbp), %eax
	xorl	%r12d, %r12d
	movl	$0, -888(%rbp)
	salq	$8, %rax
	leaq	288(%r15,%rax), %rax
	movq	%rax, -912(%rbp)
	jmp	.L1620
	.p2align 4,,10
	.p2align 3
.L1775:
	cmpq	%rsi, %rax
	ja	.L1613
	movq	%rsi, %rdx
	subq	%rax, %rdx
.L1615:
	leaq	16+_ZTVN5decaf5BlockE(%rip), %rsi
	addq	-920(%rbp), %rax
	movq	%rdx, -816(%rbp)
	movq	-848(%rbp), %rcx
	movq	-864(%rbp), %rdx
	movq	%r13, %rdi
	movq	%rsi, -832(%rbp)
	movq	-856(%rbp), %rsi
	movq	%rax, -824(%rbp)
.LEHB256:
	call	_Z7encryptRN5decaf5Ed4485PointERKNS_5BlockERKNS0_6ScalarES8_i
.LEHE256:
	movb	%al, (%r14,%r12)
	addl	$56, -888(%rbp)
	addq	$1, %r12
	addq	$256, %r13
	cmpq	%r13, -912(%rbp)
	je	.L1619
.L1620:
	movl	-888(%rbp), %eax
	movq	-896(%rbp), %rsi
	movl	%r12d, %r8d
	leaq	56(%rax), %rdx
	cmpq	%rsi, %rdx
	jnb	.L1775
	cmpq	%rsi, %rax
	movq	%rsi, %rdx
	ja	.L1613
	subq	%rax, %rdx
	cmpq	$55, %rdx
	ja	.L1776
.L1613:
	movl	$8, %edi
	call	__cxa_allocate_exception@PLT
	leaq	16+_ZTVN5decaf15LengthExceptionE(%rip), %rdx
	leaq	_ZTIN5decaf15LengthExceptionE(%rip), %rsi
	movq	%rax, %rdi
	movq	%rdx, (%rax)
	leaq	_ZN5decaf15LengthExceptionD1Ev(%rip), %rdx
.LEHB257:
	call	__cxa_throw@PLT
.LEHE257:
.L1619:
	movq	-856(%rbp), %rdi
	xorl	%esi, %esi
	call	gettimeofday@PLT
	vxorpd	%xmm0, %xmm0, %xmm0
	movq	_ZSt4cout@GOTPCREL(%rip), %rdi
	vxorpd	%xmm1, %xmm1, %xmm1
	leaq	.LC48(%rip), %rsi
	vxorpd	%xmm6, %xmm6, %xmm6
	movl	$14, %edx
	vcvtsi2sdq	-824(%rbp), %xmm0, %xmm0
	vdivsd	.LC46(%rip), %xmm0, %xmm0
	vcvtsi2sdq	-832(%rbp), %xmm1, %xmm1
	vaddsd	%xmm1, %xmm0, %xmm0
	vsubsd	-944(%rbp), %xmm0, %xmm0
	vaddsd	%xmm6, %xmm0, %xmm5
	vmovsd	%xmm5, -888(%rbp)
.LEHB258:
	call	_ZSt16__ostream_insertIcSt11char_traitsIcEERSt13basic_ostreamIT_T0_ES6_PKS3_l@PLT
	movq	_ZSt4cout@GOTPCREL(%rip), %rdi
	vmovsd	-888(%rbp), %xmm0
	call	_ZNSo9_M_insertIdEERSoT_@PLT
	movq	%rax, %r13
	movq	(%rax), %rax
	movq	-24(%rax), %rax
	movq	240(%r13,%rax), %r12
	testq	%r12, %r12
	je	.L1777
	cmpb	$0, 56(%r12)
	je	.L1622
	movsbl	67(%r12), %esi
.L1623:
	movq	%r13, %rdi
	call	_ZNSo3putEc@PLT
	movq	%rax, %rdi
	call	_ZNSo5flushEv@PLT
	movq	-856(%rbp), %rdi
	xorl	%esi, %esi
	xorl	%r12d, %r12d
	leaq	-336(%rbp), %r13
	call	gettimeofday@PLT
	movq	-832(%rbp), %rax
	movl	-836(%rbp), %edx
	movq	%rax, -888(%rbp)
	movq	-824(%rbp), %rax
	testl	%edx, %edx
	movq	%rax, -896(%rbp)
	jle	.L1630
	.p2align 4,,10
	.p2align 3
.L1710:
	leaq	16+_ZTVN5decaf12SecureBufferE(%rip), %rax
	movl	$56, %edi
	movq	$0, -824(%rbp)
	movq	$56, -816(%rbp)
	movq	%rax, -832(%rbp)
	call	_Znam@PLT
.LEHE258:
	leaq	8(%rax), %rdi
	movq	%rax, -824(%rbp)
	movq	$0, (%rax)
	movq	$0, 48(%rax)
	movl	%r12d, %r8d
	andq	$-8, %rdi
	subq	%rdi, %rax
	leal	56(%rax), %ecx
	xorl	%eax, %eax
	shrl	$3, %ecx
	rep stosq
	movq	%r12, %rax
	movq	%rbx, %rdi
	movl	$32, %ecx
	salq	$8, %rax
	movq	%r13, %rbx
	leaq	32(%r15,%rax), %rsi
	movzbl	(%r14,%r12), %r9d
	movq	-864(%rbp), %rdx
	rep movsq
	movq	-848(%rbp), %rcx
	movq	-856(%rbp), %rdi
	movq	%r13, %rsi
.LEHB259:
	call	_Z7decryptRN5decaf12SecureBufferENS_5Ed4485PointERKNS2_6ScalarES6_ih
.LEHE259:
	movq	%r13, %rdi
.LEHB260:
	call	decaf_448_point_destroy@PLT
.LEHE260:
	movq	-824(%rbp), %rdi
	leaq	16+_ZTVN5decaf12SecureBufferE(%rip), %rax
	movq	%rax, -832(%rbp)
	testq	%rdi, %rdi
	je	.L1626
	movq	-816(%rbp), %rsi
.LEHB261:
	call	decaf_bzero@PLT
.LEHE261:
	movq	-824(%rbp), %rdi
	testq	%rdi, %rdi
	je	.L1626
	call	_ZdaPv@PLT
.L1626:
	addq	$1, %r12
	cmpl	%r12d, -836(%rbp)
	jg	.L1710
.L1630:
	movq	-856(%rbp), %rdi
	xorl	%esi, %esi
	call	gettimeofday@PLT
	movq	_ZSt4cout@GOTPCREL(%rip), %rdi
	leaq	.LC49(%rip), %rsi
	movl	$14, %edx
	movq	-832(%rbp), %r13
	movq	-824(%rbp), %r12
.LEHB262:
	call	_ZSt16__ostream_insertIcSt11char_traitsIcEERSt13basic_ostreamIT_T0_ES6_PKS3_l@PLT
	vxorpd	%xmm0, %xmm0, %xmm0
	movq	_ZSt4cout@GOTPCREL(%rip), %rdi
	vxorpd	%xmm1, %xmm1, %xmm1
	vxorpd	%xmm2, %xmm2, %xmm2
	vcvtsi2sdq	%r12, %xmm0, %xmm0
	vdivsd	.LC46(%rip), %xmm0, %xmm0
	vcvtsi2sdq	%r13, %xmm1, %xmm1
	vcvtsi2sdq	-888(%rbp), %xmm2, %xmm2
	vxorpd	%xmm7, %xmm7, %xmm7
	vaddsd	%xmm1, %xmm0, %xmm0
	vxorpd	%xmm1, %xmm1, %xmm1
	vcvtsi2sdq	-896(%rbp), %xmm1, %xmm1
	vdivsd	.LC46(%rip), %xmm1, %xmm1
	vaddsd	%xmm2, %xmm1, %xmm1
	vsubsd	%xmm1, %xmm0, %xmm0
	vaddsd	%xmm7, %xmm0, %xmm0
	call	_ZNSo9_M_insertIdEERSoT_@PLT
	movq	%rax, %r13
	movq	(%rax), %rax
	movq	-24(%rax), %rax
	movq	240(%r13,%rax), %r12
	testq	%r12, %r12
	je	.L1778
	cmpb	$0, 56(%r12)
	je	.L1635
	movsbl	67(%r12), %esi
.L1636:
	movq	%r13, %rdi
	call	_ZNSo3putEc@PLT
	movq	%rax, %rdi
	call	_ZNSo5flushEv@PLT
	movq	-856(%rbp), %rdi
	xorl	%esi, %esi
	call	gettimeofday@PLT
	movq	-832(%rbp), %rax
	movq	-880(%rbp), %rdx
	movq	$-1, %rdi
	movq	%rax, -888(%rbp)
	movq	-824(%rbp), %rax
	movq	%rax, -896(%rbp)
	movabsq	$35747322042253312, %rax
	cmpq	%rax, %rdx
	ja	.L1637
	movq	%rdx, %rdi
	salq	$8, %rdi
	addq	$32, %rdi
.L1637:
	call	_Znam@PLT
.LEHE262:
	cmpq	$-1, -904(%rbp)
	movq	-880(%rbp), %rdx
	leaq	32(%rax), %r13
	movq	%rdx, 24(%rax)
	je	.L1641
	movq	decaf_448_point_identity@GOTPCREL(%rip), %r8
	movq	%rdx, %r9
	xorl	%edx, %edx
	.p2align 4,,10
	.p2align 3
.L1638:
	movq	%rdx, %rcx
	addq	$1, %rdx
	movq	%r8, %rsi
	salq	$8, %rcx
	cmpq	%rdx, %r9
	leaq	32(%rax,%rcx), %rdi
	movl	$32, %ecx
	rep movsq
	jne	.L1638
.L1641:
	movl	-836(%rbp), %eax
	xorl	%r12d, %r12d
	leaq	-336(%rbp), %r14
	testl	%eax, %eax
	jle	.L1639
	.p2align 4,,10
	.p2align 3
.L1642:
	movq	%r12, %rax
	movq	%rbx, %rdi
	movl	$32, %ecx
	salq	$8, %rax
	movq	-872(%rbp), %rdx
	movl	%r12d, %r8d
	leaq	32(%r15,%rax), %rsi
	movq	%r14, %rbx
	rep movsq
	movq	-848(%rbp), %rcx
	movq	%r14, %rsi
	movq	%r13, %rdi
.LEHB263:
	call	_Z5rekeyRN5decaf5Ed4485PointES1_RKNS0_6ScalarES5_i
.LEHE263:
	movq	%r14, %rdi
.LEHB264:
	call	decaf_448_point_destroy@PLT
.LEHE264:
	addq	$1, %r12
	addq	$256, %r13
	cmpl	%r12d, -836(%rbp)
	jg	.L1642
.L1639:
	movq	-856(%rbp), %rdi
	xorl	%esi, %esi
	call	gettimeofday@PLT
	movq	_ZSt4cout@GOTPCREL(%rip), %rdi
	leaq	.LC50(%rip), %rsi
	movl	$12, %edx
	movq	-832(%rbp), %r12
	movq	-824(%rbp), %rbx
.LEHB265:
	call	_ZSt16__ostream_insertIcSt11char_traitsIcEERSt13basic_ostreamIT_T0_ES6_PKS3_l@PLT
	vxorpd	%xmm0, %xmm0, %xmm0
	movq	_ZSt4cout@GOTPCREL(%rip), %rdi
	vxorpd	%xmm1, %xmm1, %xmm1
	vxorpd	%xmm2, %xmm2, %xmm2
	vcvtsi2sdq	%rbx, %xmm0, %xmm0
	vdivsd	.LC46(%rip), %xmm0, %xmm0
	vcvtsi2sdq	%r12, %xmm1, %xmm1
	vcvtsi2sdq	-888(%rbp), %xmm2, %xmm2
	vxorpd	%xmm3, %xmm3, %xmm3
	vaddsd	%xmm1, %xmm0, %xmm0
	vxorpd	%xmm1, %xmm1, %xmm1
	vcvtsi2sdq	-896(%rbp), %xmm1, %xmm1
	vdivsd	.LC46(%rip), %xmm1, %xmm1
	vaddsd	%xmm2, %xmm1, %xmm1
	vsubsd	%xmm1, %xmm0, %xmm0
	vaddsd	%xmm3, %xmm0, %xmm0
	call	_ZNSo9_M_insertIdEERSoT_@PLT
	movq	%rax, %r12
	movq	(%rax), %rax
	movq	-24(%rax), %rax
	movq	240(%r12,%rax), %rbx
	testq	%rbx, %rbx
	je	.L1779
	cmpb	$0, 56(%rbx)
	je	.L1646
	movsbl	67(%rbx), %esi
.L1647:
	movq	%r12, %rdi
	call	_ZNSo3putEc@PLT
	movq	%rax, %rdi
	call	_ZNSo5flushEv@PLT
.LEHE265:
	movq	-848(%rbp), %rdi
.LEHB266:
	call	decaf_448_scalar_destroy@PLT
.LEHE266:
	movq	-872(%rbp), %rdi
.LEHB267:
	call	decaf_448_scalar_destroy@PLT
.LEHE267:
	movq	-936(%rbp), %rdi
.LEHB268:
	call	decaf_448_scalar_destroy@PLT
.LEHE268:
	movq	-864(%rbp), %rdi
.LEHB269:
	call	decaf_448_scalar_destroy@PLT
.LEHE269:
	movq	-928(%rbp), %rdi
.LEHB270:
	call	sponge_destroy@PLT
.LEHE270:
	movq	-56(%rbp), %rax
	xorq	%fs:40, %rax
	jne	.L1780
	addq	$896, %rsp
	popq	%rbx
	popq	%r10
	.cfi_remember_state
	.cfi_def_cfa 10, 0
	popq	%r12
	popq	%r13
	popq	%r14
	popq	%r15
	popq	%rbp
	leaq	-8(%r10), %rsp
	.cfi_def_cfa 7, 8
	ret
.L1635:
	.cfi_restore_state
	movq	%r12, %rdi
.LEHB271:
	call	_ZNKSt5ctypeIcE13_M_widen_initEv@PLT
	movq	(%r12), %rax
	movl	$10, %esi
	movq	48(%rax), %rax
	cmpq	_ZNKSt5ctypeIcE8do_widenEc@GOTPCREL(%rip), %rax
	je	.L1636
	movq	%r12, %rdi
	call	*%rax
	movsbl	%al, %esi
	jmp	.L1636
.L1622:
	movq	%r12, %rdi
	call	_ZNKSt5ctypeIcE13_M_widen_initEv@PLT
	movq	(%r12), %rax
	movl	$10, %esi
	movq	48(%rax), %rax
	cmpq	_ZNKSt5ctypeIcE8do_widenEc@GOTPCREL(%rip), %rax
	je	.L1623
	movq	%r12, %rdi
	call	*%rax
	movsbl	%al, %esi
	jmp	.L1623
.L1646:
	movq	%rbx, %rdi
	call	_ZNKSt5ctypeIcE13_M_widen_initEv@PLT
	movq	(%rbx), %rax
	movl	$10, %esi
	movq	48(%rax), %rax
	cmpq	_ZNKSt5ctypeIcE8do_widenEc@GOTPCREL(%rip), %rax
	je	.L1647
	movq	%rbx, %rdi
	call	*%rax
.LEHE271:
	movsbl	%al, %esi
	jmp	.L1647
	.p2align 4,,10
	.p2align 3
.L1695:
	cmpq	$-6, %rdx
	je	.L1781
.L1731:
	movq	%rax, %rbx
	vzeroupper
.L1618:
	movq	-848(%rbp), %rdi
	call	_ZN5decaf5Ed4486ScalarD1Ev
	movq	-872(%rbp), %rdi
	call	_ZN5decaf5Ed4486ScalarD1Ev
	movq	-936(%rbp), %rdi
	call	_ZN5decaf5Ed4486ScalarD1Ev
	movq	-864(%rbp), %rdi
	call	_ZN5decaf5Ed4486ScalarD1Ev
	movq	-928(%rbp), %rdi
	call	_ZN5decaf12KeccakSpongeD2Ev
	movq	%rbx, %rdi
.L1737:
.LEHB272:
	call	_Unwind_Resume@PLT
.L1688:
.L1739:
	movq	%rax, %rdi
.L1747:
	cmpq	$-3, %rdx
	je	.L1661
	vzeroupper
	call	_Unwind_Resume@PLT
.LEHE272:
.L1781:
	movq	%rax, %rdi
	vzeroupper
.LEHB273:
	call	__cxa_call_unexpected@PLT
.LEHE273:
.L1661:
	vzeroupper
.L1736:
.LEHB274:
	call	__cxa_call_unexpected@PLT
.LEHE274:
.L1690:
	jmp	.L1739
.L1689:
	jmp	.L1739
.L1680:
	movq	-872(%rbp), %rdi
	movq	%rax, %rbx
	movq	%rdx, %r12
	vzeroupper
	call	_ZN5decaf5Ed4486ScalarD1Ev
	cmpq	$-3, %r12
	movq	%rbx, %rdi
	jne	.L1737
	jmp	.L1736
.L1691:
	cmpq	$-4, %rdx
	movq	%rax, %rdi
	jne	.L1747
	vzeroupper
.LEHB275:
	call	__cxa_call_unexpected@PLT
.LEHE275:
.L1692:
	jmp	.L1739
.L1694:
	jmp	.L1739
.L1693:
	jmp	.L1739
.L1687:
	cmpq	$-4, %rdx
	movq	%rax, %rdi
	jne	.L1747
	vzeroupper
.LEHB276:
	call	__cxa_call_unexpected@PLT
.LEHE276:
.L1774:
	movl	$24, %edi
	call	__cxa_allocate_exception@PLT
	leaq	16+_ZTVN5decaf9SpongeRng12RngExceptionE(%rip), %rdx
	leaq	_ZTIN5decaf9SpongeRng12RngExceptionE(%rip), %rsi
	movl	%r12d, 16(%rax)
	movq	%rax, %rdi
	movq	%rdx, (%rax)
	leaq	.LC31(%rip), %rdx
	movq	%rdx, 8(%rax)
	leaq	_ZN5decaf9SpongeRng12RngExceptionD1Ev(%rip), %rdx
.LEHB277:
	call	__cxa_throw@PLT
.LEHE277:
.L1683:
	cmpq	$-4, %rdx
	movq	%rax, %rdi
	jne	.L1747
	vzeroupper
.LEHB278:
	call	__cxa_call_unexpected@PLT
.LEHE278:
.L1675:
	jmp	.L1731
.L1681:
	jmp	.L1739
.L1686:
	jmp	.L1739
.L1684:
	jmp	.L1739
.L1679:
	jmp	.L1739
.L1685:
	jmp	.L1739
.L1682:
	jmp	.L1739
.L1776:
	movl	$56, %edx
	jmp	.L1615
.L1777:
.LEHB279:
	call	_ZSt16__throw_bad_castv@PLT
.L1676:
	movq	%rax, %rbx
	movq	%r13, %rdi
	vzeroupper
	call	_ZN5decaf5Ed4485PointD1Ev
	leaq	16+_ZTVN5decaf12SecureBufferE(%rip), %rax
	movq	%rax, -832(%rbp)
	movq	-856(%rbp), %rax
	leaq	16(%rax), %rsi
	leaq	8(%rax), %rdi
	call	_ZN5decaf12SecureBuffer5clearEv.isra.17
	jmp	.L1618
.L1697:
	jmp	.L1739
.L1696:
	jmp	.L1739
.L1778:
	call	_ZSt16__throw_bad_castv@PLT
.L1677:
	movq	%rax, %rbx
	movq	%r14, %rdi
	vzeroupper
	call	_ZN5decaf5Ed4485PointD1Ev
	jmp	.L1618
.L1698:
	jmp	.L1739
.L1779:
	call	_ZSt16__throw_bad_castv@PLT
.LEHE279:
.L1703:
	jmp	.L1739
.L1702:
	jmp	.L1739
.L1701:
	jmp	.L1739
.L1700:
	jmp	.L1739
.L1699:
	jmp	.L1739
.L1780:
	call	__stack_chk_fail@PLT
.L1678:
	movq	-928(%rbp), %rdi
	movq	%rax, %r12
	movq	%rdx, %r13
	vzeroupper
	call	_ZN5decaf12KeccakSpongeD2Ev
	cmpq	$-1, %r13
	je	.L1782
.L1568:
	movq	-336(%rbp), %rdi
	addq	$16, %rbx
	cmpq	%rbx, %rdi
	je	.L1662
	call	_ZdlPv@PLT
.L1662:
	movq	%r12, %rdi
.LEHB280:
	call	_Unwind_Resume@PLT
.LEHE280:
.L1782:
	movq	%r12, %rdi
.LEHB281:
	call	__cxa_call_unexpected@PLT
.LEHE281:
.L1674:
	movq	%rax, %r12
	vzeroupper
	jmp	.L1568
	.cfi_endproc
.LFE2068:
	.section	.gcc_except_table._Z14run_benchmarksPKc,"a",@progbits
	.align 4
.LLSDA2068:
	.byte	0xff
	.byte	0x9b
	.uleb128 .LLSDATT2068-.LLSDATTD2068
.LLSDATTD2068:
	.byte	0x1
	.uleb128 .LLSDACSE2068-.LLSDACSB2068
.LLSDACSB2068:
	.uleb128 .LEHB241-.LFB2068
	.uleb128 .LEHE241-.LEHB241
	.uleb128 0
	.uleb128 0
	.uleb128 .LEHB242-.LFB2068
	.uleb128 .LEHE242-.LEHB242
	.uleb128 .L1678-.LFB2068
	.uleb128 0x3
	.uleb128 .LEHB243-.LFB2068
	.uleb128 .LEHE243-.LEHB243
	.uleb128 .L1683-.LFB2068
	.uleb128 0x7
	.uleb128 .LEHB244-.LFB2068
	.uleb128 .LEHE244-.LEHB244
	.uleb128 .L1684-.LFB2068
	.uleb128 0x5
	.uleb128 .LEHB245-.LFB2068
	.uleb128 .LEHE245-.LEHB245
	.uleb128 .L1686-.LFB2068
	.uleb128 0x5
	.uleb128 .LEHB246-.LFB2068
	.uleb128 .LEHE246-.LEHB246
	.uleb128 .L1685-.LFB2068
	.uleb128 0x5
	.uleb128 .LEHB247-.LFB2068
	.uleb128 .LEHE247-.LEHB247
	.uleb128 .L1687-.LFB2068
	.uleb128 0x7
	.uleb128 .LEHB248-.LFB2068
	.uleb128 .LEHE248-.LEHB248
	.uleb128 .L1688-.LFB2068
	.uleb128 0x5
	.uleb128 .LEHB249-.LFB2068
	.uleb128 .LEHE249-.LEHB249
	.uleb128 .L1690-.LFB2068
	.uleb128 0x5
	.uleb128 .LEHB250-.LFB2068
	.uleb128 .LEHE250-.LEHB250
	.uleb128 .L1689-.LFB2068
	.uleb128 0x5
	.uleb128 .LEHB251-.LFB2068
	.uleb128 .LEHE251-.LEHB251
	.uleb128 .L1680-.LFB2068
	.uleb128 0x9
	.uleb128 .LEHB252-.LFB2068
	.uleb128 .LEHE252-.LEHB252
	.uleb128 .L1691-.LFB2068
	.uleb128 0x7
	.uleb128 .LEHB253-.LFB2068
	.uleb128 .LEHE253-.LEHB253
	.uleb128 .L1692-.LFB2068
	.uleb128 0x5
	.uleb128 .LEHB254-.LFB2068
	.uleb128 .LEHE254-.LEHB254
	.uleb128 .L1694-.LFB2068
	.uleb128 0x5
	.uleb128 .LEHB255-.LFB2068
	.uleb128 .LEHE255-.LEHB255
	.uleb128 .L1693-.LFB2068
	.uleb128 0x5
	.uleb128 .LEHB256-.LFB2068
	.uleb128 .LEHE256-.LEHB256
	.uleb128 .L1675-.LFB2068
	.uleb128 0
	.uleb128 .LEHB257-.LFB2068
	.uleb128 .LEHE257-.LEHB257
	.uleb128 .L1695-.LFB2068
	.uleb128 0xb
	.uleb128 .LEHB258-.LFB2068
	.uleb128 .LEHE258-.LEHB258
	.uleb128 .L1675-.LFB2068
	.uleb128 0
	.uleb128 .LEHB259-.LFB2068
	.uleb128 .LEHE259-.LEHB259
	.uleb128 .L1676-.LFB2068
	.uleb128 0
	.uleb128 .LEHB260-.LFB2068
	.uleb128 .LEHE260-.LEHB260
	.uleb128 .L1697-.LFB2068
	.uleb128 0x5
	.uleb128 .LEHB261-.LFB2068
	.uleb128 .LEHE261-.LEHB261
	.uleb128 .L1696-.LFB2068
	.uleb128 0x5
	.uleb128 .LEHB262-.LFB2068
	.uleb128 .LEHE262-.LEHB262
	.uleb128 .L1675-.LFB2068
	.uleb128 0
	.uleb128 .LEHB263-.LFB2068
	.uleb128 .LEHE263-.LEHB263
	.uleb128 .L1677-.LFB2068
	.uleb128 0
	.uleb128 .LEHB264-.LFB2068
	.uleb128 .LEHE264-.LEHB264
	.uleb128 .L1698-.LFB2068
	.uleb128 0x5
	.uleb128 .LEHB265-.LFB2068
	.uleb128 .LEHE265-.LEHB265
	.uleb128 .L1675-.LFB2068
	.uleb128 0
	.uleb128 .LEHB266-.LFB2068
	.uleb128 .LEHE266-.LEHB266
	.uleb128 .L1703-.LFB2068
	.uleb128 0x5
	.uleb128 .LEHB267-.LFB2068
	.uleb128 .LEHE267-.LEHB267
	.uleb128 .L1702-.LFB2068
	.uleb128 0x5
	.uleb128 .LEHB268-.LFB2068
	.uleb128 .LEHE268-.LEHB268
	.uleb128 .L1701-.LFB2068
	.uleb128 0x5
	.uleb128 .LEHB269-.LFB2068
	.uleb128 .LEHE269-.LEHB269
	.uleb128 .L1700-.LFB2068
	.uleb128 0x5
	.uleb128 .LEHB270-.LFB2068
	.uleb128 .LEHE270-.LEHB270
	.uleb128 .L1699-.LFB2068
	.uleb128 0x5
	.uleb128 .LEHB271-.LFB2068
	.uleb128 .LEHE271-.LEHB271
	.uleb128 .L1675-.LFB2068
	.uleb128 0
	.uleb128 .LEHB272-.LFB2068
	.uleb128 .LEHE272-.LEHB272
	.uleb128 0
	.uleb128 0
	.uleb128 .LEHB273-.LFB2068
	.uleb128 .LEHE273-.LEHB273
	.uleb128 .L1675-.LFB2068
	.uleb128 0
	.uleb128 .LEHB274-.LFB2068
	.uleb128 .LEHE274-.LEHB274
	.uleb128 0
	.uleb128 0
	.uleb128 .LEHB275-.LFB2068
	.uleb128 .LEHE275-.LEHB275
	.uleb128 .L1679-.LFB2068
	.uleb128 0x5
	.uleb128 .LEHB276-.LFB2068
	.uleb128 .LEHE276-.LEHB276
	.uleb128 .L1681-.LFB2068
	.uleb128 0x5
	.uleb128 .LEHB277-.LFB2068
	.uleb128 .LEHE277-.LEHB277
	.uleb128 .L1678-.LFB2068
	.uleb128 0x3
	.uleb128 .LEHB278-.LFB2068
	.uleb128 .LEHE278-.LEHB278
	.uleb128 .L1682-.LFB2068
	.uleb128 0x5
	.uleb128 .LEHB279-.LFB2068
	.uleb128 .LEHE279-.LEHB279
	.uleb128 .L1675-.LFB2068
	.uleb128 0
	.uleb128 .LEHB280-.LFB2068
	.uleb128 .LEHE280-.LEHB280
	.uleb128 0
	.uleb128 0
	.uleb128 .LEHB281-.LFB2068
	.uleb128 .LEHE281-.LEHB281
	.uleb128 .L1674-.LFB2068
	.uleb128 0
.LLSDACSE2068:
	.byte	0
	.byte	0
	.byte	0x7f
	.byte	0x7d
	.byte	0x7d
	.byte	0
	.byte	0x7c
	.byte	0x7d
	.byte	0
	.byte	0x7b
	.byte	0x7a
	.byte	0x75
	.align 4
	.long	DW.ref._ZTIN5decaf15LengthExceptionE-.
	.long	DW.ref._ZTISt9bad_alloc-.
	.long	DW.ref._ZTIN5decaf9SpongeRng12RngExceptionE-.
.LLSDATT2068:
	.byte	0x1
	.byte	0
	.byte	0
	.byte	0x2
	.byte	0
	.byte	0x3
	.byte	0
	.section	.text._Z14run_benchmarksPKc
	.size	_Z14run_benchmarksPKc, .-_Z14run_benchmarksPKc
	.section	.text.unlikely._Z14run_benchmarksPKc
.LCOLDE51:
	.section	.text._Z14run_benchmarksPKc
.LHOTE51:
	.section	.text.unlikely._Z11aes_decryptPhiS_S_S_,"ax",@progbits
.LCOLDB52:
	.section	.text._Z11aes_decryptPhiS_S_S_,"ax",@progbits
.LHOTB52:
	.p2align 4,,15
	.globl	_Z11aes_decryptPhiS_S_S_
	.hidden	_Z11aes_decryptPhiS_S_S_
	.type	_Z11aes_decryptPhiS_S_S_, @function
_Z11aes_decryptPhiS_S_S_:
.LFB2069:
	.cfi_startproc
	pushq	%r15
	.cfi_def_cfa_offset 16
	.cfi_offset 15, -16
	pushq	%r14
	.cfi_def_cfa_offset 24
	.cfi_offset 14, -24
	movq	%rcx, %r15
	pushq	%r13
	.cfi_def_cfa_offset 32
	.cfi_offset 13, -32
	pushq	%r12
	.cfi_def_cfa_offset 40
	.cfi_offset 12, -40
	movq	%rdx, %r12
	pushq	%rbp
	.cfi_def_cfa_offset 48
	.cfi_offset 6, -48
	pushq	%rbx
	.cfi_def_cfa_offset 56
	.cfi_offset 3, -56
	movq	%r8, %r13
	movq	%rdi, %rbx
	movl	%esi, %r14d
	subq	$24, %rsp
	.cfi_def_cfa_offset 80
	movq	%fs:40, %rax
	movq	%rax, 8(%rsp)
	xorl	%eax, %eax
	call	EVP_CIPHER_CTX_new@PLT
	movq	%rax, %rbp
	call	EVP_aes_256_cbc@PLT
	movq	%r12, %rcx
	leaq	4(%rsp), %r12
	xorl	%edx, %edx
	movq	%r15, %r8
	movq	%rax, %rsi
	movq	%rbp, %rdi
	call	EVP_DecryptInit_ex@PLT
	movq	%rbx, %rcx
	movl	%r14d, %r8d
	movq	%r12, %rdx
	movq	%r13, %rsi
	movq	%rbp, %rdi
	call	EVP_DecryptUpdate@PLT
	movslq	4(%rsp), %rsi
	movq	%r12, %rdx
	movq	%rbp, %rdi
	movq	%rsi, %rbx
	addq	%r13, %rsi
	call	EVP_DecryptFinal_ex@PLT
	movq	%rbp, %rdi
	addl	4(%rsp), %ebx
	call	EVP_CIPHER_CTX_free@PLT
	movq	8(%rsp), %rcx
	xorq	%fs:40, %rcx
	jne	.L1787
	addq	$24, %rsp
	.cfi_remember_state
	.cfi_def_cfa_offset 56
	movl	%ebx, %eax
	popq	%rbx
	.cfi_def_cfa_offset 48
	popq	%rbp
	.cfi_def_cfa_offset 40
	popq	%r12
	.cfi_def_cfa_offset 32
	popq	%r13
	.cfi_def_cfa_offset 24
	popq	%r14
	.cfi_def_cfa_offset 16
	popq	%r15
	.cfi_def_cfa_offset 8
	ret
.L1787:
	.cfi_restore_state
	call	__stack_chk_fail@PLT
	.cfi_endproc
.LFE2069:
	.size	_Z11aes_decryptPhiS_S_S_, .-_Z11aes_decryptPhiS_S_S_
	.section	.text.unlikely._Z11aes_decryptPhiS_S_S_
.LCOLDE52:
	.section	.text._Z11aes_decryptPhiS_S_S_
.LHOTE52:
	.section	.text.unlikely._Z11aes_encryptPhiS_S_S_,"ax",@progbits
.LCOLDB53:
	.section	.text._Z11aes_encryptPhiS_S_S_,"ax",@progbits
.LHOTB53:
	.p2align 4,,15
	.globl	_Z11aes_encryptPhiS_S_S_
	.hidden	_Z11aes_encryptPhiS_S_S_
	.type	_Z11aes_encryptPhiS_S_S_, @function
_Z11aes_encryptPhiS_S_S_:
.LFB2070:
	.cfi_startproc
	pushq	%r15
	.cfi_def_cfa_offset 16
	.cfi_offset 15, -16
	pushq	%r14
	.cfi_def_cfa_offset 24
	.cfi_offset 14, -24
	movq	%rcx, %r15
	pushq	%r13
	.cfi_def_cfa_offset 32
	.cfi_offset 13, -32
	pushq	%r12
	.cfi_def_cfa_offset 40
	.cfi_offset 12, -40
	movq	%rdx, %r12
	pushq	%rbp
	.cfi_def_cfa_offset 48
	.cfi_offset 6, -48
	pushq	%rbx
	.cfi_def_cfa_offset 56
	.cfi_offset 3, -56
	movq	%r8, %r13
	movq	%rdi, %rbx
	movl	%esi, %r14d
	subq	$24, %rsp
	.cfi_def_cfa_offset 80
	movq	%fs:40, %rax
	movq	%rax, 8(%rsp)
	xorl	%eax, %eax
	call	EVP_CIPHER_CTX_new@PLT
	movq	%rax, %rbp
	call	EVP_aes_256_cbc@PLT
	movq	%r12, %rcx
	leaq	4(%rsp), %r12
	xorl	%edx, %edx
	movq	%r15, %r8
	movq	%rax, %rsi
	movq	%rbp, %rdi
	call	EVP_EncryptInit_ex@PLT
	movq	%rbx, %rcx
	movl	%r14d, %r8d
	movq	%r12, %rdx
	movq	%r13, %rsi
	movq	%rbp, %rdi
	call	EVP_EncryptUpdate@PLT
	movslq	4(%rsp), %rsi
	movq	%r12, %rdx
	movq	%rbp, %rdi
	movq	%rsi, %rbx
	addq	%r13, %rsi
	call	EVP_EncryptFinal_ex@PLT
	movq	%rbp, %rdi
	addl	4(%rsp), %ebx
	call	EVP_CIPHER_CTX_free@PLT
	movq	8(%rsp), %rcx
	xorq	%fs:40, %rcx
	jne	.L1792
	addq	$24, %rsp
	.cfi_remember_state
	.cfi_def_cfa_offset 56
	movl	%ebx, %eax
	popq	%rbx
	.cfi_def_cfa_offset 48
	popq	%rbp
	.cfi_def_cfa_offset 40
	popq	%r12
	.cfi_def_cfa_offset 32
	popq	%r13
	.cfi_def_cfa_offset 24
	popq	%r14
	.cfi_def_cfa_offset 16
	popq	%r15
	.cfi_def_cfa_offset 8
	ret
.L1792:
	.cfi_restore_state
	call	__stack_chk_fail@PLT
	.cfi_endproc
.LFE2070:
	.size	_Z11aes_encryptPhiS_S_S_, .-_Z11aes_encryptPhiS_S_S_
	.section	.text.unlikely._Z11aes_encryptPhiS_S_S_
.LCOLDE53:
	.section	.text._Z11aes_encryptPhiS_S_S_
.LHOTE53:
	.section	.rodata.str1.1
.LC54:
	.string	"Encryption time: "
.LC55:
	.string	"Decryption time: "
	.section	.text.unlikely._Z13aes_benchmarkPh,"ax",@progbits
.LCOLDB56:
	.section	.text._Z13aes_benchmarkPh,"ax",@progbits
.LHOTB56:
	.p2align 4,,15
	.globl	_Z13aes_benchmarkPh
	.hidden	_Z13aes_benchmarkPh
	.type	_Z13aes_benchmarkPh, @function
_Z13aes_benchmarkPh:
.LFB2071:
	.cfi_startproc
	pushq	%r15
	.cfi_def_cfa_offset 16
	.cfi_offset 15, -16
	pushq	%r14
	.cfi_def_cfa_offset 24
	.cfi_offset 14, -24
	pushq	%r13
	.cfi_def_cfa_offset 32
	.cfi_offset 13, -32
	pushq	%r12
	.cfi_def_cfa_offset 40
	.cfi_offset 12, -40
	pushq	%rbp
	.cfi_def_cfa_offset 48
	.cfi_offset 6, -48
	pushq	%rbx
	.cfi_def_cfa_offset 56
	.cfi_offset 3, -56
	leaq	_ZZ10gen_randomPciE8alphanum(%rip), %rbx
	movabsq	$-8925843906633654007, %rbp
	subq	$20952, %rsp
	.cfi_def_cfa_offset 21008
	leaq	160(%rsp), %r13
	movq	%rdi, 8(%rsp)
	xorl	%edi, %edi
	movq	%fs:40, %rax
	movq	%rax, 20936(%rsp)
	xorl	%eax, %eax
	leaq	255(%r13), %r14
	movq	%r13, %r15
	call	time@PLT
	movl	%eax, %edi
	call	srand@PLT
	.p2align 4,,10
	.p2align 3
.L1794:
	call	rand@PLT
	movslq	%eax, %rcx
	addq	$1, %r15
	movq	%rcx, %rdx
	shrq	%rdx
	movq	%rdx, %rax
	mulq	%rbp
	shrq	$4, %rdx
	movq	%rdx, %rsi
	leaq	(%rcx,%rdx,2), %rax
	salq	$6, %rsi
	subq	%rsi, %rax
	movzbl	(%rbx,%rax), %eax
	movb	%al, -1(%r15)
	cmpq	%r14, %r15
	jne	.L1794
	leaq	32(%rsp), %r14
	xorl	%edi, %edi
	movb	$0, 415(%rsp)
	movabsq	$-8925843906633654007, %rbp
	leaq	127(%r14), %r15
	movq	%r14, %r12
	call	time@PLT
	movl	%eax, %edi
	call	srand@PLT
	.p2align 4,,10
	.p2align 3
.L1795:
	call	rand@PLT
	movslq	%eax, %rcx
	addq	$1, %r12
	movq	%rcx, %rdx
	shrq	%rdx
	movq	%rdx, %rax
	mulq	%rbp
	shrq	$4, %rdx
	movq	%rdx, %rdi
	leaq	(%rcx,%rdx,2), %rax
	salq	$6, %rdi
	subq	%rdi, %rax
	movzbl	(%rbx,%rax), %eax
	movb	%al, -1(%r12)
	cmpq	%r12, %r15
	jne	.L1795
	leaq	16(%rsp), %rbx
	movb	$0, 159(%rsp)
	leaq	10672(%rsp), %r15
	call	ERR_load_crypto_strings@PLT
	call	OPENSSL_add_all_algorithms_noconf@PLT
	xorl	%edi, %edi
	call	OPENSSL_config@PLT
	xorl	%esi, %esi
	movq	%rbx, %rdi
	call	gettimeofday@PLT
	vxorpd	%xmm0, %xmm0, %xmm0
	vxorpd	%xmm1, %xmm1, %xmm1
	vcvtsi2sdq	24(%rsp), %xmm0, %xmm0
	vdivsd	.LC46(%rip), %xmm0, %xmm0
	vcvtsi2sdq	16(%rsp), %xmm1, %xmm1
	vaddsd	%xmm1, %xmm0, %xmm2
	vmovsd	%xmm2, (%rsp)
	call	EVP_CIPHER_CTX_new@PLT
	movq	%rax, %rbp
	call	EVP_aes_256_cbc@PLT
	xorl	%edx, %edx
	movq	%rbp, %rdi
	movq	%r14, %r8
	movq	%r13, %rcx
	movq	%rax, %rsi
	call	EVP_EncryptInit_ex@PLT
	movq	8(%rsp), %rcx
	movl	$10240, %r8d
	movq	%rbp, %rdi
	movq	%rbx, %rdx
	movq	%r15, %rsi
	call	EVP_EncryptUpdate@PLT
	movslq	16(%rsp), %rsi
	movq	%rbx, %rdx
	movq	%rbp, %rdi
	movq	%rsi, %r12
	addq	%r15, %rsi
	call	EVP_EncryptFinal_ex@PLT
	movq	%rbp, %rdi
	addl	16(%rsp), %r12d
	call	EVP_CIPHER_CTX_free@PLT
	xorl	%esi, %esi
	movq	%rbx, %rdi
	call	gettimeofday@PLT
	vxorpd	%xmm0, %xmm0, %xmm0
	movq	_ZSt4cout@GOTPCREL(%rip), %rdi
	vxorpd	%xmm1, %xmm1, %xmm1
	leaq	.LC54(%rip), %rsi
	movl	$17, %edx
	vcvtsi2sdq	24(%rsp), %xmm0, %xmm0
	vdivsd	.LC46(%rip), %xmm0, %xmm0
	vcvtsi2sdq	16(%rsp), %xmm1, %xmm1
	vaddsd	%xmm1, %xmm0, %xmm0
	vsubsd	(%rsp), %xmm0, %xmm0
	vmovsd	%xmm0, (%rsp)
	call	_ZSt16__ostream_insertIcSt11char_traitsIcEERSt13basic_ostreamIT_T0_ES6_PKS3_l@PLT
	movq	_ZSt4cout@GOTPCREL(%rip), %rdi
	vmovsd	(%rsp), %xmm0
	call	_ZNSo9_M_insertIdEERSoT_@PLT
	movq	%rax, %rdx
	movq	(%rax), %rax
	movq	-24(%rax), %rax
	movq	240(%rdx,%rax), %rbp
	testq	%rbp, %rbp
	je	.L1799
	cmpb	$0, 56(%rbp)
	je	.L1797
	movsbl	67(%rbp), %esi
.L1798:
	movq	%rdx, %rdi
	call	_ZNSo3putEc@PLT
	movq	%rax, %rdi
	call	_ZNSo5flushEv@PLT
	xorl	%esi, %esi
	movq	%rbx, %rdi
	call	gettimeofday@PLT
	vxorpd	%xmm0, %xmm0, %xmm0
	vxorpd	%xmm1, %xmm1, %xmm1
	vcvtsi2sdq	24(%rsp), %xmm0, %xmm0
	vdivsd	.LC46(%rip), %xmm0, %xmm0
	vcvtsi2sdq	16(%rsp), %xmm1, %xmm1
	vaddsd	%xmm1, %xmm0, %xmm3
	vmovsd	%xmm3, (%rsp)
	call	EVP_CIPHER_CTX_new@PLT
	movq	%rax, %rbp
	call	EVP_aes_256_cbc@PLT
	movq	%r13, %rcx
	leaq	416(%rsp), %r13
	xorl	%edx, %edx
	movq	%rbp, %rdi
	movq	%r14, %r8
	movq	%rax, %rsi
	call	EVP_DecryptInit_ex@PLT
	movl	%r12d, %r8d
	movq	%r15, %rcx
	movq	%rbx, %rdx
	movq	%rbp, %rdi
	movq	%r13, %rsi
	call	EVP_DecryptUpdate@PLT
	movslq	16(%rsp), %rsi
	movq	%rbx, %rdx
	movq	%rbp, %rdi
	movq	%rsi, %r12
	addq	%r13, %rsi
	call	EVP_DecryptFinal_ex@PLT
	movq	%rbp, %rdi
	addl	16(%rsp), %r12d
	call	EVP_CIPHER_CTX_free@PLT
	xorl	%esi, %esi
	movq	%rbx, %rdi
	call	gettimeofday@PLT
	vxorpd	%xmm0, %xmm0, %xmm0
	movq	_ZSt4cout@GOTPCREL(%rip), %rdi
	vxorpd	%xmm1, %xmm1, %xmm1
	leaq	.LC55(%rip), %rsi
	movl	$17, %edx
	vcvtsi2sdq	24(%rsp), %xmm0, %xmm0
	vdivsd	.LC46(%rip), %xmm0, %xmm0
	vcvtsi2sdq	16(%rsp), %xmm1, %xmm1
	vaddsd	%xmm1, %xmm0, %xmm0
	vsubsd	(%rsp), %xmm0, %xmm0
	vmovsd	%xmm0, (%rsp)
	call	_ZSt16__ostream_insertIcSt11char_traitsIcEERSt13basic_ostreamIT_T0_ES6_PKS3_l@PLT
	movq	_ZSt4cout@GOTPCREL(%rip), %rdi
	vmovsd	(%rsp), %xmm0
	call	_ZNSo9_M_insertIdEERSoT_@PLT
	movq	%rax, %rbp
	movq	(%rax), %rax
	movq	-24(%rax), %rax
	movq	240(%rbp,%rax), %rbx
	testq	%rbx, %rbx
	je	.L1799
	cmpb	$0, 56(%rbx)
	je	.L1800
	movsbl	67(%rbx), %esi
.L1801:
	movq	%rbp, %rdi
	call	_ZNSo3putEc@PLT
	movq	%rax, %rdi
	call	_ZNSo5flushEv@PLT
	movslq	%r12d, %rax
	movb	$0, 416(%rsp,%rax)
	call	EVP_cleanup@PLT
	call	ERR_free_strings@PLT
	movq	20936(%rsp), %rax
	xorq	%fs:40, %rax
	jne	.L1812
	addq	$20952, %rsp
	.cfi_remember_state
	.cfi_def_cfa_offset 56
	popq	%rbx
	.cfi_def_cfa_offset 48
	popq	%rbp
	.cfi_def_cfa_offset 40
	popq	%r12
	.cfi_def_cfa_offset 32
	popq	%r13
	.cfi_def_cfa_offset 24
	popq	%r14
	.cfi_def_cfa_offset 16
	popq	%r15
	.cfi_def_cfa_offset 8
	ret
	.p2align 4,,10
	.p2align 3
.L1797:
	.cfi_restore_state
	movq	%rbp, %rdi
	movq	%rdx, (%rsp)
	call	_ZNKSt5ctypeIcE13_M_widen_initEv@PLT
	movq	0(%rbp), %rax
	movl	$10, %esi
	movq	(%rsp), %rdx
	movq	48(%rax), %rax
	cmpq	_ZNKSt5ctypeIcE8do_widenEc@GOTPCREL(%rip), %rax
	je	.L1798
	movq	%rbp, %rdi
	call	*%rax
	movq	(%rsp), %rdx
	movsbl	%al, %esi
	jmp	.L1798
	.p2align 4,,10
	.p2align 3
.L1800:
	movq	%rbx, %rdi
	call	_ZNKSt5ctypeIcE13_M_widen_initEv@PLT
	movq	(%rbx), %rax
	movl	$10, %esi
	movq	48(%rax), %rax
	cmpq	_ZNKSt5ctypeIcE8do_widenEc@GOTPCREL(%rip), %rax
	je	.L1801
	movq	%rbx, %rdi
	call	*%rax
	movsbl	%al, %esi
	jmp	.L1801
.L1812:
	call	__stack_chk_fail@PLT
.L1799:
	call	_ZSt16__throw_bad_castv@PLT
	.cfi_endproc
.LFE2071:
	.size	_Z13aes_benchmarkPh, .-_Z13aes_benchmarkPh
	.section	.text.unlikely._Z13aes_benchmarkPh
.LCOLDE56:
	.section	.text._Z13aes_benchmarkPh
.LHOTE56:
	.section	.text.unlikely._Z9full_testv,"ax",@progbits
.LCOLDB57:
	.section	.text._Z9full_testv,"ax",@progbits
.LHOTB57:
	.p2align 4,,15
	.globl	_Z9full_testv
	.hidden	_Z9full_testv
	.type	_Z9full_testv, @function
_Z9full_testv:
.LFB2074:
	.cfi_startproc
	movl	$1, %eax
	ret
	.cfi_endproc
.LFE2074:
	.size	_Z9full_testv, .-_Z9full_testv
	.section	.text.unlikely._Z9full_testv
.LCOLDE57:
	.section	.text._Z9full_testv
.LHOTE57:
	.section	.rodata.str1.1
.LC58:
	.string	"c: Hello World!"
.LC59:
	.string	"this is just a test string"
	.section	.text.unlikely.Java_edu_xjtu_wwh_ed448_Ed448Imp_basicTest,"ax",@progbits
.LCOLDB60:
	.section	.text.Java_edu_xjtu_wwh_ed448_Ed448Imp_basicTest,"ax",@progbits
.LHOTB60:
	.p2align 4,,15
	.globl	Java_edu_xjtu_wwh_ed448_Ed448Imp_basicTest
	.type	Java_edu_xjtu_wwh_ed448_Ed448Imp_basicTest, @function
Java_edu_xjtu_wwh_ed448_Ed448Imp_basicTest:
.LFB2075:
	.cfi_startproc
	leaq	.LC58(%rip), %rdi
	subq	$8, %rsp
	.cfi_def_cfa_offset 16
	call	puts@PLT
	call	_Z10basic_testv
	leaq	.LC59(%rip), %rdi
	addq	$8, %rsp
	.cfi_def_cfa_offset 8
	jmp	_Z14run_benchmarksPKc
	.cfi_endproc
.LFE2075:
	.size	Java_edu_xjtu_wwh_ed448_Ed448Imp_basicTest, .-Java_edu_xjtu_wwh_ed448_Ed448Imp_basicTest
	.section	.text.unlikely.Java_edu_xjtu_wwh_ed448_Ed448Imp_basicTest
.LCOLDE60:
	.section	.text.Java_edu_xjtu_wwh_ed448_Ed448Imp_basicTest
.LHOTE60:
	.section	.rodata.str1.1
.LC61:
	.string	"wangweihuanimei"
.LC62:
	.string	"plain:"
	.section	.text.unlikely.Java_edu_xjtu_wwh_ed448_Ed448Imp_encrypt,"ax",@progbits
.LCOLDB63:
	.section	.text.Java_edu_xjtu_wwh_ed448_Ed448Imp_encrypt,"ax",@progbits
.LHOTB63:
	.p2align 4,,15
	.globl	Java_edu_xjtu_wwh_ed448_Ed448Imp_encrypt
	.type	Java_edu_xjtu_wwh_ed448_Ed448Imp_encrypt, @function
Java_edu_xjtu_wwh_ed448_Ed448Imp_encrypt:
.LFB2076:
	.cfi_startproc
	pushq	%r13
	.cfi_def_cfa_offset 16
	.cfi_offset 13, -16
	pushq	%r12
	.cfi_def_cfa_offset 24
	.cfi_offset 12, -24
	movq	%rdx, %r12
	pushq	%rbp
	.cfi_def_cfa_offset 32
	.cfi_offset 6, -32
	pushq	%rbx
	.cfi_def_cfa_offset 40
	.cfi_offset 3, -40
	xorl	%edx, %edx
	movq	%r12, %rsi
	subq	$8, %rsp
	.cfi_def_cfa_offset 48
	movq	(%rdi), %rax
	call	*1352(%rax)
	movq	_ZSt4cout@GOTPCREL(%rip), %rbp
	testq	%rax, %rax
	movq	%rax, %rbx
	leaq	.LC61(%rip), %rax
	leaq	.LC62(%rip), %rsi
	movl	$6, %edx
	cmove	%rax, %rbx
	movq	%rbp, %rdi
	call	_ZSt16__ostream_insertIcSt11char_traitsIcEERSt13basic_ostreamIT_T0_ES6_PKS3_l@PLT
	movq	%rbx, %rdi
	call	strlen@PLT
	movq	%rbx, %rsi
	movq	%rax, %rdx
	movq	%rbp, %rdi
	call	_ZSt16__ostream_insertIcSt11char_traitsIcEERSt13basic_ostreamIT_T0_ES6_PKS3_l@PLT
	movq	0(%rbp), %rax
	movq	-24(%rax), %rax
	movq	240(%rax,%rbp), %r13
	testq	%r13, %r13
	je	.L1824
	cmpb	$0, 56(%r13)
	je	.L1819
	movsbl	67(%r13), %esi
.L1820:
	movq	%rbp, %rdi
	call	_ZNSo3putEc@PLT
	movq	%rax, %rdi
	call	_ZNSo5flushEv@PLT
	movq	%rbx, %rdi
	call	strlen@PLT
	leal	1(%rax), %edi
	movslq	%edi, %rdi
	call	_Znam@PLT
	movq	%rbx, %rsi
	movq	%rax, %rdi
	call	strcpy@PLT
	xorl	%esi, %esi
	movq	%rax, %rdi
	call	_Z11wwh_encryptPcS_
	addq	$8, %rsp
	.cfi_remember_state
	.cfi_def_cfa_offset 40
	movq	%r12, %rax
	popq	%rbx
	.cfi_def_cfa_offset 32
	popq	%rbp
	.cfi_def_cfa_offset 24
	popq	%r12
	.cfi_def_cfa_offset 16
	popq	%r13
	.cfi_def_cfa_offset 8
	ret
	.p2align 4,,10
	.p2align 3
.L1819:
	.cfi_restore_state
	movq	%r13, %rdi
	call	_ZNKSt5ctypeIcE13_M_widen_initEv@PLT
	movq	0(%r13), %rax
	movl	$10, %esi
	movq	48(%rax), %rax
	cmpq	_ZNKSt5ctypeIcE8do_widenEc@GOTPCREL(%rip), %rax
	je	.L1820
	movq	%r13, %rdi
	call	*%rax
	movsbl	%al, %esi
	jmp	.L1820
.L1824:
	call	_ZSt16__throw_bad_castv@PLT
	.cfi_endproc
.LFE2076:
	.size	Java_edu_xjtu_wwh_ed448_Ed448Imp_encrypt, .-Java_edu_xjtu_wwh_ed448_Ed448Imp_encrypt
	.section	.text.unlikely.Java_edu_xjtu_wwh_ed448_Ed448Imp_encrypt
.LCOLDE63:
	.section	.text.Java_edu_xjtu_wwh_ed448_Ed448Imp_encrypt
.LHOTE63:
	.section	.rodata.str1.1
.LC64:
	.string	"thanks you are working"
	.section	.text.unlikely.main,"ax",@progbits
.LCOLDB65:
	.section	.text.startup.main,"ax",@progbits
.LHOTB65:
	.p2align 4,,15
	.globl	main
	.hidden	main
	.type	main, @function
main:
.LFB2077:
	.cfi_startproc
	leaq	.LC64(%rip), %rdi
	subq	$8, %rsp
	.cfi_def_cfa_offset 16
	call	puts@PLT
	movl	$1, %eax
	addq	$8, %rsp
	.cfi_def_cfa_offset 8
	ret
	.cfi_endproc
.LFE2077:
	.size	main, .-main
	.section	.text.unlikely.main
.LCOLDE65:
	.section	.text.startup.main
.LHOTE65:
	.section	.text.unlikely._ZNSt6vectorINSt7__cxx1112basic_stringIcSt11char_traitsIcESaIcEEESaIS5_EED2Ev,"axG",@progbits,_ZNSt6vectorINSt7__cxx1112basic_stringIcSt11char_traitsIcESaIcEEESaIS5_EED5Ev,comdat
	.align 2
.LCOLDB66:
	.section	.text._ZNSt6vectorINSt7__cxx1112basic_stringIcSt11char_traitsIcESaIcEEESaIS5_EED2Ev,"axG",@progbits,_ZNSt6vectorINSt7__cxx1112basic_stringIcSt11char_traitsIcESaIcEEESaIS5_EED5Ev,comdat
.LHOTB66:
	.align 2
	.p2align 4,,15
	.weak	_ZNSt6vectorINSt7__cxx1112basic_stringIcSt11char_traitsIcESaIcEEESaIS5_EED2Ev
	.type	_ZNSt6vectorINSt7__cxx1112basic_stringIcSt11char_traitsIcESaIcEEESaIS5_EED2Ev, @function
_ZNSt6vectorINSt7__cxx1112basic_stringIcSt11char_traitsIcESaIcEEESaIS5_EED2Ev:
.LFB2123:
	.cfi_startproc
	pushq	%r12
	.cfi_def_cfa_offset 16
	.cfi_offset 12, -16
	pushq	%rbp
	.cfi_def_cfa_offset 24
	.cfi_offset 6, -24
	pushq	%rbx
	.cfi_def_cfa_offset 32
	.cfi_offset 3, -32
	movq	8(%rdi), %rbp
	movq	(%rdi), %rbx
	cmpq	%rbx, %rbp
	je	.L1828
	movq	%rdi, %r12
	.p2align 4,,10
	.p2align 3
.L1830:
	movq	(%rbx), %rdi
	leaq	16(%rbx), %rax
	cmpq	%rax, %rdi
	je	.L1829
	call	_ZdlPv@PLT
.L1829:
	addq	$32, %rbx
	cmpq	%rbx, %rbp
	jne	.L1830
	movq	(%r12), %rbp
.L1828:
	testq	%rbp, %rbp
	je	.L1833
	popq	%rbx
	.cfi_remember_state
	.cfi_def_cfa_offset 24
	movq	%rbp, %rdi
	popq	%rbp
	.cfi_def_cfa_offset 16
	popq	%r12
	.cfi_def_cfa_offset 8
	jmp	_ZdlPv@PLT
	.p2align 4,,10
	.p2align 3
.L1833:
	.cfi_restore_state
	popq	%rbx
	.cfi_def_cfa_offset 24
	popq	%rbp
	.cfi_def_cfa_offset 16
	popq	%r12
	.cfi_def_cfa_offset 8
	ret
	.cfi_endproc
.LFE2123:
	.size	_ZNSt6vectorINSt7__cxx1112basic_stringIcSt11char_traitsIcESaIcEEESaIS5_EED2Ev, .-_ZNSt6vectorINSt7__cxx1112basic_stringIcSt11char_traitsIcESaIcEEESaIS5_EED2Ev
	.section	.text.unlikely._ZNSt6vectorINSt7__cxx1112basic_stringIcSt11char_traitsIcESaIcEEESaIS5_EED2Ev,"axG",@progbits,_ZNSt6vectorINSt7__cxx1112basic_stringIcSt11char_traitsIcESaIcEEESaIS5_EED5Ev,comdat
.LCOLDE66:
	.section	.text._ZNSt6vectorINSt7__cxx1112basic_stringIcSt11char_traitsIcESaIcEEESaIS5_EED2Ev,"axG",@progbits,_ZNSt6vectorINSt7__cxx1112basic_stringIcSt11char_traitsIcESaIcEEESaIS5_EED5Ev,comdat
.LHOTE66:
	.weak	_ZNSt6vectorINSt7__cxx1112basic_stringIcSt11char_traitsIcESaIcEEESaIS5_EED1Ev
	.set	_ZNSt6vectorINSt7__cxx1112basic_stringIcSt11char_traitsIcESaIcEEESaIS5_EED1Ev,_ZNSt6vectorINSt7__cxx1112basic_stringIcSt11char_traitsIcESaIcEEESaIS5_EED2Ev
	.section	.text.unlikely._ZNSt6vectorINSt7__cxx1112basic_stringIcSt11char_traitsIcESaIcEEESaIS5_EE13_M_insert_auxEN9__gnu_cxx17__normal_iteratorIPS5_S7_EERKS5_,"axG",@progbits,_ZNSt6vectorINSt7__cxx1112basic_stringIcSt11char_traitsIcESaIcEEESaIS5_EE13_M_insert_auxEN9__gnu_cxx17__normal_iteratorIPS5_S7_EERKS5_,comdat
	.align 2
.LCOLDB67:
	.section	.text._ZNSt6vectorINSt7__cxx1112basic_stringIcSt11char_traitsIcESaIcEEESaIS5_EE13_M_insert_auxEN9__gnu_cxx17__normal_iteratorIPS5_S7_EERKS5_,"axG",@progbits,_ZNSt6vectorINSt7__cxx1112basic_stringIcSt11char_traitsIcESaIcEEESaIS5_EE13_M_insert_auxEN9__gnu_cxx17__normal_iteratorIPS5_S7_EERKS5_,comdat
.LHOTB67:
	.align 2
	.p2align 4,,15
	.weak	_ZNSt6vectorINSt7__cxx1112basic_stringIcSt11char_traitsIcESaIcEEESaIS5_EE13_M_insert_auxEN9__gnu_cxx17__normal_iteratorIPS5_S7_EERKS5_
	.type	_ZNSt6vectorINSt7__cxx1112basic_stringIcSt11char_traitsIcESaIcEEESaIS5_EE13_M_insert_auxEN9__gnu_cxx17__normal_iteratorIPS5_S7_EERKS5_, @function
_ZNSt6vectorINSt7__cxx1112basic_stringIcSt11char_traitsIcESaIcEEESaIS5_EE13_M_insert_auxEN9__gnu_cxx17__normal_iteratorIPS5_S7_EERKS5_:
.LFB2191:
	.cfi_startproc
	.cfi_personality 0x9b,DW.ref.__gxx_personality_v0
	.cfi_lsda 0x1b,.LLSDA2191
	pushq	%r15
	.cfi_def_cfa_offset 16
	.cfi_offset 15, -16
	pushq	%r14
	.cfi_def_cfa_offset 24
	.cfi_offset 14, -24
	movq	%rdx, %r15
	pushq	%r13
	.cfi_def_cfa_offset 32
	.cfi_offset 13, -32
	pushq	%r12
	.cfi_def_cfa_offset 40
	.cfi_offset 12, -40
	movq	%rdi, %r13
	pushq	%rbp
	.cfi_def_cfa_offset 48
	.cfi_offset 6, -48
	pushq	%rbx
	.cfi_def_cfa_offset 56
	.cfi_offset 3, -56
	movq	%rsi, %r14
	subq	$136, %rsp
	.cfi_def_cfa_offset 192
	movq	8(%rdi), %rbx
	movq	%fs:40, %rax
	movq	%rax, 120(%rsp)
	xorl	%eax, %eax
	cmpq	16(%rdi), %rbx
	je	.L1836
	testq	%rbx, %rbx
	je	.L1837
	movq	-32(%rbx), %r12
	leaq	16(%rbx), %rax
	movq	-24(%rbx), %rbp
	movq	%rax, (%rbx)
	movq	%r12, %rax
	addq	%rbp, %rax
	je	.L1840
	testq	%r12, %r12
	jne	.L1840
.L1838:
	leaq	.LC42(%rip), %rdi
.LEHB282:
	call	_ZSt19__throw_logic_errorPKc@PLT
.LEHE282:
.L1840:
	cmpq	$15, %rbp
	movq	%rbp, 72(%rsp)
	ja	.L2024
	cmpq	$1, %rbp
	movq	(%rbx), %rax
	je	.L2025
	testq	%rbp, %rbp
	jne	.L1841
.L1843:
	movq	%rbp, 8(%rbx)
	movb	$0, (%rax,%rbp)
	movq	8(%r13), %rbx
.L1837:
	addq	$32, %rbx
	leaq	80(%rsp), %r12
	movq	%rbx, 8(%r13)
	movq	(%r15), %rbp
	leaq	16(%r12), %rax
	movq	8(%r15), %rbx
	movq	%rax, 80(%rsp)
	movq	%rbp, %rax
	addq	%rbx, %rax
	je	.L1845
	testq	%rbp, %rbp
	je	.L1838
.L1845:
	cmpq	$15, %rbx
	movq	%rbx, 72(%rsp)
	ja	.L2026
	cmpq	$1, %rbx
	je	.L2027
	testq	%rbx, %rbx
	leaq	16(%r12), %rax
	jne	.L2028
.L1848:
	movq	%rbx, 88(%rsp)
	movb	$0, (%rax,%rbx)
	movq	8(%r13), %rax
	leaq	-64(%rax), %rdx
	leaq	-32(%rax), %rbx
	subq	%r14, %rdx
	subq	%rdx, %rax
	cmpq	$31, %rdx
	leaq	-32(%rax), %rbp
	jle	.L1851
	.p2align 4,,10
	.p2align 3
.L1980:
	leaq	-64(%rbx), %rsi
	subq	$32, %rbx
	movq	%rbx, %rdi
.LEHB283:
	call	_ZNSt7__cxx1112basic_stringIcSt11char_traitsIcESaIcEE9_M_assignERKS4_@PLT
	cmpq	%rbp, %rbx
	jne	.L1980
.L1851:
	movq	%r12, %rsi
	movq	%r14, %rdi
	call	_ZNSt7__cxx1112basic_stringIcSt11char_traitsIcESaIcEE9_M_assignERKS4_@PLT
.LEHE283:
	movq	80(%rsp), %rdi
	addq	$16, %r12
	cmpq	%r12, %rdi
	je	.L1835
	call	_ZdlPv@PLT
.L1835:
	movq	120(%rsp), %rax
	xorq	%fs:40, %rax
	jne	.L2029
	addq	$136, %rsp
	.cfi_remember_state
	.cfi_def_cfa_offset 56
	popq	%rbx
	.cfi_def_cfa_offset 48
	popq	%rbp
	.cfi_def_cfa_offset 40
	popq	%r12
	.cfi_def_cfa_offset 32
	popq	%r13
	.cfi_def_cfa_offset 24
	popq	%r14
	.cfi_def_cfa_offset 16
	popq	%r15
	.cfi_def_cfa_offset 8
	ret
	.p2align 4,,10
	.p2align 3
.L2026:
	.cfi_restore_state
	leaq	72(%rsp), %rsi
	movq	%r12, %rdi
	xorl	%edx, %edx
.LEHB284:
	call	_ZNSt7__cxx1112basic_stringIcSt11char_traitsIcESaIcEE9_M_createERmm@PLT
	movq	%rax, %rdi
	movq	%rax, 80(%rsp)
	movq	72(%rsp), %rax
	movq	%rax, 96(%rsp)
.L1846:
	movq	%rbx, %rdx
	movq	%rbp, %rsi
	call	memcpy@PLT
	movq	72(%rsp), %rbx
	movq	80(%rsp), %rax
	jmp	.L1848
.L2024:
	leaq	72(%rsp), %rsi
	xorl	%edx, %edx
	movq	%rbx, %rdi
	call	_ZNSt7__cxx1112basic_stringIcSt11char_traitsIcESaIcEE9_M_createERmm@PLT
	movq	%rax, (%rbx)
	movq	72(%rsp), %rdx
	movq	%rdx, 16(%rbx)
.L1841:
	movq	%rbp, %rdx
	movq	%r12, %rsi
	movq	%rax, %rdi
	call	memcpy@PLT
	movq	72(%rsp), %rbp
	movq	(%rbx), %rax
	jmp	.L1843
.L2027:
	movzbl	0(%rbp), %eax
	movb	%al, 96(%rsp)
	leaq	16(%r12), %rax
	jmp	.L1848
.L2025:
	movzbl	(%r12), %edx
	movb	%dl, (%rax)
	movq	72(%rsp), %rbp
	movq	(%rbx), %rax
	jmp	.L1843
.L1836:
	movq	(%rdi), %rcx
	subq	%rcx, %rbx
	movq	%rbx, %rdx
	sarq	$5, %rdx
	testq	%rdx, %rdx
	je	.L1855
	leaq	(%rdx,%rdx), %rax
	cmpq	%rax, %rdx
	jbe	.L2030
.L1856:
	movq	$-32, 40(%rsp)
	movq	40(%rsp), %rdi
	movq	%r14, %rbx
	subq	%rcx, %rbx
.L1919:
	call	_Znwm@PLT
.LEHE284:
	movq	%rax, 16(%rsp)
.L1921:
	addq	16(%rsp), %rbx
	movq	%rbx, 24(%rsp)
	je	.L1858
	leaq	16(%rbx), %r12
	movq	(%r15), %rbp
	movq	%r12, (%rbx)
	movq	8(%r15), %rbx
	movq	%r12, %rax
	movq	%rbp, %rcx
	addq	%rbx, %rcx
	je	.L1861
	testq	%rbp, %rbp
	jne	.L1861
	leaq	.LC42(%rip), %rdi
.LEHB285:
	call	_ZSt19__throw_logic_errorPKc@PLT
.LEHE285:
.L1855:
	movq	%rsi, %rbx
	movl	$1, %eax
	subq	%rcx, %rbx
.L1920:
	salq	$5, %rax
	movq	%rax, 40(%rsp)
	movq	%rax, %rdi
	jmp	.L1919
.L1941:
	jmp	.L1928
	.p2align 4,,10
	.p2align 3
.L1861:
	cmpq	$15, %rbx
	movq	%rbx, 56(%rsp)
	ja	.L2031
	cmpq	$1, %rbx
	je	.L2032
	testq	%rbx, %rbx
	jne	.L1862
.L1864:
	movq	24(%rsp), %rcx
	movq	%rbx, 8(%rcx)
	movb	$0, (%rax,%rbx)
.L1858:
	movq	0(%r13), %r12
	movq	16(%rsp), %rbp
	cmpq	%r12, %r14
	je	.L1865
	leaq	64(%rsp), %rax
	movq	%rax, 8(%rsp)
	.p2align 4,,10
	.p2align 3
.L1873:
	testq	%rbp, %rbp
	je	.L1866
	leaq	16(%rbp), %rdi
	movq	%rdi, 0(%rbp)
	movq	(%r12), %r15
	movq	8(%r12), %rbx
	movq	%r15, %rax
	addq	%rbx, %rax
	je	.L1869
	testq	%r15, %r15
	jne	.L1869
	leaq	.LC42(%rip), %rdi
.LEHB286:
	call	_ZSt19__throw_logic_errorPKc@PLT
.LEHE286:
.L1938:
	jmp	.L1876
	.p2align 4,,10
	.p2align 3
.L1869:
	cmpq	$15, %rbx
	movq	%rbx, 64(%rsp)
	ja	.L2033
	cmpq	$1, %rbx
	je	.L2034
	testq	%rbx, %rbx
	jne	.L1870
.L1872:
	movq	%rbx, 8(%rbp)
	movb	$0, (%rdi,%rbx)
.L1866:
	addq	$32, %r12
	addq	$32, %rbp
	cmpq	%r12, %r14
	jne	.L1873
.L1865:
	movq	8(%r13), %r15
	leaq	32(%rbp), %rax
	movq	%rax, 32(%rsp)
	cmpq	%r15, %r14
	je	.L2035
	movq	%rax, %rbp
	leaq	72(%rsp), %rax
	movq	%r14, %r12
	movq	%rax, 8(%rsp)
	.p2align 4,,10
	.p2align 3
.L1890:
	testq	%rbp, %rbp
	je	.L1883
	movq	(%r12), %r14
	movq	8(%r12), %rbx
	leaq	16(%rbp), %rdi
	movq	%rdi, 0(%rbp)
	movq	%r14, %rax
	addq	%rbx, %rax
	je	.L1886
	testq	%r14, %r14
	jne	.L1886
	leaq	.LC42(%rip), %rdi
.LEHB287:
	call	_ZSt19__throw_logic_errorPKc@PLT
.LEHE287:
.L1940:
	jmp	.L1893
	.p2align 4,,10
	.p2align 3
.L1886:
	cmpq	$15, %rbx
	movq	%rbx, 72(%rsp)
	ja	.L2036
	cmpq	$1, %rbx
	je	.L2037
	testq	%rbx, %rbx
	jne	.L1887
.L1889:
	movq	%rbx, 8(%rbp)
	movb	$0, (%rdi,%rbx)
.L1883:
	addq	$32, %r12
	addq	$32, %rbp
	cmpq	%r12, %r15
	jne	.L1890
	movq	8(%r13), %r15
.L1874:
	movq	0(%r13), %rbx
	cmpq	%r15, %rbx
	je	.L1891
	.p2align 4,,10
	.p2align 3
.L1902:
	movq	(%rbx), %rdi
	leaq	16(%rbx), %rax
	cmpq	%rax, %rdi
	je	.L1901
	call	_ZdlPv@PLT
.L1901:
	addq	$32, %rbx
	cmpq	%r15, %rbx
	jne	.L1902
	movq	0(%r13), %r15
.L1891:
	testq	%r15, %r15
	je	.L1903
	movq	%r15, %rdi
	call	_ZdlPv@PLT
.L1903:
	movq	16(%rsp), %rax
	movq	%rbp, 8(%r13)
	movq	%rax, 0(%r13)
	addq	40(%rsp), %rax
	movq	%rax, 16(%r13)
	jmp	.L1835
	.p2align 4,,10
	.p2align 3
.L2033:
	movq	8(%rsp), %rsi
	xorl	%edx, %edx
	movq	%rbp, %rdi
.LEHB288:
	call	_ZNSt7__cxx1112basic_stringIcSt11char_traitsIcESaIcEE9_M_createERmm@PLT
.LEHE288:
	movq	%rax, %rdi
	movq	%rax, 0(%rbp)
	movq	64(%rsp), %rax
	movq	%rax, 16(%rbp)
.L1870:
	movq	%rbx, %rdx
	movq	%r15, %rsi
	call	memcpy@PLT
	movq	64(%rsp), %rbx
	movq	0(%rbp), %rdi
	jmp	.L1872
	.p2align 4,,10
	.p2align 3
.L2036:
	movq	8(%rsp), %rsi
	xorl	%edx, %edx
	movq	%rbp, %rdi
.LEHB289:
	call	_ZNSt7__cxx1112basic_stringIcSt11char_traitsIcESaIcEE9_M_createERmm@PLT
.LEHE289:
	movq	%rax, %rdi
	movq	%rax, 0(%rbp)
	movq	72(%rsp), %rax
	movq	%rax, 16(%rbp)
.L1887:
	movq	%rbx, %rdx
	movq	%r14, %rsi
	call	memcpy@PLT
	movq	72(%rsp), %rbx
	movq	0(%rbp), %rdi
	jmp	.L1889
	.p2align 4,,10
	.p2align 3
.L2034:
	movzbl	(%r15), %eax
	movb	%al, 16(%rbp)
	jmp	.L1872
	.p2align 4,,10
	.p2align 3
.L2037:
	movzbl	(%r14), %eax
	movb	%al, 16(%rbp)
	jmp	.L1889
.L2028:
	movq	%rax, %rdi
	jmp	.L1846
.L2031:
	movq	24(%rsp), %r15
	leaq	56(%rsp), %rsi
	xorl	%edx, %edx
	movq	%r15, %rdi
.LEHB290:
	call	_ZNSt7__cxx1112basic_stringIcSt11char_traitsIcESaIcEE9_M_createERmm@PLT
.LEHE290:
	movq	56(%rsp), %rdx
	movq	%rax, (%r15)
	movq	%rdx, 16(%r15)
.L1862:
	movq	%rbx, %rdx
	movq	%rbp, %rsi
	movq	%rax, %rdi
	call	memcpy@PLT
	movq	24(%rsp), %rax
	movq	56(%rsp), %rbx
	movq	(%rax), %rax
	jmp	.L1864
.L2032:
	movzbl	0(%rbp), %edx
	movq	24(%rsp), %rcx
	movb	%dl, 16(%rcx)
	jmp	.L1864
.L2035:
	movq	%rax, %rbp
	jmp	.L1874
.L1876:
	movq	%rax, %rdi
	vzeroupper
	call	__cxa_begin_catch@PLT
	movq	16(%rsp), %rax
	cmpq	%rbp, %rax
	movq	%rax, %rbx
	je	.L1879
.L1981:
	movq	(%rbx), %rdi
	leaq	16(%rbx), %rax
	cmpq	%rax, %rdi
	je	.L1878
	call	_ZdlPv@PLT
.L1878:
	addq	$32, %rbx
	cmpq	%rbp, %rbx
	jne	.L1981
.L1879:
.LEHB291:
	call	__cxa_rethrow@PLT
.LEHE291:
.L2029:
	call	__stack_chk_fail@PLT
.L1942:
	jmp	.L1906
.L1937:
	movq	%rax, %rbx
	jmp	.L1881
.L1906:
.L1928:
	movq	%rax, %rdi
	vzeroupper
	call	__cxa_begin_catch@PLT
	cmpq	$0, 16(%rsp)
	movq	24(%rsp), %rax
	je	.L1882
.L1929:
	movq	16(%rsp), %rdi
	call	_ZdlPv@PLT
.L1913:
.LEHB292:
	call	__cxa_rethrow@PLT
.LEHE292:
.L1881:
	vzeroupper
	call	__cxa_end_catch@PLT
	movq	%rbx, %rdi
	call	__cxa_begin_catch@PLT
	movq	24(%rsp), %rax
	leaq	16(%rax), %r12
.L1882:
	movq	(%rax), %rdi
	cmpq	%r12, %rdi
	je	.L1909
	call	_ZdlPv@PLT
.L1909:
	cmpq	$0, 16(%rsp)
	jne	.L1929
	jmp	.L1913
.L1936:
	movq	%rax, %rbx
	jmp	.L1914
.L1893:
	movq	%rax, %rdi
	vzeroupper
	call	__cxa_begin_catch@PLT
	movq	32(%rsp), %rax
	cmpq	%rbp, %rax
	movq	%rax, %rbx
	je	.L1896
.L1982:
	movq	(%rbx), %rdi
	leaq	16(%rbx), %rax
	cmpq	%rax, %rdi
	je	.L1895
	call	_ZdlPv@PLT
.L1895:
	addq	$32, %rbx
	cmpq	%rbx, %rbp
	jne	.L1982
.L1896:
.LEHB293:
	call	__cxa_rethrow@PLT
.LEHE293:
.L2030:
	movabsq	$576460752303423487, %rdx
	cmpq	%rdx, %rax
	ja	.L1856
	movq	%rsi, %rbx
	subq	%rcx, %rbx
	testq	%rax, %rax
	jne	.L1920
	movq	$0, 40(%rsp)
	movq	$0, 16(%rsp)
	jmp	.L1921
.L1939:
	movq	%rax, %rbx
	jmp	.L1898
.L1935:
	movq	%rax, %rbx
	jmp	.L1904
.L1914:
	vzeroupper
	call	__cxa_end_catch@PLT
.L2015:
	movq	%rbx, %rdi
.LEHB294:
	call	_Unwind_Resume@PLT
.LEHE294:
.L1898:
	vzeroupper
	call	__cxa_end_catch@PLT
	movq	%rbx, %rdi
	call	__cxa_begin_catch@PLT
	cmpq	$0, 32(%rsp)
	je	.L2038
	movq	16(%rsp), %rax
	cmpq	%rax, 32(%rsp)
	movq	%rax, %rbx
	je	.L1909
.L1983:
	movq	(%rbx), %rdi
	leaq	16(%rbx), %rax
	cmpq	%rax, %rdi
	je	.L1911
	call	_ZdlPv@PLT
.L1911:
	addq	$32, %rbx
	cmpq	%rbx, 32(%rsp)
	jne	.L1983
	jmp	.L1909
.L2038:
	movq	24(%rsp), %rax
	leaq	16(%rax), %r12
	jmp	.L1882
.L1904:
	movq	80(%rsp), %rdi
	addq	$16, %r12
	cmpq	%r12, %rdi
	je	.L2010
	vzeroupper
	call	_ZdlPv@PLT
	jmp	.L2015
.L2010:
	vzeroupper
	jmp	.L2015
	.cfi_endproc
.LFE2191:
	.section	.gcc_except_table._ZNSt6vectorINSt7__cxx1112basic_stringIcSt11char_traitsIcESaIcEEESaIS5_EE13_M_insert_auxEN9__gnu_cxx17__normal_iteratorIPS5_S7_EERKS5_,"aG",@progbits,_ZNSt6vectorINSt7__cxx1112basic_stringIcSt11char_traitsIcESaIcEEESaIS5_EE13_M_insert_auxEN9__gnu_cxx17__normal_iteratorIPS5_S7_EERKS5_,comdat
	.align 4
.LLSDA2191:
	.byte	0xff
	.byte	0x9b
	.uleb128 .LLSDATT2191-.LLSDATTD2191
.LLSDATTD2191:
	.byte	0x1
	.uleb128 .LLSDACSE2191-.LLSDACSB2191
.LLSDACSB2191:
	.uleb128 .LEHB282-.LFB2191
	.uleb128 .LEHE282-.LEHB282
	.uleb128 0
	.uleb128 0
	.uleb128 .LEHB283-.LFB2191
	.uleb128 .LEHE283-.LEHB283
	.uleb128 .L1935-.LFB2191
	.uleb128 0
	.uleb128 .LEHB284-.LFB2191
	.uleb128 .LEHE284-.LEHB284
	.uleb128 0
	.uleb128 0
	.uleb128 .LEHB285-.LFB2191
	.uleb128 .LEHE285-.LEHB285
	.uleb128 .L1941-.LFB2191
	.uleb128 0x1
	.uleb128 .LEHB286-.LFB2191
	.uleb128 .LEHE286-.LEHB286
	.uleb128 .L1938-.LFB2191
	.uleb128 0x1
	.uleb128 .LEHB287-.LFB2191
	.uleb128 .LEHE287-.LEHB287
	.uleb128 .L1940-.LFB2191
	.uleb128 0x1
	.uleb128 .LEHB288-.LFB2191
	.uleb128 .LEHE288-.LEHB288
	.uleb128 .L1938-.LFB2191
	.uleb128 0x1
	.uleb128 .LEHB289-.LFB2191
	.uleb128 .LEHE289-.LEHB289
	.uleb128 .L1940-.LFB2191
	.uleb128 0x1
	.uleb128 .LEHB290-.LFB2191
	.uleb128 .LEHE290-.LEHB290
	.uleb128 .L1942-.LFB2191
	.uleb128 0x1
	.uleb128 .LEHB291-.LFB2191
	.uleb128 .LEHE291-.LEHB291
	.uleb128 .L1937-.LFB2191
	.uleb128 0x3
	.uleb128 .LEHB292-.LFB2191
	.uleb128 .LEHE292-.LEHB292
	.uleb128 .L1936-.LFB2191
	.uleb128 0
	.uleb128 .LEHB293-.LFB2191
	.uleb128 .LEHE293-.LEHB293
	.uleb128 .L1939-.LFB2191
	.uleb128 0x3
	.uleb128 .LEHB294-.LFB2191
	.uleb128 .LEHE294-.LEHB294
	.uleb128 0
	.uleb128 0
.LLSDACSE2191:
	.byte	0x1
	.byte	0
	.byte	0
	.byte	0x7d
	.align 4
	.long	0

.LLSDATT2191:
	.section	.text._ZNSt6vectorINSt7__cxx1112basic_stringIcSt11char_traitsIcESaIcEEESaIS5_EE13_M_insert_auxEN9__gnu_cxx17__normal_iteratorIPS5_S7_EERKS5_,"axG",@progbits,_ZNSt6vectorINSt7__cxx1112basic_stringIcSt11char_traitsIcESaIcEEESaIS5_EE13_M_insert_auxEN9__gnu_cxx17__normal_iteratorIPS5_S7_EERKS5_,comdat
	.size	_ZNSt6vectorINSt7__cxx1112basic_stringIcSt11char_traitsIcESaIcEEESaIS5_EE13_M_insert_auxEN9__gnu_cxx17__normal_iteratorIPS5_S7_EERKS5_, .-_ZNSt6vectorINSt7__cxx1112basic_stringIcSt11char_traitsIcESaIcEEESaIS5_EE13_M_insert_auxEN9__gnu_cxx17__normal_iteratorIPS5_S7_EERKS5_
	.section	.text.unlikely._ZNSt6vectorINSt7__cxx1112basic_stringIcSt11char_traitsIcESaIcEEESaIS5_EE13_M_insert_auxEN9__gnu_cxx17__normal_iteratorIPS5_S7_EERKS5_,"axG",@progbits,_ZNSt6vectorINSt7__cxx1112basic_stringIcSt11char_traitsIcESaIcEEESaIS5_EE13_M_insert_auxEN9__gnu_cxx17__normal_iteratorIPS5_S7_EERKS5_,comdat
.LCOLDE67:
	.section	.text._ZNSt6vectorINSt7__cxx1112basic_stringIcSt11char_traitsIcESaIcEEESaIS5_EE13_M_insert_auxEN9__gnu_cxx17__normal_iteratorIPS5_S7_EERKS5_,"axG",@progbits,_ZNSt6vectorINSt7__cxx1112basic_stringIcSt11char_traitsIcESaIcEEESaIS5_EE13_M_insert_auxEN9__gnu_cxx17__normal_iteratorIPS5_S7_EERKS5_,comdat
.LHOTE67:
	.section	.text.unlikely._Z5splitRKNSt7__cxx1112basic_stringIcSt11char_traitsIcESaIcEEEcRSt6vectorIS4_SaIS4_EE,"ax",@progbits
.LCOLDB68:
	.section	.text._Z5splitRKNSt7__cxx1112basic_stringIcSt11char_traitsIcESaIcEEEcRSt6vectorIS4_SaIS4_EE,"ax",@progbits
.LHOTB68:
	.p2align 4,,15
	.globl	_Z5splitRKNSt7__cxx1112basic_stringIcSt11char_traitsIcESaIcEEEcRSt6vectorIS4_SaIS4_EE
	.hidden	_Z5splitRKNSt7__cxx1112basic_stringIcSt11char_traitsIcESaIcEEEcRSt6vectorIS4_SaIS4_EE
	.type	_Z5splitRKNSt7__cxx1112basic_stringIcSt11char_traitsIcESaIcEEEcRSt6vectorIS4_SaIS4_EE, @function
_Z5splitRKNSt7__cxx1112basic_stringIcSt11char_traitsIcESaIcEEEcRSt6vectorIS4_SaIS4_EE:
.LFB2047:
	.cfi_startproc
	.cfi_personality 0x9b,DW.ref.__gxx_personality_v0
	.cfi_lsda 0x1b,.LLSDA2047
	pushq	%r15
	.cfi_def_cfa_offset 16
	.cfi_offset 15, -16
	pushq	%r14
	.cfi_def_cfa_offset 24
	.cfi_offset 14, -24
	movq	%rdx, %r15
	pushq	%r13
	.cfi_def_cfa_offset 32
	.cfi_offset 13, -32
	pushq	%r12
	.cfi_def_cfa_offset 40
	.cfi_offset 12, -40
	pushq	%rbp
	.cfi_def_cfa_offset 48
	.cfi_offset 6, -48
	pushq	%rbx
	.cfi_def_cfa_offset 56
	.cfi_offset 3, -56
	movq	%rdi, %rbp
	subq	$504, %rsp
	.cfi_def_cfa_offset 560
	leaq	96(%rsp), %r14
	movl	%esi, 12(%rsp)
	movq	%fs:40, %rax
	movq	%rax, 488(%rsp)
	xorl	%eax, %eax
	leaq	128(%r14), %rdi
	call	_ZNSt8ios_baseC2Ev@PLT
	movq	_ZTVSt9basic_iosIcSt11char_traitsIcEE@GOTPCREL(%rip), %rax
	movq	$0, 440(%rsp)
	movq	%r14, %rdi
	movb	$0, 448(%rsp)
	movb	$0, 449(%rsp)
	xorl	%esi, %esi
	movq	$0, 456(%rsp)
	movq	$0, 464(%rsp)
	addq	$16, %rax
	movq	$0, 472(%rsp)
	movq	$0, 480(%rsp)
	movq	%rax, 224(%rsp)
	movq	_ZTTNSt7__cxx1118basic_stringstreamIcSt11char_traitsIcESaIcEEE@GOTPCREL(%rip), %rax
	movq	16(%rax), %r12
	movq	24(%rax), %rax
	movq	%r12, 96(%rsp)
	movq	%rax, %rcx
	movq	%rax, 16(%rsp)
	movq	-24(%r12), %rax
	movq	%rcx, 96(%rsp,%rax)
	movq	96(%rsp), %rax
	movq	$0, 104(%rsp)
	addq	-24(%rax), %rdi
.LEHB295:
	call	_ZNSt9basic_iosIcSt11char_traitsIcEE4initEPSt15basic_streambufIcS1_E@PLT
.LEHE295:
	movq	_ZTTNSt7__cxx1118basic_stringstreamIcSt11char_traitsIcESaIcEEE@GOTPCREL(%rip), %rax
	movq	_ZTTNSt7__cxx1118basic_stringstreamIcSt11char_traitsIcESaIcEEE@GOTPCREL(%rip), %rcx
	xorl	%esi, %esi
	movq	32(%rax), %rax
	movq	40(%rcx), %rcx
	movq	%rax, 112(%rsp)
	movq	%rax, 24(%rsp)
	movq	-24(%rax), %rax
	movq	%rcx, 32(%rsp)
	movq	%rcx, 112(%rsp,%rax)
	movq	112(%rsp), %rax
	movq	-24(%rax), %rax
	leaq	16(%r14,%rax), %rdi
.LEHB296:
	call	_ZNSt9basic_iosIcSt11char_traitsIcEE4initEPSt15basic_streambufIcS1_E@PLT
.LEHE296:
	movq	_ZTTNSt7__cxx1118basic_stringstreamIcSt11char_traitsIcESaIcEEE@GOTPCREL(%rip), %rax
	leaq	80(%r14), %rdi
	movq	8(%rax), %r13
	movq	48(%rax), %rax
	movq	%r13, 96(%rsp)
	movq	%rax, %rcx
	movq	%rax, 40(%rsp)
	movq	-24(%r13), %rax
	movq	%rcx, 96(%rsp,%rax)
	movq	_ZTVNSt7__cxx1118basic_stringstreamIcSt11char_traitsIcESaIcEEE@GOTPCREL(%rip), %rax
	movq	$0, 128(%rsp)
	movq	$0, 136(%rsp)
	movq	$0, 144(%rsp)
	movq	$0, 152(%rsp)
	addq	$24, %rax
	movq	$0, 160(%rsp)
	movq	$0, 168(%rsp)
	movq	%rax, 96(%rsp)
	movq	_ZTVNSt7__cxx1118basic_stringstreamIcSt11char_traitsIcESaIcEEE@GOTPCREL(%rip), %rax
	addq	$104, %rax
	movq	%rax, 224(%rsp)
	movq	_ZTVNSt7__cxx1118basic_stringstreamIcSt11char_traitsIcESaIcEEE@GOTPCREL(%rip), %rax
	addq	$64, %rax
	movq	%rax, 112(%rsp)
	movq	_ZTVSt15basic_streambufIcSt11char_traitsIcEE@GOTPCREL(%rip), %rax
	addq	$16, %rax
	movq	%rax, 120(%rsp)
	call	_ZNSt6localeC1Ev@PLT
	movq	_ZTVNSt7__cxx1115basic_stringbufIcSt11char_traitsIcESaIcEEE@GOTPCREL(%rip), %rax
	movq	8(%rbp), %rbx
	movq	0(%rbp), %rbp
	movl	$0, 184(%rsp)
	addq	$16, %rax
	movq	%rax, 120(%rsp)
	leaq	112(%r14), %rax
	movq	%rax, 192(%rsp)
	movq	%rbp, %rax
	addq	%rbx, %rax
	je	.L2042
	testq	%rbp, %rbp
	jne	.L2042
	leaq	.LC42(%rip), %rdi
.LEHB297:
	call	_ZSt19__throw_logic_errorPKc@PLT
.LEHE297:
.L2042:
	cmpq	$15, %rbx
	movq	%rbx, 56(%rsp)
	ja	.L2118
	cmpq	$1, %rbx
	je	.L2119
	testq	%rbx, %rbx
	leaq	112(%r14), %rax
	jne	.L2120
.L2047:
	movq	%rbx, 200(%rsp)
	movb	$0, (%rax,%rbx)
	leaq	24(%r14), %rdi
	movq	192(%rsp), %rsi
	xorl	%ecx, %ecx
	xorl	%edx, %edx
	movl	$24, 184(%rsp)
.LEHB298:
	call	_ZNSt7__cxx1115basic_stringbufIcSt11char_traitsIcESaIcEE7_M_syncEPcmm@PLT
.LEHE298:
	leaq	24(%r14), %rsi
	leaq	128(%r14), %rdi
.LEHB299:
	call	_ZNSt9basic_iosIcSt11char_traitsIcEE4initEPSt15basic_streambufIcS1_E@PLT
.LEHE299:
	leaq	64(%rsp), %r13
	movq	$0, 72(%rsp)
	movb	$0, 80(%rsp)
	leaq	16(%r13), %rax
	movq	%rax, 64(%rsp)
	movsbl	12(%rsp), %eax
	movl	%eax, 12(%rsp)
	leaq	56(%rsp), %rax
	movq	%rax, 16(%rsp)
	.p2align 4,,10
	.p2align 3
.L2056:
	movl	12(%rsp), %edx
	movq	%r13, %rsi
	movq	%r14, %rdi
.LEHB300:
	call	_ZSt7getlineIcSt11char_traitsIcESaIcEERSt13basic_istreamIT_T0_ES7_RNSt7__cxx1112basic_stringIS4_S5_T1_EES4_@PLT
	movq	(%rax), %rdx
	movq	-24(%rdx), %rdx
	testb	$5, 32(%rax,%rdx)
	jne	.L2121
	movq	8(%r15), %rbx
	cmpq	16(%r15), %rbx
	je	.L2122
	testq	%rbx, %rbx
	je	.L2059
	leaq	16(%rbx), %rax
	movq	%rax, (%rbx)
	movq	64(%rsp), %r12
	movq	72(%rsp), %rbp
	movq	%r12, %rax
	addq	%rbp, %rax
	je	.L2062
	testq	%r12, %r12
	jne	.L2062
	leaq	.LC42(%rip), %rdi
	call	_ZSt19__throw_logic_errorPKc@PLT
	.p2align 4,,10
	.p2align 3
.L2062:
	cmpq	$15, %rbp
	movq	%rbp, 56(%rsp)
	ja	.L2123
	cmpq	$1, %rbp
	movq	(%rbx), %rdi
	je	.L2124
	testq	%rbp, %rbp
	jne	.L2063
.L2065:
	movq	%rbp, 8(%rbx)
	movb	$0, (%rdi,%rbp)
	movq	8(%r15), %rbx
.L2059:
	addq	$32, %rbx
	movq	%rbx, 8(%r15)
	jmp	.L2056
	.p2align 4,,10
	.p2align 3
.L2123:
	movq	16(%rsp), %rsi
	xorl	%edx, %edx
	movq	%rbx, %rdi
	call	_ZNSt7__cxx1112basic_stringIcSt11char_traitsIcESaIcEE9_M_createERmm@PLT
.LEHE300:
	movq	%rax, %rdi
	movq	%rax, (%rbx)
	movq	56(%rsp), %rax
	movq	%rax, 16(%rbx)
.L2063:
	movq	%rbp, %rdx
	movq	%r12, %rsi
	call	memcpy@PLT
	movq	56(%rsp), %rbp
	movq	(%rbx), %rdi
	jmp	.L2065
	.p2align 4,,10
	.p2align 3
.L2124:
	movzbl	(%r12), %eax
	movb	%al, (%rdi)
	movq	56(%rsp), %rbp
	movq	(%rbx), %rdi
	jmp	.L2065
	.p2align 4,,10
	.p2align 3
.L2121:
	movq	64(%rsp), %rdi
	addq	$16, %r13
	cmpq	%r13, %rdi
	je	.L2073
	call	_ZdlPv@PLT
.L2073:
	movq	_ZTVNSt7__cxx1118basic_stringstreamIcSt11char_traitsIcESaIcEEE@GOTPCREL(%rip), %rax
	movq	192(%rsp), %rdi
	addq	$24, %rax
	movq	%rax, 96(%rsp)
	movq	_ZTVNSt7__cxx1118basic_stringstreamIcSt11char_traitsIcESaIcEEE@GOTPCREL(%rip), %rax
	addq	$104, %rax
	movq	%rax, 224(%rsp)
	movq	_ZTVNSt7__cxx1118basic_stringstreamIcSt11char_traitsIcESaIcEEE@GOTPCREL(%rip), %rax
	addq	$64, %rax
	movq	%rax, 112(%rsp)
	movq	_ZTVNSt7__cxx1115basic_stringbufIcSt11char_traitsIcESaIcEEE@GOTPCREL(%rip), %rax
	addq	$16, %rax
	movq	%rax, 120(%rsp)
	leaq	112(%r14), %rax
	cmpq	%rax, %rdi
	je	.L2067
	call	_ZdlPv@PLT
.L2067:
	movq	_ZTVSt15basic_streambufIcSt11char_traitsIcEE@GOTPCREL(%rip), %rax
	leaq	80(%r14), %rdi
	addq	$16, %rax
	movq	%rax, 120(%rsp)
	call	_ZNSt6localeD1Ev@PLT
	movq	_ZTTNSt7__cxx1118basic_stringstreamIcSt11char_traitsIcESaIcEEE@GOTPCREL(%rip), %rax
	movq	_ZTTNSt7__cxx1118basic_stringstreamIcSt11char_traitsIcESaIcEEE@GOTPCREL(%rip), %rcx
	leaq	128(%r14), %rdi
	movq	8(%rax), %rax
	movq	48(%rcx), %rdx
	movq	%rax, 96(%rsp)
	movq	-24(%rax), %rax
	movq	%rdx, 96(%rsp,%rax)
	movq	32(%rcx), %rax
	movq	40(%rcx), %rdx
	movq	%rax, 112(%rsp)
	movq	-24(%rax), %rax
	movq	%rdx, 112(%rsp,%rax)
	movq	16(%rcx), %rax
	movq	24(%rcx), %rdx
	movq	%rax, 96(%rsp)
	movq	-24(%rax), %rax
	movq	%rdx, 96(%rsp,%rax)
	movq	_ZTVSt9basic_iosIcSt11char_traitsIcEE@GOTPCREL(%rip), %rax
	addq	$16, %rax
	movq	%rax, 224(%rsp)
.LEHB301:
	call	_ZNSt8ios_baseD2Ev@PLT
.LEHE301:
	movq	488(%rsp), %rcx
	xorq	%fs:40, %rcx
	movq	%r15, %rax
	jne	.L2125
	addq	$504, %rsp
	.cfi_remember_state
	.cfi_def_cfa_offset 56
	popq	%rbx
	.cfi_def_cfa_offset 48
	popq	%rbp
	.cfi_def_cfa_offset 40
	popq	%r12
	.cfi_def_cfa_offset 32
	popq	%r13
	.cfi_def_cfa_offset 24
	popq	%r14
	.cfi_def_cfa_offset 16
	popq	%r15
	.cfi_def_cfa_offset 8
	ret
	.p2align 4,,10
	.p2align 3
.L2122:
	.cfi_restore_state
	movq	%r13, %rdx
	movq	%rbx, %rsi
	movq	%r15, %rdi
.LEHB302:
	call	_ZNSt6vectorINSt7__cxx1112basic_stringIcSt11char_traitsIcESaIcEEESaIS5_EE13_M_insert_auxEN9__gnu_cxx17__normal_iteratorIPS5_S7_EERKS5_@PLT
.LEHE302:
	jmp	.L2056
.L2118:
	leaq	56(%rsp), %rsi
	leaq	96(%r14), %rdi
	xorl	%edx, %edx
.LEHB303:
	call	_ZNSt7__cxx1112basic_stringIcSt11char_traitsIcESaIcEE9_M_createERmm@PLT
.LEHE303:
	movq	%rax, %rdi
	movq	%rax, 192(%rsp)
	movq	56(%rsp), %rax
	movq	%rax, 208(%rsp)
.L2045:
	movq	%rbx, %rdx
	movq	%rbp, %rsi
	call	memcpy@PLT
	movq	56(%rsp), %rbx
	movq	192(%rsp), %rax
	jmp	.L2047
.L2119:
	movzbl	0(%rbp), %eax
	movb	%al, 208(%rsp)
	leaq	112(%r14), %rax
	jmp	.L2047
	.p2align 4,,10
	.p2align 3
.L2080:
	movq	64(%rsp), %rdi
	addq	$16, %r13
	movq	%rax, %rbx
	cmpq	%r13, %rdi
	je	.L2108
	vzeroupper
	call	_ZdlPv@PLT
.L2069:
	movq	%r14, %rdi
	call	_ZNSt7__cxx1118basic_stringstreamIcSt11char_traitsIcESaIcEED1Ev@PLT
	movq	%rbx, %rdi
.LEHB304:
	call	_Unwind_Resume@PLT
.LEHE304:
.L2084:
	movq	%rax, %rbx
	vzeroupper
.L2051:
	movq	_ZTVSt15basic_streambufIcSt11char_traitsIcEE@GOTPCREL(%rip), %rax
	leaq	80(%r14), %rdi
	addq	$16, %rax
	movq	%rax, 120(%rsp)
	call	_ZNSt6localeD1Ev@PLT
	movq	16(%rsp), %r15
	movq	32(%rsp), %rax
	movq	24(%rsp), %rsi
	movq	40(%rsp), %rdx
.L2052:
	movq	%r13, 96(%rsp)
	movq	-24(%r13), %rcx
	movq	%rdx, 96(%rsp,%rcx)
	movq	%rsi, 112(%rsp)
	movq	-24(%rsi), %rdx
	movq	%rax, 112(%rsp,%rdx)
	movq	%r12, 96(%rsp)
	movq	-24(%r12), %rax
	movq	%r15, 96(%rsp,%rax)
.L2044:
	movq	_ZTVSt9basic_iosIcSt11char_traitsIcEE@GOTPCREL(%rip), %rax
	leaq	128(%r14), %rdi
	addq	$16, %rax
	movq	%rax, 224(%rsp)
	call	_ZNSt8ios_baseD2Ev@PLT
	movq	%rbx, %rdi
.LEHB305:
	call	_Unwind_Resume@PLT
.LEHE305:
	.p2align 4,,10
	.p2align 3
.L2120:
	movq	%rax, %rdi
	jmp	.L2045
.L2082:
	movq	%rax, %rbx
	movq	_ZTVNSt7__cxx1115basic_stringbufIcSt11char_traitsIcESaIcEEE@GOTPCREL(%rip), %rax
	movq	192(%rsp), %rdi
	addq	$16, %rax
	movq	%rax, 120(%rsp)
	leaq	112(%r14), %rax
	cmpq	%rax, %rdi
	je	.L2107
	vzeroupper
	call	_ZdlPv@PLT
.L2055:
	movq	_ZTVSt15basic_streambufIcSt11char_traitsIcEE@GOTPCREL(%rip), %rax
	leaq	80(%r14), %rdi
	addq	$16, %rax
	movq	%rax, 120(%rsp)
	call	_ZNSt6localeD1Ev@PLT
	movq	_ZTTNSt7__cxx1118basic_stringstreamIcSt11char_traitsIcESaIcEEE@GOTPCREL(%rip), %rax
	movq	_ZTTNSt7__cxx1118basic_stringstreamIcSt11char_traitsIcESaIcEEE@GOTPCREL(%rip), %rcx
	movq	8(%rax), %r13
	movq	48(%rax), %rdx
	movq	32(%rax), %rsi
	movq	16(%rcx), %r12
	movq	40(%rax), %rax
	movq	24(%rcx), %r15
	jmp	.L2052
.L2083:
	movq	%r12, 96(%rsp)
	movq	16(%rsp), %rcx
	movq	%rax, %rbx
	movq	-24(%r12), %rdx
	movq	%rcx, 96(%rsp,%rdx)
	vzeroupper
	jmp	.L2044
.L2107:
	vzeroupper
	jmp	.L2055
.L2085:
	movq	192(%rsp), %rdi
	movq	%rax, %rbx
	leaq	112(%r14), %rax
	cmpq	%rax, %rdi
	je	.L2106
	vzeroupper
	call	_ZdlPv@PLT
	jmp	.L2051
.L2108:
	vzeroupper
	jmp	.L2069
.L2106:
	vzeroupper
	jmp	.L2051
.L2081:
	movq	%rax, %rbx
	vzeroupper
	jmp	.L2044
.L2125:
	call	__stack_chk_fail@PLT
	.cfi_endproc
.LFE2047:
	.section	.gcc_except_table._Z5splitRKNSt7__cxx1112basic_stringIcSt11char_traitsIcESaIcEEEcRSt6vectorIS4_SaIS4_EE,"a",@progbits
.LLSDA2047:
	.byte	0xff
	.byte	0xff
	.byte	0x1
	.uleb128 .LLSDACSE2047-.LLSDACSB2047
.LLSDACSB2047:
	.uleb128 .LEHB295-.LFB2047
	.uleb128 .LEHE295-.LEHB295
	.uleb128 .L2081-.LFB2047
	.uleb128 0
	.uleb128 .LEHB296-.LFB2047
	.uleb128 .LEHE296-.LEHB296
	.uleb128 .L2083-.LFB2047
	.uleb128 0
	.uleb128 .LEHB297-.LFB2047
	.uleb128 .LEHE297-.LEHB297
	.uleb128 .L2084-.LFB2047
	.uleb128 0
	.uleb128 .LEHB298-.LFB2047
	.uleb128 .LEHE298-.LEHB298
	.uleb128 .L2085-.LFB2047
	.uleb128 0
	.uleb128 .LEHB299-.LFB2047
	.uleb128 .LEHE299-.LEHB299
	.uleb128 .L2082-.LFB2047
	.uleb128 0
	.uleb128 .LEHB300-.LFB2047
	.uleb128 .LEHE300-.LEHB300
	.uleb128 .L2080-.LFB2047
	.uleb128 0
	.uleb128 .LEHB301-.LFB2047
	.uleb128 .LEHE301-.LEHB301
	.uleb128 0
	.uleb128 0
	.uleb128 .LEHB302-.LFB2047
	.uleb128 .LEHE302-.LEHB302
	.uleb128 .L2080-.LFB2047
	.uleb128 0
	.uleb128 .LEHB303-.LFB2047
	.uleb128 .LEHE303-.LEHB303
	.uleb128 .L2084-.LFB2047
	.uleb128 0
	.uleb128 .LEHB304-.LFB2047
	.uleb128 .LEHE304-.LEHB304
	.uleb128 0
	.uleb128 0
	.uleb128 .LEHB305-.LFB2047
	.uleb128 .LEHE305-.LEHB305
	.uleb128 0
	.uleb128 0
.LLSDACSE2047:
	.section	.text._Z5splitRKNSt7__cxx1112basic_stringIcSt11char_traitsIcESaIcEEEcRSt6vectorIS4_SaIS4_EE
	.size	_Z5splitRKNSt7__cxx1112basic_stringIcSt11char_traitsIcESaIcEEEcRSt6vectorIS4_SaIS4_EE, .-_Z5splitRKNSt7__cxx1112basic_stringIcSt11char_traitsIcESaIcEEEcRSt6vectorIS4_SaIS4_EE
	.section	.text.unlikely._Z5splitRKNSt7__cxx1112basic_stringIcSt11char_traitsIcESaIcEEEcRSt6vectorIS4_SaIS4_EE
.LCOLDE68:
	.section	.text._Z5splitRKNSt7__cxx1112basic_stringIcSt11char_traitsIcESaIcEEEcRSt6vectorIS4_SaIS4_EE
.LHOTE68:
	.section	.text.unlikely._Z5splitRKNSt7__cxx1112basic_stringIcSt11char_traitsIcESaIcEEEc,"ax",@progbits
.LCOLDB69:
	.section	.text._Z5splitRKNSt7__cxx1112basic_stringIcSt11char_traitsIcESaIcEEEc,"ax",@progbits
.LHOTB69:
	.p2align 4,,15
	.globl	_Z5splitRKNSt7__cxx1112basic_stringIcSt11char_traitsIcESaIcEEEc
	.hidden	_Z5splitRKNSt7__cxx1112basic_stringIcSt11char_traitsIcESaIcEEEc
	.type	_Z5splitRKNSt7__cxx1112basic_stringIcSt11char_traitsIcESaIcEEEc, @function
_Z5splitRKNSt7__cxx1112basic_stringIcSt11char_traitsIcESaIcEEEc:
.LFB2048:
	.cfi_startproc
	.cfi_personality 0x9b,DW.ref.__gxx_personality_v0
	.cfi_lsda 0x1b,.LLSDA2048
	pushq	%rbp
	.cfi_def_cfa_offset 16
	.cfi_offset 6, -16
	pushq	%rbx
	.cfi_def_cfa_offset 24
	.cfi_offset 3, -24
	movq	%rdi, %rbx
	movq	%rsi, %rdi
	movsbl	%dl, %esi
	movq	%rbx, %rdx
	subq	$8, %rsp
	.cfi_def_cfa_offset 32
	movq	$0, (%rbx)
	movq	$0, 8(%rbx)
	movq	$0, 16(%rbx)
.LEHB306:
	call	_Z5splitRKNSt7__cxx1112basic_stringIcSt11char_traitsIcESaIcEEEcRSt6vectorIS4_SaIS4_EE
.LEHE306:
	addq	$8, %rsp
	.cfi_remember_state
	.cfi_def_cfa_offset 24
	movq	%rbx, %rax
	popq	%rbx
	.cfi_def_cfa_offset 16
	popq	%rbp
	.cfi_def_cfa_offset 8
	ret
.L2128:
	.cfi_restore_state
	movq	%rax, %rbp
	movq	%rbx, %rdi
	vzeroupper
	call	_ZNSt6vectorINSt7__cxx1112basic_stringIcSt11char_traitsIcESaIcEEESaIS5_EED1Ev@PLT
	movq	%rbp, %rdi
.LEHB307:
	call	_Unwind_Resume@PLT
.LEHE307:
	.cfi_endproc
.LFE2048:
	.section	.gcc_except_table._Z5splitRKNSt7__cxx1112basic_stringIcSt11char_traitsIcESaIcEEEc,"a",@progbits
.LLSDA2048:
	.byte	0xff
	.byte	0xff
	.byte	0x1
	.uleb128 .LLSDACSE2048-.LLSDACSB2048
.LLSDACSB2048:
	.uleb128 .LEHB306-.LFB2048
	.uleb128 .LEHE306-.LEHB306
	.uleb128 .L2128-.LFB2048
	.uleb128 0
	.uleb128 .LEHB307-.LFB2048
	.uleb128 .LEHE307-.LEHB307
	.uleb128 0
	.uleb128 0
.LLSDACSE2048:
	.section	.text._Z5splitRKNSt7__cxx1112basic_stringIcSt11char_traitsIcESaIcEEEc
	.size	_Z5splitRKNSt7__cxx1112basic_stringIcSt11char_traitsIcESaIcEEEc, .-_Z5splitRKNSt7__cxx1112basic_stringIcSt11char_traitsIcESaIcEEEc
	.section	.text.unlikely._Z5splitRKNSt7__cxx1112basic_stringIcSt11char_traitsIcESaIcEEEc
.LCOLDE69:
	.section	.text._Z5splitRKNSt7__cxx1112basic_stringIcSt11char_traitsIcESaIcEEEc
.LHOTE69:
	.section	.text.unlikely._Z12full_decryptPcS_S_S_,"ax",@progbits
.LCOLDB70:
	.section	.text._Z12full_decryptPcS_S_S_,"ax",@progbits
.LHOTB70:
	.p2align 4,,15
	.globl	_Z12full_decryptPcS_S_S_
	.hidden	_Z12full_decryptPcS_S_S_
	.type	_Z12full_decryptPcS_S_S_, @function
_Z12full_decryptPcS_S_S_:
.LFB2072:
	.cfi_startproc
	.cfi_personality 0x9b,DW.ref.__gxx_personality_v0
	.cfi_lsda 0x1b,.LLSDA2072
	leaq	8(%rsp), %r10
	.cfi_def_cfa 10, 0
	andq	$-32, %rsp
	pushq	-8(%r10)
	pushq	%rbp
	.cfi_escape 0x10,0x6,0x2,0x76,0
	movq	%rsp, %rbp
	pushq	%r15
	pushq	%r14
	pushq	%r13
	pushq	%r12
	.cfi_escape 0x10,0xf,0x2,0x76,0x78
	.cfi_escape 0x10,0xe,0x2,0x76,0x70
	.cfi_escape 0x10,0xd,0x2,0x76,0x68
	.cfi_escape 0x10,0xc,0x2,0x76,0x60
	movq	%rcx, %r12
	pushq	%r10
	.cfi_escape 0xf,0x3,0x76,0x58,0x6
	pushq	%rbx
	subq	$1152, %rsp
	.cfi_escape 0x10,0x3,0x2,0x76,0x50
	movq	%fs:40, %rax
	movq	%rax, -56(%rbp)
	xorl	%eax, %eax
	leaq	-496(%rbp), %rax
	testq	%rdi, %rdi
	leaq	16(%rax), %rcx
	movq	%rax, -1128(%rbp)
	movq	%rcx, -496(%rbp)
	movq	%rcx, -1112(%rbp)
	je	.L2134
	movq	%rdi, %r15
	movq	%rsi, %r14
	movq	%rdx, %r13
	call	strlen@PLT
	cmpq	$15, %rax
	movq	%rax, %rbx
	movq	%rax, -1040(%rbp)
	movq	-1112(%rbp), %rcx
	ja	.L2337
	cmpq	$1, %rax
	je	.L2338
	testq	%rax, %rax
	movq	%rcx, %rdx
	jne	.L2339
.L2138:
	movq	%rax, -488(%rbp)
	movq	-1128(%rbp), %rdi
	movl	$44, %esi
	movb	$0, (%rdx,%rax)
	leaq	-1072(%rbp), %rax
	movq	$0, -1072(%rbp)
	movq	$0, -1064(%rbp)
	movq	$0, -1056(%rbp)
	movq	%rax, %rdx
	movq	%rax, -1184(%rbp)
.LEHB308:
	call	_Z5splitRKNSt7__cxx1112basic_stringIcSt11char_traitsIcESaIcEEEcRSt6vectorIS4_SaIS4_EE
.LEHE308:
	movq	-1128(%rbp), %rax
	movq	-496(%rbp), %rdi
	addq	$16, %rax
	cmpq	%rax, %rdi
	je	.L2143
	call	_ZdlPv@PLT
.L2143:
	leaq	-1008(%rbp), %rbx
	testq	%r14, %r14
	leaq	16(%rbx), %rdx
	movq	%rdx, -1008(%rbp)
	movq	%rdx, -1112(%rbp)
	je	.L2144
	movq	%r14, %rdi
	call	strlen@PLT
	cmpq	$15, %rax
	movq	%rax, %r15
	movq	%rax, -1104(%rbp)
	movq	-1112(%rbp), %rdx
	ja	.L2340
	cmpq	$1, %rax
	je	.L2341
	testq	%rax, %rax
	movq	%rdx, %rcx
	jne	.L2342
.L2148:
	leaq	-240(%rbp), %r14
	movq	%rax, -1000(%rbp)
	movq	%rbx, %rdi
	movb	$0, (%rcx,%rax)
	movq	%r14, %rsi
.LEHB309:
	call	_Z13base64_decodeRKNSt7__cxx1112basic_stringIcSt11char_traitsIcESaIcEEEPh
.LEHE309:
	movq	-1008(%rbp), %rdi
	addq	$16, %rbx
	cmpq	%rbx, %rdi
	je	.L2149
	call	_ZdlPv@PLT
.L2149:
	leaq	-976(%rbp), %rbx
	testq	%r13, %r13
	leaq	16(%rbx), %rdx
	movq	%rdx, -976(%rbp)
	movq	%rdx, -1112(%rbp)
	je	.L2150
	movq	%r13, %rdi
	call	strlen@PLT
	cmpq	$15, %rax
	movq	%rax, %r15
	movq	%rax, -1096(%rbp)
	movq	-1112(%rbp), %rdx
	ja	.L2343
	cmpq	$1, %rax
	je	.L2344
	testq	%rax, %rax
	movq	%rdx, %rcx
	jne	.L2345
.L2154:
	leaq	-176(%rbp), %r13
	movq	%rax, -968(%rbp)
	movq	%rbx, %rdi
	movb	$0, (%rcx,%rax)
	movq	%r13, %rsi
.LEHB310:
	call	_Z13base64_decodeRKNSt7__cxx1112basic_stringIcSt11char_traitsIcESaIcEEEPh
.LEHE310:
	movq	-976(%rbp), %rdi
	addq	$16, %rbx
	cmpq	%rbx, %rdi
	je	.L2155
	call	_ZdlPv@PLT
.L2155:
	movq	decaf_448_scalar_zero@GOTPCREL(%rip), %rbx
	movq	%r14, %rsi
	movq	(%rbx), %rax
	movq	%rax, -880(%rbp)
	movq	8(%rbx), %rax
	movq	%rax, -872(%rbp)
	movq	16(%rbx), %rax
	movq	%rax, -864(%rbp)
	movq	24(%rbx), %rax
	movq	%rax, -856(%rbp)
	movq	32(%rbx), %rax
	movq	%rax, -848(%rbp)
	movq	40(%rbx), %rax
	movq	%rax, -840(%rbp)
	movq	48(%rbx), %rax
	movq	%rax, -832(%rbp)
	leaq	-880(%rbp), %rax
	movq	%rax, %rdi
	movq	%rax, -1152(%rbp)
.LEHB311:
	call	decaf_448_scalar_decode@PLT
.LEHE311:
	movq	_ZSt4cout@GOTPCREL(%rip), %rdi
	movq	%rax, %rsi
.LEHB312:
	call	_ZNSo9_M_insertImEERSoT_@PLT
	movq	%rax, %r15
	movq	(%rax), %rax
	movq	-24(%rax), %rax
	movq	240(%r15,%rax), %r14
	testq	%r14, %r14
	je	.L2346
	cmpb	$0, 56(%r14)
	je	.L2160
	movsbl	67(%r14), %esi
.L2161:
	movq	%r15, %rdi
	call	_ZNSo3putEc@PLT
	movq	%rax, %rdi
	call	_ZNSo5flushEv@PLT
.LEHE312:
	movq	(%rbx), %rax
	movq	%r13, %rsi
	movq	%rax, -816(%rbp)
	movq	8(%rbx), %rax
	movq	%rax, -808(%rbp)
	movq	16(%rbx), %rax
	movq	%rax, -800(%rbp)
	movq	24(%rbx), %rax
	movq	%rax, -792(%rbp)
	movq	32(%rbx), %rax
	movq	%rax, -784(%rbp)
	movq	40(%rbx), %rax
	movq	%rax, -776(%rbp)
	movq	48(%rbx), %rax
	movq	%rax, -768(%rbp)
	leaq	-816(%rbp), %rax
	movq	%rax, %rdi
	movq	%rax, -1160(%rbp)
.LEHB313:
	call	decaf_448_scalar_decode@PLT
.LEHE313:
	movq	_ZSt4cout@GOTPCREL(%rip), %rdi
	movq	%rax, %rsi
.LEHB314:
	call	_ZNSo9_M_insertImEERSoT_@PLT
	movq	%rax, %r13
	movq	(%rax), %rax
	movq	-24(%rax), %rax
	movq	240(%r13,%rax), %rbx
	testq	%rbx, %rbx
	je	.L2347
	cmpb	$0, 56(%rbx)
	je	.L2166
	movsbl	67(%rbx), %esi
.L2167:
	movq	%r13, %rdi
	call	_ZNSo3putEc@PLT
	movq	%rax, %rdi
	call	_ZNSo5flushEv@PLT
	movq	-1064(%rbp), %rdi
	subq	-1072(%rbp), %rdi
	sarq	$5, %rdi
	call	_Znam@PLT
.LEHE314:
	movq	%rax, -1144(%rbp)
	leaq	-752(%rbp), %rax
	testq	%r12, %r12
	leaq	16(%rax), %r13
	movq	%rax, -1112(%rbp)
	movq	%r13, -752(%rbp)
	je	.L2168
	movq	%r12, %rdi
	call	strlen@PLT
	cmpq	$15, %rax
	movq	%rax, %rbx
	movq	%rax, -1040(%rbp)
	ja	.L2348
	cmpq	$1, %rax
	je	.L2349
	testq	%rax, %rax
	movq	%r13, %rdx
	jne	.L2350
.L2172:
	movq	-1112(%rbp), %rbx
	movq	-1144(%rbp), %rsi
	movq	%rax, -744(%rbp)
	movb	$0, (%rdx,%rax)
	movq	%rbx, %rdi
.LEHB315:
	call	_Z13base64_decodeRKNSt7__cxx1112basic_stringIcSt11char_traitsIcESaIcEEEPh
.LEHE315:
	movq	-752(%rbp), %rdi
	movq	%rbx, %rax
	addq	$16, %rax
	cmpq	%rax, %rdi
	je	.L2173
	call	_ZdlPv@PLT
.L2173:
	movq	-1064(%rbp), %rdx
	subq	-1072(%rbp), %rdx
	leaq	-944(%rbp), %rax
	movq	$0, -936(%rbp)
	movb	$0, -928(%rbp)
	movq	%rax, -1168(%rbp)
	addq	$16, %rax
	movq	%rax, -944(%rbp)
	sarq	$5, %rdx
	testq	%rdx, %rdx
	je	.L2248
	leaq	-912(%rbp), %rax
	leaq	-496(%rbp), %r14
	xorl	%r12d, %r12d
	movq	%rax, -1136(%rbp)
	leaq	16(%rax), %r15
	leaq	16(%r14), %rax
	movq	%rax, -1120(%rbp)
	.p2align 4,,10
	.p2align 3
.L2202:
	leaq	16+_ZTVN5decaf12SecureBufferE(%rip), %rax
	movl	$56, %edi
	movq	$0, -1032(%rbp)
	movq	$56, -1024(%rbp)
	movq	%rax, -1040(%rbp)
.LEHB316:
	call	_Znam@PLT
.LEHE316:
	leaq	8(%rax), %rdi
	movq	%rax, -1032(%rbp)
	movq	$0, (%rax)
	movq	$0, 48(%rax)
	andq	$-8, %rdi
	subq	%rdi, %rax
	leal	56(%rax), %ecx
	xorl	%eax, %eax
	shrl	$3, %ecx
	rep stosq
	movq	%r12, %rax
	movq	%r15, -912(%rbp)
	salq	$5, %rax
	addq	-1072(%rbp), %rax
	movq	(%rax), %r13
	movq	8(%rax), %rbx
	movq	%r13, %rax
	addq	%rbx, %rax
	je	.L2177
	testq	%r13, %r13
	jne	.L2177
	leaq	.LC42(%rip), %rdi
.LEHB317:
	call	_ZSt19__throw_logic_errorPKc@PLT
.LEHE317:
	.p2align 4,,10
	.p2align 3
.L2177:
	cmpq	$15, %rbx
	movq	%rbx, -1088(%rbp)
	ja	.L2351
	cmpq	$1, %rbx
	je	.L2352
	testq	%rbx, %rbx
	movq	%r15, %rax
	jne	.L2353
.L2180:
	movq	%rbx, -904(%rbp)
	movq	-1136(%rbp), %rdi
	movb	$0, (%rax,%rbx)
	leaq	-112(%rbp), %rbx
	movq	%rbx, %rsi
.LEHB318:
	call	_Z13base64_decodeRKNSt7__cxx1112basic_stringIcSt11char_traitsIcESaIcEEEPh
.LEHE318:
	movq	-912(%rbp), %rdi
	cmpq	%r15, %rdi
	je	.L2181
	call	_ZdlPv@PLT
.L2181:
	movq	-1112(%rbp), %rdi
	movq	$-1, %rdx
	movq	%rbx, %rsi
.LEHB319:
	call	decaf_448_point_decode@PLT
.LEHE319:
	testq	%rax, %rax
	je	.L2354
	movq	-1144(%rbp), %rax
	movq	-1128(%rbp), %rdi
	movl	$32, %ecx
	movq	-1112(%rbp), %rsi
	movq	-1152(%rbp), %rdx
	movl	%r12d, %r8d
	rep movsq
	movzbl	(%rax,%r12), %r9d
	movq	-1160(%rbp), %rcx
	leaq	-1040(%rbp), %rax
	movq	%r14, %rsi
	movq	%r14, -1128(%rbp)
	movq	%rax, %rdi
	movq	%rax, -1176(%rbp)
.LEHB320:
	call	_Z7decryptRN5decaf12SecureBufferENS_5Ed4485PointERKNS2_6ScalarES6_ih
.LEHE320:
	movq	%r14, %rdi
.LEHB321:
	call	decaf_448_point_destroy@PLT
.LEHE321:
	movq	-1120(%rbp), %rax
	movq	-1032(%rbp), %r13
	movq	-1024(%rbp), %rbx
	movq	%rax, -496(%rbp)
	movq	%r13, %rax
	addq	%rbx, %rax
	je	.L2191
	testq	%r13, %r13
	jne	.L2191
	leaq	.LC42(%rip), %rdi
.LEHB322:
	call	_ZSt19__throw_logic_errorPKc@PLT
.LEHE322:
	.p2align 4,,10
	.p2align 3
.L2191:
	cmpq	$15, %rbx
	movq	%rbx, -1080(%rbp)
	ja	.L2355
	cmpq	$1, %rbx
	je	.L2356
	testq	%rbx, %rbx
	movq	-1120(%rbp), %rax
	jne	.L2357
.L2196:
	movq	%rbx, -488(%rbp)
	movq	-1168(%rbp), %rdi
	movb	$0, (%rax,%rbx)
	movq	-488(%rbp), %rdx
	movq	-496(%rbp), %rsi
.LEHB323:
	call	_ZNSt7__cxx1112basic_stringIcSt11char_traitsIcESaIcEE9_M_appendEPKcm@PLT
.LEHE323:
	movq	-496(%rbp), %rdi
	cmpq	-1120(%rbp), %rdi
	je	.L2197
	call	_ZdlPv@PLT
.L2197:
	movq	-1112(%rbp), %rdi
.LEHB324:
	call	decaf_448_point_destroy@PLT
.LEHE324:
	movq	-1032(%rbp), %rdi
	leaq	16+_ZTVN5decaf12SecureBufferE(%rip), %rax
	movq	%rax, -1040(%rbp)
	testq	%rdi, %rdi
	je	.L2198
	movq	-1024(%rbp), %rsi
.LEHB325:
	call	decaf_bzero@PLT
.LEHE325:
	movq	-1032(%rbp), %rdi
	testq	%rdi, %rdi
	je	.L2198
	call	_ZdaPv@PLT
.L2198:
	movq	-1064(%rbp), %rax
	subq	-1072(%rbp), %rax
	addq	$1, %r12
	sarq	$5, %rax
	cmpq	%r12, %rax
	ja	.L2202
	movq	-936(%rbp), %rdx
	movq	-944(%rbp), %rsi
.L2174:
	movq	_ZSt4cout@GOTPCREL(%rip), %rdi
.LEHB326:
	call	_ZSt16__ostream_insertIcSt11char_traitsIcEERSt13basic_ostreamIT_T0_ES6_PKS3_l@PLT
	movq	%rax, %r12
	movq	(%rax), %rax
	movq	-24(%rax), %rax
	movq	240(%r12,%rax), %rbx
	testq	%rbx, %rbx
	je	.L2358
	cmpb	$0, 56(%rbx)
	je	.L2207
	movsbl	67(%rbx), %esi
.L2208:
	movq	%r12, %rdi
	call	_ZNSo3putEc@PLT
	movq	%rax, %rdi
	call	_ZNSo5flushEv@PLT
.LEHE326:
	movq	-1168(%rbp), %rax
	movq	-944(%rbp), %rdi
	addq	$16, %rax
	cmpq	%rax, %rdi
	je	.L2209
	call	_ZdlPv@PLT
.L2209:
	movq	-1160(%rbp), %rdi
.LEHB327:
	call	decaf_448_scalar_destroy@PLT
.LEHE327:
	movq	-1152(%rbp), %rdi
.LEHB328:
	call	decaf_448_scalar_destroy@PLT
.LEHE328:
	movq	-1064(%rbp), %r12
	movq	-1072(%rbp), %rbx
	cmpq	%rbx, %r12
	je	.L2213
	.p2align 4,,10
	.p2align 3
.L2218:
	movq	(%rbx), %rdi
	leaq	16(%rbx), %rax
	cmpq	%rax, %rdi
	je	.L2217
	call	_ZdlPv@PLT
.L2217:
	addq	$32, %rbx
	cmpq	%rbx, %r12
	jne	.L2218
	movq	-1072(%rbp), %r12
.L2213:
	testq	%r12, %r12
	je	.L2133
	movq	%r12, %rdi
	call	_ZdlPv@PLT
.L2133:
	movq	-56(%rbp), %rax
	xorq	%fs:40, %rax
	jne	.L2359
	addq	$1152, %rsp
	popq	%rbx
	popq	%r10
	.cfi_remember_state
	.cfi_def_cfa 10, 0
	popq	%r12
	popq	%r13
	popq	%r14
	popq	%r15
	popq	%rbp
	leaq	-8(%r10), %rsp
	.cfi_def_cfa 7, 8
	ret
	.p2align 4,,10
	.p2align 3
.L2351:
	.cfi_restore_state
	movq	-1136(%rbp), %rdi
	leaq	-1088(%rbp), %rsi
	xorl	%edx, %edx
.LEHB329:
	call	_ZNSt7__cxx1112basic_stringIcSt11char_traitsIcESaIcEE9_M_createERmm@PLT
.LEHE329:
	movq	%rax, %rdi
	movq	%rax, -912(%rbp)
	movq	-1088(%rbp), %rax
	movq	%rax, -896(%rbp)
.L2178:
	movq	%rbx, %rdx
	movq	%r13, %rsi
	call	memcpy@PLT
	movq	-1088(%rbp), %rbx
	movq	-912(%rbp), %rax
	jmp	.L2180
	.p2align 4,,10
	.p2align 3
.L2355:
	leaq	-1080(%rbp), %rsi
	xorl	%edx, %edx
	movq	%r14, %rdi
.LEHB330:
	call	_ZNSt7__cxx1112basic_stringIcSt11char_traitsIcESaIcEE9_M_createERmm@PLT
.LEHE330:
	movq	%rax, %rdi
	movq	%rax, -496(%rbp)
	movq	-1080(%rbp), %rax
	movq	%rax, -480(%rbp)
.L2194:
	movq	%rbx, %rdx
	movq	%r13, %rsi
	call	memcpy@PLT
	movq	-1080(%rbp), %rbx
	movq	-496(%rbp), %rax
	jmp	.L2196
	.p2align 4,,10
	.p2align 3
.L2352:
	movzbl	0(%r13), %eax
	movb	%al, -896(%rbp)
	movq	%r15, %rax
	jmp	.L2180
	.p2align 4,,10
	.p2align 3
.L2356:
	movzbl	0(%r13), %eax
	movb	%al, -480(%rbp)
	movq	-1120(%rbp), %rax
	jmp	.L2196
	.p2align 4,,10
	.p2align 3
.L2353:
	movq	%r15, %rdi
	jmp	.L2178
	.p2align 4,,10
	.p2align 3
.L2357:
	movq	%rax, %rdi
	jmp	.L2194
.L2166:
	movq	%rbx, %rdi
.LEHB331:
	call	_ZNKSt5ctypeIcE13_M_widen_initEv@PLT
	movq	(%rbx), %rax
	movl	$10, %esi
	movq	48(%rax), %rax
	cmpq	_ZNKSt5ctypeIcE8do_widenEc@GOTPCREL(%rip), %rax
	je	.L2167
	movq	%rbx, %rdi
	call	*%rax
.LEHE331:
	movsbl	%al, %esi
	jmp	.L2167
.L2160:
	movq	%r14, %rdi
.LEHB332:
	call	_ZNKSt5ctypeIcE13_M_widen_initEv@PLT
	movq	(%r14), %rax
	movl	$10, %esi
	movq	48(%rax), %rax
	cmpq	_ZNKSt5ctypeIcE8do_widenEc@GOTPCREL(%rip), %rax
	je	.L2161
	movq	%r14, %rdi
	call	*%rax
.LEHE332:
	movsbl	%al, %esi
	jmp	.L2161
.L2207:
	movq	%rbx, %rdi
.LEHB333:
	call	_ZNKSt5ctypeIcE13_M_widen_initEv@PLT
	movq	(%rbx), %rax
	movl	$10, %esi
	movq	48(%rax), %rax
	cmpq	_ZNKSt5ctypeIcE8do_widenEc@GOTPCREL(%rip), %rax
	je	.L2208
	movq	%rbx, %rdi
	call	*%rax
.LEHE333:
	movsbl	%al, %esi
	jmp	.L2208
.L2340:
	leaq	-1104(%rbp), %rsi
	xorl	%edx, %edx
	movq	%rbx, %rdi
.LEHB334:
	call	_ZNSt7__cxx1112basic_stringIcSt11char_traitsIcESaIcEE9_M_createERmm@PLT
.LEHE334:
	movq	-1104(%rbp), %rdx
	movq	%rax, -1008(%rbp)
	movq	%rdx, -992(%rbp)
.L2146:
	movq	%r15, %rdx
	movq	%r14, %rsi
	movq	%rax, %rdi
	call	memcpy@PLT
	movq	-1104(%rbp), %rax
	movq	-1008(%rbp), %rcx
	jmp	.L2148
.L2337:
	leaq	-1040(%rbp), %rax
	movq	-1128(%rbp), %rdi
	xorl	%edx, %edx
	movq	%rax, %rsi
.LEHB335:
	call	_ZNSt7__cxx1112basic_stringIcSt11char_traitsIcESaIcEE9_M_createERmm@PLT
.LEHE335:
	movq	-1040(%rbp), %rdx
	movq	%rax, -496(%rbp)
	movq	%rdx, -480(%rbp)
.L2136:
	movq	%rbx, %rdx
	movq	%r15, %rsi
	movq	%rax, %rdi
	call	memcpy@PLT
	movq	-1040(%rbp), %rax
	movq	-496(%rbp), %rdx
	jmp	.L2138
.L2348:
	leaq	-1040(%rbp), %rax
	movq	-1112(%rbp), %rdi
	xorl	%edx, %edx
	movq	%rax, %rsi
.LEHB336:
	call	_ZNSt7__cxx1112basic_stringIcSt11char_traitsIcESaIcEE9_M_createERmm@PLT
.LEHE336:
	movq	-1040(%rbp), %rdx
	movq	%rax, -752(%rbp)
	movq	%rdx, -736(%rbp)
.L2170:
	movq	%rbx, %rdx
	movq	%r12, %rsi
	movq	%rax, %rdi
	call	memcpy@PLT
	movq	-1040(%rbp), %rax
	movq	-752(%rbp), %rdx
	jmp	.L2172
.L2343:
	leaq	-1096(%rbp), %rsi
	xorl	%edx, %edx
	movq	%rbx, %rdi
.LEHB337:
	call	_ZNSt7__cxx1112basic_stringIcSt11char_traitsIcESaIcEE9_M_createERmm@PLT
.LEHE337:
	movq	-1096(%rbp), %rdx
	movq	%rax, -976(%rbp)
	movq	%rdx, -960(%rbp)
.L2152:
	movq	%r15, %rdx
	movq	%r13, %rsi
	movq	%rax, %rdi
	call	memcpy@PLT
	movq	-1096(%rbp), %rax
	movq	-976(%rbp), %rcx
	jmp	.L2154
.L2349:
	movzbl	(%r12), %edx
	movb	%dl, -736(%rbp)
	movq	%r13, %rdx
	jmp	.L2172
.L2344:
	movzbl	0(%r13), %ecx
	movb	%cl, -960(%rbp)
	movq	%rdx, %rcx
	jmp	.L2154
.L2338:
	movzbl	(%r15), %edx
	movb	%dl, -480(%rbp)
	movq	%rcx, %rdx
	jmp	.L2138
.L2341:
	movzbl	(%r14), %ecx
	movb	%cl, -992(%rbp)
	movq	%rdx, %rcx
	jmp	.L2148
.L2134:
	leaq	.LC42(%rip), %rdi
.LEHB338:
	call	_ZSt19__throw_logic_errorPKc@PLT
.LEHE338:
.L2168:
	leaq	.LC42(%rip), %rdi
.LEHB339:
	call	_ZSt19__throw_logic_errorPKc@PLT
.LEHE339:
.L2144:
	leaq	.LC42(%rip), %rdi
.LEHB340:
	call	_ZSt19__throw_logic_errorPKc@PLT
.L2150:
	leaq	.LC42(%rip), %rdi
	call	_ZSt19__throw_logic_errorPKc@PLT
.LEHE340:
	.p2align 4,,10
	.p2align 3
.L2258:
.L2314:
	movq	%rax, %rbx
	leaq	-1040(%rbp), %rax
	movq	%rax, -1176(%rbp)
	vzeroupper
.L2188:
	leaq	16+_ZTVN5decaf12SecureBufferE(%rip), %rax
	movq	%rax, -1040(%rbp)
	movq	-1176(%rbp), %rax
	leaq	16(%rax), %rsi
	leaq	8(%rax), %rdi
	call	_ZN5decaf12SecureBuffer5clearEv.isra.17
.L2234:
	movq	-1168(%rbp), %rax
	movq	-944(%rbp), %rdi
	addq	$16, %rax
	cmpq	%rax, %rdi
	je	.L2227
	call	_ZdlPv@PLT
.L2227:
	movq	-1160(%rbp), %rdi
	call	_ZN5decaf5Ed4486ScalarD1Ev
.L2236:
	movq	-1152(%rbp), %rdi
	call	_ZN5decaf5Ed4486ScalarD1Ev
.L2222:
	movq	-1184(%rbp), %rdi
	call	_ZNSt6vectorINSt7__cxx1112basic_stringIcSt11char_traitsIcESaIcEEESaIS5_EED1Ev@PLT
.L2317:
	movq	%rbx, %rdi
.LEHB341:
	call	_Unwind_Resume@PLT
.LEHE341:
	.p2align 4,,10
	.p2align 3
.L2261:
	movq	%rax, %rbx
	vzeroupper
.L2231:
	movq	-1112(%rbp), %rdi
	call	_ZN5decaf5Ed4485PointD1Ev
	jmp	.L2188
.L2253:
	movq	%rax, %rbx
	vzeroupper
	jmp	.L2222
.L2256:
	movq	%rax, %rbx
	vzeroupper
	jmp	.L2227
	.p2align 4,,10
	.p2align 3
.L2350:
	movq	%r13, %rax
	jmp	.L2170
.L2345:
	movq	%rdx, %rax
	jmp	.L2152
.L2342:
	movq	%rdx, %rax
	jmp	.L2146
.L2339:
	movq	%rcx, %rax
	jmp	.L2136
.L2248:
	movq	%rax, %rsi
	jmp	.L2174
.L2354:
	movl	$8, %edi
	call	__cxa_allocate_exception@PLT
	leaq	16+_ZTVN5decaf15CryptoExceptionE(%rip), %rdx
	leaq	_ZTIN5decaf15CryptoExceptionE(%rip), %rsi
	movq	%rax, %rdi
	movq	%rdx, (%rax)
	leaq	_ZN5decaf15CryptoExceptionD1Ev(%rip), %rdx
.LEHB342:
	call	__cxa_throw@PLT
.LEHE342:
.L2267:
	cmpq	$-2, %rdx
	jne	.L2314
	movq	%rax, %rdi
	vzeroupper
.LEHB343:
	call	__cxa_call_unexpected@PLT
.LEHE343:
.L2270:
.L2321:
	cmpq	$-1, %rdx
	movq	%rax, %rdi
	je	.L2216
	vzeroupper
.LEHB344:
	call	_Unwind_Resume@PLT
.L2260:
	movq	%rax, %rbx
	movq	%r14, %rdi
	vzeroupper
	call	_ZN5decaf5Ed4485PointD1Ev
	jmp	.L2231
.L2259:
	movq	%rax, %rbx
	movq	-1136(%rbp), %rax
	movq	-912(%rbp), %rdi
	addq	$16, %rax
	cmpq	%rax, %rdi
	je	.L2310
	vzeroupper
	call	_ZdlPv@PLT
.L2229:
	leaq	-1040(%rbp), %rax
	movq	%rax, -1176(%rbp)
	jmp	.L2188
.L2252:
	movq	-1008(%rbp), %rdi
	addq	$16, %rbx
	movq	%rax, %r12
	cmpq	%rbx, %rdi
	je	.L2308
.L2328:
	vzeroupper
	call	_ZdlPv@PLT
.L2224:
	movq	%r12, %rbx
	jmp	.L2222
.L2310:
	vzeroupper
	jmp	.L2229
.L2254:
	movq	-976(%rbp), %rdi
	addq	$16, %rbx
	movq	%rax, %r12
	cmpq	%rbx, %rdi
	jne	.L2328
.L2308:
	vzeroupper
	jmp	.L2224
.L2268:
	jmp	.L2321
.L2216:
	vzeroupper
	call	__cxa_call_unexpected@PLT
.LEHE344:
.L2257:
	movq	%rax, %rbx
	movq	-1112(%rbp), %rax
	movq	-752(%rbp), %rdi
	addq	$16, %rax
	cmpq	%rax, %rdi
	je	.L2309
	vzeroupper
	call	_ZdlPv@PLT
	jmp	.L2227
.L2263:
	movq	%rax, %rbx
	vzeroupper
	jmp	.L2234
.L2309:
	vzeroupper
	jmp	.L2227
.L2358:
.LEHB345:
	call	_ZSt16__throw_bad_castv@PLT
.LEHE345:
.L2269:
	jmp	.L2321
.L2359:
	call	__stack_chk_fail@PLT
.L2272:
	jmp	.L2321
.L2266:
	jmp	.L2321
.L2273:
	jmp	.L2321
.L2264:
	movq	-1184(%rbp), %rdi
	movq	%rax, %rbx
	vzeroupper
	call	_ZNSt6vectorINSt7__cxx1112basic_stringIcSt11char_traitsIcESaIcEEESaIS5_EED1Ev@PLT
	movq	-1128(%rbp), %rax
	movq	-496(%rbp), %rdi
	addq	$16, %rax
	cmpq	%rax, %rdi
	je	.L2317
	call	_ZdlPv@PLT
	jmp	.L2317
.L2347:
.LEHB346:
	call	_ZSt16__throw_bad_castv@PLT
.LEHE346:
.L2255:
	movq	%rax, %rbx
	vzeroupper
	jmp	.L2236
.L2346:
.LEHB347:
	call	_ZSt16__throw_bad_castv@PLT
.LEHE347:
.L2265:
	jmp	.L2321
.L2271:
	jmp	.L2321
.L2262:
	movq	-496(%rbp), %rdi
	addq	$16, %r14
	movq	%rax, %rbx
	cmpq	%r14, %rdi
	je	.L2311
	vzeroupper
	call	_ZdlPv@PLT
	jmp	.L2231
.L2311:
	vzeroupper
	jmp	.L2231
	.cfi_endproc
.LFE2072:
	.section	.gcc_except_table._Z12full_decryptPcS_S_S_,"a",@progbits
	.align 4
.LLSDA2072:
	.byte	0xff
	.byte	0x9b
	.uleb128 .LLSDATT2072-.LLSDATTD2072
.LLSDATTD2072:
	.byte	0x1
	.uleb128 .LLSDACSE2072-.LLSDACSB2072
.LLSDACSB2072:
	.uleb128 .LEHB308-.LFB2072
	.uleb128 .LEHE308-.LEHB308
	.uleb128 .L2264-.LFB2072
	.uleb128 0
	.uleb128 .LEHB309-.LFB2072
	.uleb128 .LEHE309-.LEHB309
	.uleb128 .L2252-.LFB2072
	.uleb128 0
	.uleb128 .LEHB310-.LFB2072
	.uleb128 .LEHE310-.LEHB310
	.uleb128 .L2254-.LFB2072
	.uleb128 0
	.uleb128 .LEHB311-.LFB2072
	.uleb128 .LEHE311-.LEHB311
	.uleb128 .L2265-.LFB2072
	.uleb128 0x1
	.uleb128 .LEHB312-.LFB2072
	.uleb128 .LEHE312-.LEHB312
	.uleb128 .L2255-.LFB2072
	.uleb128 0
	.uleb128 .LEHB313-.LFB2072
	.uleb128 .LEHE313-.LEHB313
	.uleb128 .L2266-.LFB2072
	.uleb128 0x1
	.uleb128 .LEHB314-.LFB2072
	.uleb128 .LEHE314-.LEHB314
	.uleb128 .L2256-.LFB2072
	.uleb128 0
	.uleb128 .LEHB315-.LFB2072
	.uleb128 .LEHE315-.LEHB315
	.uleb128 .L2257-.LFB2072
	.uleb128 0
	.uleb128 .LEHB316-.LFB2072
	.uleb128 .LEHE316-.LEHB316
	.uleb128 .L2263-.LFB2072
	.uleb128 0
	.uleb128 .LEHB317-.LFB2072
	.uleb128 .LEHE317-.LEHB317
	.uleb128 .L2258-.LFB2072
	.uleb128 0
	.uleb128 .LEHB318-.LFB2072
	.uleb128 .LEHE318-.LEHB318
	.uleb128 .L2259-.LFB2072
	.uleb128 0
	.uleb128 .LEHB319-.LFB2072
	.uleb128 .LEHE319-.LEHB319
	.uleb128 .L2268-.LFB2072
	.uleb128 0x1
	.uleb128 .LEHB320-.LFB2072
	.uleb128 .LEHE320-.LEHB320
	.uleb128 .L2260-.LFB2072
	.uleb128 0
	.uleb128 .LEHB321-.LFB2072
	.uleb128 .LEHE321-.LEHB321
	.uleb128 .L2269-.LFB2072
	.uleb128 0x1
	.uleb128 .LEHB322-.LFB2072
	.uleb128 .LEHE322-.LEHB322
	.uleb128 .L2261-.LFB2072
	.uleb128 0
	.uleb128 .LEHB323-.LFB2072
	.uleb128 .LEHE323-.LEHB323
	.uleb128 .L2262-.LFB2072
	.uleb128 0
	.uleb128 .LEHB324-.LFB2072
	.uleb128 .LEHE324-.LEHB324
	.uleb128 .L2271-.LFB2072
	.uleb128 0x1
	.uleb128 .LEHB325-.LFB2072
	.uleb128 .LEHE325-.LEHB325
	.uleb128 .L2270-.LFB2072
	.uleb128 0x1
	.uleb128 .LEHB326-.LFB2072
	.uleb128 .LEHE326-.LEHB326
	.uleb128 .L2263-.LFB2072
	.uleb128 0
	.uleb128 .LEHB327-.LFB2072
	.uleb128 .LEHE327-.LEHB327
	.uleb128 .L2273-.LFB2072
	.uleb128 0x1
	.uleb128 .LEHB328-.LFB2072
	.uleb128 .LEHE328-.LEHB328
	.uleb128 .L2272-.LFB2072
	.uleb128 0x1
	.uleb128 .LEHB329-.LFB2072
	.uleb128 .LEHE329-.LEHB329
	.uleb128 .L2258-.LFB2072
	.uleb128 0
	.uleb128 .LEHB330-.LFB2072
	.uleb128 .LEHE330-.LEHB330
	.uleb128 .L2261-.LFB2072
	.uleb128 0
	.uleb128 .LEHB331-.LFB2072
	.uleb128 .LEHE331-.LEHB331
	.uleb128 .L2256-.LFB2072
	.uleb128 0
	.uleb128 .LEHB332-.LFB2072
	.uleb128 .LEHE332-.LEHB332
	.uleb128 .L2255-.LFB2072
	.uleb128 0
	.uleb128 .LEHB333-.LFB2072
	.uleb128 .LEHE333-.LEHB333
	.uleb128 .L2263-.LFB2072
	.uleb128 0
	.uleb128 .LEHB334-.LFB2072
	.uleb128 .LEHE334-.LEHB334
	.uleb128 .L2253-.LFB2072
	.uleb128 0
	.uleb128 .LEHB335-.LFB2072
	.uleb128 .LEHE335-.LEHB335
	.uleb128 0
	.uleb128 0
	.uleb128 .LEHB336-.LFB2072
	.uleb128 .LEHE336-.LEHB336
	.uleb128 .L2256-.LFB2072
	.uleb128 0
	.uleb128 .LEHB337-.LFB2072
	.uleb128 .LEHE337-.LEHB337
	.uleb128 .L2253-.LFB2072
	.uleb128 0
	.uleb128 .LEHB338-.LFB2072
	.uleb128 .LEHE338-.LEHB338
	.uleb128 0
	.uleb128 0
	.uleb128 .LEHB339-.LFB2072
	.uleb128 .LEHE339-.LEHB339
	.uleb128 .L2256-.LFB2072
	.uleb128 0
	.uleb128 .LEHB340-.LFB2072
	.uleb128 .LEHE340-.LEHB340
	.uleb128 .L2253-.LFB2072
	.uleb128 0
	.uleb128 .LEHB341-.LFB2072
	.uleb128 .LEHE341-.LEHB341
	.uleb128 0
	.uleb128 0
	.uleb128 .LEHB342-.LFB2072
	.uleb128 .LEHE342-.LEHB342
	.uleb128 .L2267-.LFB2072
	.uleb128 0x5
	.uleb128 .LEHB343-.LFB2072
	.uleb128 .LEHE343-.LEHB343
	.uleb128 .L2258-.LFB2072
	.uleb128 0
	.uleb128 .LEHB344-.LFB2072
	.uleb128 .LEHE344-.LEHB344
	.uleb128 0
	.uleb128 0
	.uleb128 .LEHB345-.LFB2072
	.uleb128 .LEHE345-.LEHB345
	.uleb128 .L2263-.LFB2072
	.uleb128 0
	.uleb128 .LEHB346-.LFB2072
	.uleb128 .LEHE346-.LEHB346
	.uleb128 .L2256-.LFB2072
	.uleb128 0
	.uleb128 .LEHB347-.LFB2072
	.uleb128 .LEHE347-.LEHB347
	.uleb128 .L2255-.LFB2072
	.uleb128 0
.LLSDACSE2072:
	.byte	0x7f
	.byte	0
	.byte	0
	.byte	0
	.byte	0x7e
	.byte	0x7d
	.align 4
	.long	DW.ref._ZTIN5decaf15CryptoExceptionE-.
.LLSDATT2072:
	.byte	0
	.byte	0x1
	.byte	0
	.section	.text._Z12full_decryptPcS_S_S_
	.size	_Z12full_decryptPcS_S_S_, .-_Z12full_decryptPcS_S_S_
	.section	.text.unlikely._Z12full_decryptPcS_S_S_
.LCOLDE70:
	.section	.text._Z12full_decryptPcS_S_S_
.LHOTE70:
	.section	.rodata.str1.1
.LC71:
	.string	","
.LC72:
	.string	"----------------------"
.LC73:
	.string	"k_wwh:"
.LC74:
	.string	"n_wwh:"
	.section	.text.unlikely._Z12full_encryptPcS_,"ax",@progbits
.LCOLDB75:
	.section	.text._Z12full_encryptPcS_,"ax",@progbits
.LHOTB75:
	.p2align 4,,15
	.globl	_Z12full_encryptPcS_
	.hidden	_Z12full_encryptPcS_
	.type	_Z12full_encryptPcS_, @function
_Z12full_encryptPcS_:
.LFB2073:
	.cfi_startproc
	.cfi_personality 0x9b,DW.ref.__gxx_personality_v0
	.cfi_lsda 0x1b,.LLSDA2073
	leaq	8(%rsp), %r10
	.cfi_def_cfa 10, 0
	andq	$-32, %rsp
	pushq	-8(%r10)
	pushq	%rbp
	.cfi_escape 0x10,0x6,0x2,0x76,0
	movq	%rsp, %rbp
	pushq	%r15
	pushq	%r14
	pushq	%r13
	pushq	%r12
	.cfi_escape 0x10,0xf,0x2,0x76,0x78
	.cfi_escape 0x10,0xe,0x2,0x76,0x70
	.cfi_escape 0x10,0xd,0x2,0x76,0x68
	.cfi_escape 0x10,0xc,0x2,0x76,0x60
	movq	%rsi, %r12
	pushq	%r10
	.cfi_escape 0xf,0x3,0x76,0x58,0x6
	pushq	%rbx
	subq	$1184, %rsp
	.cfi_escape 0x10,0x3,0x2,0x76,0x50
	movq	%rdi, -1160(%rbp)
