	.file	"test_decaf.cxx"
	.section	.rodata.str1.1,"aMS",@progbits,1
.LC0:
	.string	"CryptoException"
	.section	.text.unlikely._ZNK5decaf15CryptoException4whatEv,"axG",@progbits,_ZNK5decaf15CryptoException4whatEv,comdat
	.align 2
.LCOLDB1:
	.section	.text._ZNK5decaf15CryptoException4whatEv,"axG",@progbits,_ZNK5decaf15CryptoException4whatEv,comdat
.LHOTB1:
	.align 2
	.p2align 4,,15
	.weak	_ZNK5decaf15CryptoException4whatEv
	.hidden	_ZNK5decaf15CryptoException4whatEv
	.type	_ZNK5decaf15CryptoException4whatEv, @function
_ZNK5decaf15CryptoException4whatEv:
.LFB673:
	.cfi_startproc
	leaq	.LC0(%rip), %rax
	ret
	.cfi_endproc
.LFE673:
	.size	_ZNK5decaf15CryptoException4whatEv, .-_ZNK5decaf15CryptoException4whatEv
	.section	.text.unlikely._ZNK5decaf15CryptoException4whatEv,"axG",@progbits,_ZNK5decaf15CryptoException4whatEv,comdat
.LCOLDE1:
	.section	.text._ZNK5decaf15CryptoException4whatEv,"axG",@progbits,_ZNK5decaf15CryptoException4whatEv,comdat
.LHOTE1:
	.section	.rodata.str1.1
.LC2:
	.string	"LengthException"
	.section	.text.unlikely._ZNK5decaf15LengthException4whatEv,"axG",@progbits,_ZNK5decaf15LengthException4whatEv,comdat
	.align 2
.LCOLDB3:
	.section	.text._ZNK5decaf15LengthException4whatEv,"axG",@progbits,_ZNK5decaf15LengthException4whatEv,comdat
.LHOTB3:
	.align 2
	.p2align 4,,15
	.weak	_ZNK5decaf15LengthException4whatEv
	.hidden	_ZNK5decaf15LengthException4whatEv
	.type	_ZNK5decaf15LengthException4whatEv, @function
_ZNK5decaf15LengthException4whatEv:
.LFB674:
	.cfi_startproc
	leaq	.LC2(%rip), %rax
	ret
	.cfi_endproc
.LFE674:
	.size	_ZNK5decaf15LengthException4whatEv, .-_ZNK5decaf15LengthException4whatEv
	.section	.text.unlikely._ZNK5decaf15LengthException4whatEv,"axG",@progbits,_ZNK5decaf15LengthException4whatEv,comdat
.LCOLDE3:
	.section	.text._ZNK5decaf15LengthException4whatEv,"axG",@progbits,_ZNK5decaf15LengthException4whatEv,comdat
.LHOTE3:
	.section	.text.unlikely._ZN5decaf5BlockD2Ev,"axG",@progbits,_ZN5decaf5BlockD5Ev,comdat
	.align 2
.LCOLDB4:
	.section	.text._ZN5decaf5BlockD2Ev,"axG",@progbits,_ZN5decaf5BlockD5Ev,comdat
.LHOTB4:
	.align 2
	.p2align 4,,15
	.weak	_ZN5decaf5BlockD2Ev
	.hidden	_ZN5decaf5BlockD2Ev
	.type	_ZN5decaf5BlockD2Ev, @function
_ZN5decaf5BlockD2Ev:
.LFB706:
	.cfi_startproc
	rep ret
	.cfi_endproc
.LFE706:
	.size	_ZN5decaf5BlockD2Ev, .-_ZN5decaf5BlockD2Ev
	.section	.text.unlikely._ZN5decaf5BlockD2Ev,"axG",@progbits,_ZN5decaf5BlockD5Ev,comdat
.LCOLDE4:
	.section	.text._ZN5decaf5BlockD2Ev,"axG",@progbits,_ZN5decaf5BlockD5Ev,comdat
.LHOTE4:
	.weak	_ZN5decaf5BlockD1Ev
	.hidden	_ZN5decaf5BlockD1Ev
	.set	_ZN5decaf5BlockD1Ev,_ZN5decaf5BlockD2Ev
	.section	.text.unlikely._ZN5decaf6BufferD2Ev,"axG",@progbits,_ZN5decaf6BufferD5Ev,comdat
	.align 2
.LCOLDB5:
	.section	.text._ZN5decaf6BufferD2Ev,"axG",@progbits,_ZN5decaf6BufferD5Ev,comdat
.LHOTB5:
	.align 2
	.p2align 4,,15
	.weak	_ZN5decaf6BufferD2Ev
	.hidden	_ZN5decaf6BufferD2Ev
	.type	_ZN5decaf6BufferD2Ev, @function
_ZN5decaf6BufferD2Ev:
.LFB721:
	.cfi_startproc
	rep ret
	.cfi_endproc
.LFE721:
	.size	_ZN5decaf6BufferD2Ev, .-_ZN5decaf6BufferD2Ev
	.section	.text.unlikely._ZN5decaf6BufferD2Ev,"axG",@progbits,_ZN5decaf6BufferD5Ev,comdat
.LCOLDE5:
	.section	.text._ZN5decaf6BufferD2Ev,"axG",@progbits,_ZN5decaf6BufferD5Ev,comdat
.LHOTE5:
	.weak	_ZN5decaf6BufferD1Ev
	.hidden	_ZN5decaf6BufferD1Ev
	.set	_ZN5decaf6BufferD1Ev,_ZN5decaf6BufferD2Ev
	.section	.text.unlikely._ZNK5decaf9SpongeRng12RngException4whatEv,"axG",@progbits,_ZNK5decaf9SpongeRng12RngException4whatEv,comdat
	.align 2
.LCOLDB6:
	.section	.text._ZNK5decaf9SpongeRng12RngException4whatEv,"axG",@progbits,_ZNK5decaf9SpongeRng12RngException4whatEv,comdat
.LHOTB6:
	.align 2
	.p2align 4,,15
	.weak	_ZNK5decaf9SpongeRng12RngException4whatEv
	.hidden	_ZNK5decaf9SpongeRng12RngException4whatEv
	.type	_ZNK5decaf9SpongeRng12RngException4whatEv, @function
_ZNK5decaf9SpongeRng12RngException4whatEv:
.LFB937:
	.cfi_startproc
	movq	8(%rdi), %rax
	ret
	.cfi_endproc
.LFE937:
	.size	_ZNK5decaf9SpongeRng12RngException4whatEv, .-_ZNK5decaf9SpongeRng12RngException4whatEv
	.section	.text.unlikely._ZNK5decaf9SpongeRng12RngException4whatEv,"axG",@progbits,_ZNK5decaf9SpongeRng12RngException4whatEv,comdat
.LCOLDE6:
	.section	.text._ZNK5decaf9SpongeRng12RngException4whatEv,"axG",@progbits,_ZNK5decaf9SpongeRng12RngException4whatEv,comdat
.LHOTE6:
	.section	.text.unlikely._ZNKSt5ctypeIcE8do_widenEc,"axG",@progbits,_ZNKSt5ctypeIcE8do_widenEc,comdat
	.align 2
.LCOLDB7:
	.section	.text._ZNKSt5ctypeIcE8do_widenEc,"axG",@progbits,_ZNKSt5ctypeIcE8do_widenEc,comdat
.LHOTB7:
	.align 2
	.p2align 4,,15
	.weak	_ZNKSt5ctypeIcE8do_widenEc
	.type	_ZNKSt5ctypeIcE8do_widenEc, @function
_ZNKSt5ctypeIcE8do_widenEc:
.LFB1217:
	.cfi_startproc
	movl	%esi, %eax
	ret
	.cfi_endproc
.LFE1217:
	.size	_ZNKSt5ctypeIcE8do_widenEc, .-_ZNKSt5ctypeIcE8do_widenEc
	.section	.text.unlikely._ZNKSt5ctypeIcE8do_widenEc,"axG",@progbits,_ZNKSt5ctypeIcE8do_widenEc,comdat
.LCOLDE7:
	.section	.text._ZNKSt5ctypeIcE8do_widenEc,"axG",@progbits,_ZNKSt5ctypeIcE8do_widenEc,comdat
.LHOTE7:
	.section	.text.unlikely._ZN5decaf9TmpBufferD2Ev,"axG",@progbits,_ZN5decaf9TmpBufferD5Ev,comdat
	.align 2
.LCOLDB8:
	.section	.text._ZN5decaf9TmpBufferD2Ev,"axG",@progbits,_ZN5decaf9TmpBufferD5Ev,comdat
.LHOTB8:
	.align 2
	.p2align 4,,15
	.weak	_ZN5decaf9TmpBufferD2Ev
	.hidden	_ZN5decaf9TmpBufferD2Ev
	.type	_ZN5decaf9TmpBufferD2Ev, @function
_ZN5decaf9TmpBufferD2Ev:
.LFB2152:
	.cfi_startproc
	rep ret
	.cfi_endproc
.LFE2152:
	.size	_ZN5decaf9TmpBufferD2Ev, .-_ZN5decaf9TmpBufferD2Ev
	.section	.text.unlikely._ZN5decaf9TmpBufferD2Ev,"axG",@progbits,_ZN5decaf9TmpBufferD5Ev,comdat
.LCOLDE8:
	.section	.text._ZN5decaf9TmpBufferD2Ev,"axG",@progbits,_ZN5decaf9TmpBufferD5Ev,comdat
.LHOTE8:
	.weak	_ZN5decaf9TmpBufferD1Ev
	.hidden	_ZN5decaf9TmpBufferD1Ev
	.set	_ZN5decaf9TmpBufferD1Ev,_ZN5decaf9TmpBufferD2Ev
	.section	.text.unlikely._ZN5decaf5BlockD0Ev,"axG",@progbits,_ZN5decaf5BlockD5Ev,comdat
	.align 2
.LCOLDB9:
	.section	.text._ZN5decaf5BlockD0Ev,"axG",@progbits,_ZN5decaf5BlockD5Ev,comdat
.LHOTB9:
	.align 2
	.p2align 4,,15
	.weak	_ZN5decaf5BlockD0Ev
	.hidden	_ZN5decaf5BlockD0Ev
	.type	_ZN5decaf5BlockD0Ev, @function
_ZN5decaf5BlockD0Ev:
.LFB708:
	.cfi_startproc
	jmp	_ZdlPv@PLT
	.cfi_endproc
.LFE708:
	.size	_ZN5decaf5BlockD0Ev, .-_ZN5decaf5BlockD0Ev
	.section	.text.unlikely._ZN5decaf5BlockD0Ev,"axG",@progbits,_ZN5decaf5BlockD5Ev,comdat
.LCOLDE9:
	.section	.text._ZN5decaf5BlockD0Ev,"axG",@progbits,_ZN5decaf5BlockD5Ev,comdat
.LHOTE9:
	.section	.text.unlikely._ZN5decaf6BufferD0Ev,"axG",@progbits,_ZN5decaf6BufferD5Ev,comdat
	.align 2
.LCOLDB10:
	.section	.text._ZN5decaf6BufferD0Ev,"axG",@progbits,_ZN5decaf6BufferD5Ev,comdat
.LHOTB10:
	.align 2
	.p2align 4,,15
	.weak	_ZN5decaf6BufferD0Ev
	.hidden	_ZN5decaf6BufferD0Ev
	.type	_ZN5decaf6BufferD0Ev, @function
_ZN5decaf6BufferD0Ev:
.LFB723:
	.cfi_startproc
	jmp	_ZdlPv@PLT
	.cfi_endproc
.LFE723:
	.size	_ZN5decaf6BufferD0Ev, .-_ZN5decaf6BufferD0Ev
	.section	.text.unlikely._ZN5decaf6BufferD0Ev,"axG",@progbits,_ZN5decaf6BufferD5Ev,comdat
.LCOLDE10:
	.section	.text._ZN5decaf6BufferD0Ev,"axG",@progbits,_ZN5decaf6BufferD5Ev,comdat
.LHOTE10:
	.section	.text.unlikely._ZN5decaf9TmpBufferD0Ev,"axG",@progbits,_ZN5decaf9TmpBufferD5Ev,comdat
	.align 2
.LCOLDB11:
	.section	.text._ZN5decaf9TmpBufferD0Ev,"axG",@progbits,_ZN5decaf9TmpBufferD5Ev,comdat
.LHOTB11:
	.align 2
	.p2align 4,,15
	.weak	_ZN5decaf9TmpBufferD0Ev
	.hidden	_ZN5decaf9TmpBufferD0Ev
	.type	_ZN5decaf9TmpBufferD0Ev, @function
_ZN5decaf9TmpBufferD0Ev:
.LFB2154:
	.cfi_startproc
	jmp	_ZdlPv@PLT
	.cfi_endproc
.LFE2154:
	.size	_ZN5decaf9TmpBufferD0Ev, .-_ZN5decaf9TmpBufferD0Ev
	.section	.text.unlikely._ZN5decaf9TmpBufferD0Ev,"axG",@progbits,_ZN5decaf9TmpBufferD5Ev,comdat
.LCOLDE11:
	.section	.text._ZN5decaf9TmpBufferD0Ev,"axG",@progbits,_ZN5decaf9TmpBufferD5Ev,comdat
.LHOTE11:
	.section	.text.unlikely._ZN5decaf9SpongeRng12RngExceptionD2Ev,"axG",@progbits,_ZN5decaf9SpongeRng12RngExceptionD5Ev,comdat
	.align 2
.LCOLDB12:
	.section	.text._ZN5decaf9SpongeRng12RngExceptionD2Ev,"axG",@progbits,_ZN5decaf9SpongeRng12RngExceptionD5Ev,comdat
.LHOTB12:
	.align 2
	.p2align 4,,15
	.weak	_ZN5decaf9SpongeRng12RngExceptionD2Ev
	.hidden	_ZN5decaf9SpongeRng12RngExceptionD2Ev
	.type	_ZN5decaf9SpongeRng12RngExceptionD2Ev, @function
_ZN5decaf9SpongeRng12RngExceptionD2Ev:
.LFB2144:
	.cfi_startproc
	leaq	16+_ZTVN5decaf9SpongeRng12RngExceptionE(%rip), %rax
	movq	%rax, (%rdi)
	jmp	_ZNSt9exceptionD2Ev@PLT
	.cfi_endproc
.LFE2144:
	.size	_ZN5decaf9SpongeRng12RngExceptionD2Ev, .-_ZN5decaf9SpongeRng12RngExceptionD2Ev
	.section	.text.unlikely._ZN5decaf9SpongeRng12RngExceptionD2Ev,"axG",@progbits,_ZN5decaf9SpongeRng12RngExceptionD5Ev,comdat
.LCOLDE12:
	.section	.text._ZN5decaf9SpongeRng12RngExceptionD2Ev,"axG",@progbits,_ZN5decaf9SpongeRng12RngExceptionD5Ev,comdat
.LHOTE12:
	.weak	_ZN5decaf9SpongeRng12RngExceptionD1Ev
	.hidden	_ZN5decaf9SpongeRng12RngExceptionD1Ev
	.set	_ZN5decaf9SpongeRng12RngExceptionD1Ev,_ZN5decaf9SpongeRng12RngExceptionD2Ev
	.section	.text.unlikely._ZN5decaf9SpongeRng12RngExceptionD0Ev,"axG",@progbits,_ZN5decaf9SpongeRng12RngExceptionD5Ev,comdat
	.align 2
.LCOLDB13:
	.section	.text._ZN5decaf9SpongeRng12RngExceptionD0Ev,"axG",@progbits,_ZN5decaf9SpongeRng12RngExceptionD5Ev,comdat
.LHOTB13:
	.align 2
	.p2align 4,,15
	.weak	_ZN5decaf9SpongeRng12RngExceptionD0Ev
	.hidden	_ZN5decaf9SpongeRng12RngExceptionD0Ev
	.type	_ZN5decaf9SpongeRng12RngExceptionD0Ev, @function
_ZN5decaf9SpongeRng12RngExceptionD0Ev:
.LFB2146:
	.cfi_startproc
	leaq	16+_ZTVN5decaf9SpongeRng12RngExceptionE(%rip), %rax
	pushq	%rbx
	.cfi_def_cfa_offset 16
	.cfi_offset 3, -16
	movq	%rdi, %rbx
	movq	%rax, (%rdi)
	call	_ZNSt9exceptionD2Ev@PLT
	movq	%rbx, %rdi
	popq	%rbx
	.cfi_def_cfa_offset 8
	jmp	_ZdlPv@PLT
	.cfi_endproc
.LFE2146:
	.size	_ZN5decaf9SpongeRng12RngExceptionD0Ev, .-_ZN5decaf9SpongeRng12RngExceptionD0Ev
	.section	.text.unlikely._ZN5decaf9SpongeRng12RngExceptionD0Ev,"axG",@progbits,_ZN5decaf9SpongeRng12RngExceptionD5Ev,comdat
.LCOLDE13:
	.section	.text._ZN5decaf9SpongeRng12RngExceptionD0Ev,"axG",@progbits,_ZN5decaf9SpongeRng12RngExceptionD5Ev,comdat
.LHOTE13:
	.section	.text.unlikely._ZN5decaf15LengthExceptionD2Ev,"axG",@progbits,_ZN5decaf15LengthExceptionD5Ev,comdat
	.align 2
.LCOLDB14:
	.section	.text._ZN5decaf15LengthExceptionD2Ev,"axG",@progbits,_ZN5decaf15LengthExceptionD5Ev,comdat
.LHOTB14:
	.align 2
	.p2align 4,,15
	.weak	_ZN5decaf15LengthExceptionD2Ev
	.hidden	_ZN5decaf15LengthExceptionD2Ev
	.type	_ZN5decaf15LengthExceptionD2Ev, @function
_ZN5decaf15LengthExceptionD2Ev:
.LFB2156:
	.cfi_startproc
	leaq	16+_ZTVN5decaf15LengthExceptionE(%rip), %rax
	movq	%rax, (%rdi)
	jmp	_ZNSt9exceptionD2Ev@PLT
	.cfi_endproc
.LFE2156:
	.size	_ZN5decaf15LengthExceptionD2Ev, .-_ZN5decaf15LengthExceptionD2Ev
	.section	.text.unlikely._ZN5decaf15LengthExceptionD2Ev,"axG",@progbits,_ZN5decaf15LengthExceptionD5Ev,comdat
.LCOLDE14:
	.section	.text._ZN5decaf15LengthExceptionD2Ev,"axG",@progbits,_ZN5decaf15LengthExceptionD5Ev,comdat
.LHOTE14:
	.weak	_ZN5decaf15LengthExceptionD1Ev
	.hidden	_ZN5decaf15LengthExceptionD1Ev
	.set	_ZN5decaf15LengthExceptionD1Ev,_ZN5decaf15LengthExceptionD2Ev
	.section	.text.unlikely._ZN5decaf15LengthExceptionD0Ev,"axG",@progbits,_ZN5decaf15LengthExceptionD5Ev,comdat
	.align 2
.LCOLDB15:
	.section	.text._ZN5decaf15LengthExceptionD0Ev,"axG",@progbits,_ZN5decaf15LengthExceptionD5Ev,comdat
.LHOTB15:
	.align 2
	.p2align 4,,15
	.weak	_ZN5decaf15LengthExceptionD0Ev
	.hidden	_ZN5decaf15LengthExceptionD0Ev
	.type	_ZN5decaf15LengthExceptionD0Ev, @function
_ZN5decaf15LengthExceptionD0Ev:
.LFB2158:
	.cfi_startproc
	leaq	16+_ZTVN5decaf15LengthExceptionE(%rip), %rax
	pushq	%rbx
	.cfi_def_cfa_offset 16
	.cfi_offset 3, -16
	movq	%rdi, %rbx
	movq	%rax, (%rdi)
	call	_ZNSt9exceptionD2Ev@PLT
	movq	%rbx, %rdi
	popq	%rbx
	.cfi_def_cfa_offset 8
	jmp	_ZdlPv@PLT
	.cfi_endproc
.LFE2158:
	.size	_ZN5decaf15LengthExceptionD0Ev, .-_ZN5decaf15LengthExceptionD0Ev
	.section	.text.unlikely._ZN5decaf15LengthExceptionD0Ev,"axG",@progbits,_ZN5decaf15LengthExceptionD5Ev,comdat
.LCOLDE15:
	.section	.text._ZN5decaf15LengthExceptionD0Ev,"axG",@progbits,_ZN5decaf15LengthExceptionD5Ev,comdat
.LHOTE15:
	.section	.text.unlikely._ZN5decaf15CryptoExceptionD2Ev,"axG",@progbits,_ZN5decaf15CryptoExceptionD5Ev,comdat
	.align 2
.LCOLDB16:
	.section	.text._ZN5decaf15CryptoExceptionD2Ev,"axG",@progbits,_ZN5decaf15CryptoExceptionD5Ev,comdat
.LHOTB16:
	.align 2
	.p2align 4,,15
	.weak	_ZN5decaf15CryptoExceptionD2Ev
	.hidden	_ZN5decaf15CryptoExceptionD2Ev
	.type	_ZN5decaf15CryptoExceptionD2Ev, @function
_ZN5decaf15CryptoExceptionD2Ev:
.LFB2160:
	.cfi_startproc
	leaq	16+_ZTVN5decaf15CryptoExceptionE(%rip), %rax
	movq	%rax, (%rdi)
	jmp	_ZNSt9exceptionD2Ev@PLT
	.cfi_endproc
.LFE2160:
	.size	_ZN5decaf15CryptoExceptionD2Ev, .-_ZN5decaf15CryptoExceptionD2Ev
	.section	.text.unlikely._ZN5decaf15CryptoExceptionD2Ev,"axG",@progbits,_ZN5decaf15CryptoExceptionD5Ev,comdat
.LCOLDE16:
	.section	.text._ZN5decaf15CryptoExceptionD2Ev,"axG",@progbits,_ZN5decaf15CryptoExceptionD5Ev,comdat
.LHOTE16:
	.weak	_ZN5decaf15CryptoExceptionD1Ev
	.hidden	_ZN5decaf15CryptoExceptionD1Ev
	.set	_ZN5decaf15CryptoExceptionD1Ev,_ZN5decaf15CryptoExceptionD2Ev
	.section	.text.unlikely._ZN5decaf15CryptoExceptionD0Ev,"axG",@progbits,_ZN5decaf15CryptoExceptionD5Ev,comdat
	.align 2
.LCOLDB17:
	.section	.text._ZN5decaf15CryptoExceptionD0Ev,"axG",@progbits,_ZN5decaf15CryptoExceptionD5Ev,comdat
.LHOTB17:
	.align 2
	.p2align 4,,15
	.weak	_ZN5decaf15CryptoExceptionD0Ev
	.hidden	_ZN5decaf15CryptoExceptionD0Ev
	.type	_ZN5decaf15CryptoExceptionD0Ev, @function
_ZN5decaf15CryptoExceptionD0Ev:
.LFB2162:
	.cfi_startproc
	leaq	16+_ZTVN5decaf15CryptoExceptionE(%rip), %rax
	pushq	%rbx
	.cfi_def_cfa_offset 16
	.cfi_offset 3, -16
	movq	%rdi, %rbx
	movq	%rax, (%rdi)
	call	_ZNSt9exceptionD2Ev@PLT
	movq	%rbx, %rdi
	popq	%rbx
	.cfi_def_cfa_offset 8
	jmp	_ZdlPv@PLT
	.cfi_endproc
.LFE2162:
	.size	_ZN5decaf15CryptoExceptionD0Ev, .-_ZN5decaf15CryptoExceptionD0Ev
	.section	.text.unlikely._ZN5decaf15CryptoExceptionD0Ev,"axG",@progbits,_ZN5decaf15CryptoExceptionD5Ev,comdat
.LCOLDE17:
	.section	.text._ZN5decaf15CryptoExceptionD0Ev,"axG",@progbits,_ZN5decaf15CryptoExceptionD5Ev,comdat
.LHOTE17:
	.section	.text.unlikely._ZN5decaf12SecureBuffer5clearEv.isra.15,"ax",@progbits
	.align 2
.LCOLDB18:
	.section	.text._ZN5decaf12SecureBuffer5clearEv.isra.15,"ax",@progbits
.LHOTB18:
	.align 2
	.p2align 4,,15
	.type	_ZN5decaf12SecureBuffer5clearEv.isra.15, @function
_ZN5decaf12SecureBuffer5clearEv.isra.15:
.LFB2180:
	.cfi_startproc
	.cfi_personality 0x9b,DW.ref.__gxx_personality_v0
	.cfi_lsda 0x1b,.LLSDA2180
	movq	%rdi, %rax
	movq	(%rdi), %rdi
	testq	%rdi, %rdi
	je	.L35
	pushq	%rbp
	.cfi_def_cfa_offset 16
	.cfi_offset 6, -16
	pushq	%rbx
	.cfi_def_cfa_offset 24
	.cfi_offset 3, -24
	movq	%rsi, %rbp
	movq	%rax, %rbx
	subq	$8, %rsp
	.cfi_def_cfa_offset 32
	movq	(%rsi), %rsi
.LEHB0:
	call	decaf_bzero@PLT
.LEHE0:
	movq	(%rbx), %rdi
	testq	%rdi, %rdi
	je	.L22
	call	_ZdaPv@PLT
.L22:
	movq	$0, (%rbx)
	movq	$0, 0(%rbp)
	addq	$8, %rsp
	.cfi_def_cfa_offset 24
	popq	%rbx
	.cfi_restore 3
	.cfi_def_cfa_offset 16
	popq	%rbp
	.cfi_restore 6
	.cfi_def_cfa_offset 8
.L35:
	rep ret
.L25:
	.cfi_def_cfa_offset 32
	.cfi_offset 3, -24
	.cfi_offset 6, -16
	addq	$1, %rdx
	movq	%rax, %rdi
	je	.L24
	vzeroupper
.LEHB1:
	call	_Unwind_Resume@PLT
.L24:
	vzeroupper
	call	__cxa_call_unexpected@PLT
.LEHE1:
	.cfi_endproc
.LFE2180:
	.globl	__gxx_personality_v0
	.section	.gcc_except_table._ZN5decaf12SecureBuffer5clearEv.isra.15,"a",@progbits
	.align 4
.LLSDA2180:
	.byte	0xff
	.byte	0x9b
	.uleb128 .LLSDATT2180-.LLSDATTD2180
.LLSDATTD2180:
	.byte	0x1
	.uleb128 .LLSDACSE2180-.LLSDACSB2180
.LLSDACSB2180:
	.uleb128 .LEHB0-.LFB2180
	.uleb128 .LEHE0-.LEHB0
	.uleb128 .L25-.LFB2180
	.uleb128 0x1
	.uleb128 .LEHB1-.LFB2180
	.uleb128 .LEHE1-.LEHB1
	.uleb128 0
	.uleb128 0
.LLSDACSE2180:
	.byte	0x7f
	.byte	0
	.align 4
.LLSDATT2180:
	.byte	0
	.section	.text._ZN5decaf12SecureBuffer5clearEv.isra.15
	.size	_ZN5decaf12SecureBuffer5clearEv.isra.15, .-_ZN5decaf12SecureBuffer5clearEv.isra.15
	.section	.text.unlikely._ZN5decaf12SecureBuffer5clearEv.isra.15
.LCOLDE18:
	.section	.text._ZN5decaf12SecureBuffer5clearEv.isra.15
.LHOTE18:
	.section	.rodata.str1.8,"aMS",@progbits,1
	.align 8
.LC19:
	.string	"basic_string::_M_construct null not valid"
	.section	.text.unlikely._ZNSt7__cxx1112basic_stringIcSt11char_traitsIcESaIcEE12_M_constructIPcEEvT_S7_St20forward_iterator_tag.isra.44,"ax",@progbits
	.align 2
.LCOLDB20:
	.section	.text._ZNSt7__cxx1112basic_stringIcSt11char_traitsIcESaIcEE12_M_constructIPcEEvT_S7_St20forward_iterator_tag.isra.44,"ax",@progbits
.LHOTB20:
	.align 2
	.p2align 4,,15
	.type	_ZNSt7__cxx1112basic_stringIcSt11char_traitsIcESaIcEE12_M_constructIPcEEvT_S7_St20forward_iterator_tag.isra.44, @function
_ZNSt7__cxx1112basic_stringIcSt11char_traitsIcESaIcEE12_M_constructIPcEEvT_S7_St20forward_iterator_tag.isra.44:
.LFB2209:
	.cfi_startproc
	pushq	%r12
	.cfi_def_cfa_offset 16
	.cfi_offset 12, -16
	pushq	%rbp
	.cfi_def_cfa_offset 24
	.cfi_offset 6, -24
	movq	%rsi, %r12
	pushq	%rbx
	.cfi_def_cfa_offset 32
	.cfi_offset 3, -32
	movq	%rdi, %rbp
	subq	$16, %rsp
	.cfi_def_cfa_offset 48
	movq	%fs:40, %rax
	movq	%rax, 8(%rsp)
	xorl	%eax, %eax
	testq	%rsi, %rsi
	jne	.L40
	testq	%rdx, %rdx
	je	.L40
	leaq	.LC19(%rip), %rdi
	call	_ZSt19__throw_logic_errorPKc@PLT
	.p2align 4,,10
	.p2align 3
.L40:
	subq	%r12, %rdx
	cmpq	$15, %rdx
	movq	%rdx, %rbx
	movq	%rdx, (%rsp)
	ja	.L59
	cmpq	$1, %rbx
	movq	0(%rbp), %rdi
	je	.L60
	testq	%rbx, %rbx
	jne	.L41
.L43:
	movq	8(%rsp), %rax
	xorq	%fs:40, %rax
	movq	%rbx, 8(%rbp)
	movb	$0, (%rdi,%rbx)
	jne	.L61
	addq	$16, %rsp
	.cfi_remember_state
	.cfi_def_cfa_offset 32
	popq	%rbx
	.cfi_def_cfa_offset 24
	popq	%rbp
	.cfi_def_cfa_offset 16
	popq	%r12
	.cfi_def_cfa_offset 8
	ret
	.p2align 4,,10
	.p2align 3
.L59:
	.cfi_restore_state
	movq	%rbp, %rdi
	movq	%rsp, %rsi
	xorl	%edx, %edx
	call	_ZNSt7__cxx1112basic_stringIcSt11char_traitsIcESaIcEE9_M_createERmm@PLT
	movq	%rax, %rdi
	movq	%rax, 0(%rbp)
	movq	(%rsp), %rax
	movq	%rax, 16(%rbp)
.L41:
	movq	%rbx, %rdx
	movq	%r12, %rsi
	call	memcpy@PLT
	movq	(%rsp), %rbx
	movq	0(%rbp), %rdi
	jmp	.L43
	.p2align 4,,10
	.p2align 3
.L60:
	movzbl	(%r12), %eax
	movb	%al, (%rdi)
	movq	(%rsp), %rbx
	movq	0(%rbp), %rdi
	jmp	.L43
.L61:
	call	__stack_chk_fail@PLT
	.cfi_endproc
.LFE2209:
	.size	_ZNSt7__cxx1112basic_stringIcSt11char_traitsIcESaIcEE12_M_constructIPcEEvT_S7_St20forward_iterator_tag.isra.44, .-_ZNSt7__cxx1112basic_stringIcSt11char_traitsIcESaIcEE12_M_constructIPcEEvT_S7_St20forward_iterator_tag.isra.44
	.section	.text.unlikely._ZNSt7__cxx1112basic_stringIcSt11char_traitsIcESaIcEE12_M_constructIPcEEvT_S7_St20forward_iterator_tag.isra.44
.LCOLDE20:
	.section	.text._ZNSt7__cxx1112basic_stringIcSt11char_traitsIcESaIcEE12_M_constructIPcEEvT_S7_St20forward_iterator_tag.isra.44
.LHOTE20:
	.set	_ZNSt7__cxx1112basic_stringIcSt11char_traitsIcESaIcEE12_M_constructIPKcEEvT_S8_St20forward_iterator_tag.isra.37,_ZNSt7__cxx1112basic_stringIcSt11char_traitsIcESaIcEE12_M_constructIPcEEvT_S7_St20forward_iterator_tag.isra.44
	.section	.text.unlikely._Z13base64_encodeB5cxx11PKhj.constprop.72,"ax",@progbits
.LCOLDB21:
	.section	.text._Z13base64_encodeB5cxx11PKhj.constprop.72,"ax",@progbits
.LHOTB21:
	.p2align 4,,15
	.type	_Z13base64_encodeB5cxx11PKhj.constprop.72, @function
_Z13base64_encodeB5cxx11PKhj.constprop.72:
.LFB2238:
	.cfi_startproc
	.cfi_personality 0x9b,DW.ref.__gxx_personality_v0
	.cfi_lsda 0x1b,.LLSDA2238
	pushq	%r15
	.cfi_def_cfa_offset 16
	.cfi_offset 15, -16
	pushq	%r14
	.cfi_def_cfa_offset 24
	.cfi_offset 14, -24
	leaq	56(%rsi), %r14
	pushq	%r13
	.cfi_def_cfa_offset 32
	.cfi_offset 13, -32
	pushq	%r12
	.cfi_def_cfa_offset 40
	.cfi_offset 12, -40
	leaq	16(%rdi), %r12
	pushq	%rbp
	.cfi_def_cfa_offset 48
	.cfi_offset 6, -48
	pushq	%rbx
	.cfi_def_cfa_offset 56
	.cfi_offset 3, -56
	movq	%rsi, %rbp
	movq	%rdi, %rbx
	xorl	%r13d, %r13d
	subq	$40, %rsp
	.cfi_def_cfa_offset 96
	movq	%r12, (%rdi)
	movq	$0, 8(%rdi)
	movq	%fs:40, %rax
	movq	%rax, 24(%rsp)
	xorl	%eax, %eax
	movb	$0, 16(%rdi)
	jmp	.L63
	.p2align 4,,10
	.p2align 3
.L65:
	cmpq	%r14, %rbp
	je	.L64
.L63:
	addq	$1, %rbp
	movzbl	-1(%rbp), %edx
	movslq	%r13d, %rax
	addl	$1, %r13d
	cmpl	$3, %r13d
	movb	%dl, 16(%rsp,%rax)
	jne	.L65
	movzbl	16(%rsp), %eax
	movzbl	17(%rsp), %edx
	movq	8(%rbx), %r13
	movl	%eax, %ecx
	movl	%edx, %esi
	andl	$15, %edx
	andl	$3, %ecx
	shrb	$4, %sil
	shrb	$2, %al
	sall	$4, %ecx
	movzbl	%al, %eax
	leaq	1(%r13), %r15
	leal	(%rcx,%rsi), %edi
	movzbl	18(%rsp), %ecx
	movb	%dil, 12(%rsp)
	movl	%ecx, %esi
	andl	$63, %ecx
	shrb	$6, %sil
	movb	%cl, 14(%rsp)
	leal	(%rsi,%rdx,4), %edi
	movq	_ZL12base64_chars(%rip), %rdx
	movb	%dil, 13(%rsp)
	movzbl	(%rdx,%rax), %eax
	movb	%al, 15(%rsp)
	movq	(%rbx), %rax
	cmpq	%rax, %r12
	je	.L99
	movq	16(%rbx), %rdx
.L66:
	cmpq	%rdx, %r15
	ja	.L117
.L67:
	movzbl	15(%rsp), %edi
	movb	%dil, (%rax,%r13)
	movq	(%rbx), %rax
	movq	%r15, 8(%rbx)
	movb	$0, 1(%rax,%r13)
	movzbl	12(%rsp), %eax
	movq	_ZL12base64_chars(%rip), %rdx
	movq	8(%rbx), %r13
	movzbl	(%rdx,%rax), %eax
	leaq	1(%r13), %r15
	movb	%al, 12(%rsp)
	movq	(%rbx), %rax
	cmpq	%rax, %r12
	je	.L100
	movq	16(%rbx), %rdx
.L68:
	cmpq	%rdx, %r15
	ja	.L118
.L69:
	movzbl	12(%rsp), %edi
	movb	%dil, (%rax,%r13)
	movq	(%rbx), %rax
	movq	%r15, 8(%rbx)
	movb	$0, 1(%rax,%r13)
	movzbl	13(%rsp), %eax
	movq	_ZL12base64_chars(%rip), %rdx
	movq	8(%rbx), %r13
	movzbl	(%rdx,%rax), %eax
	leaq	1(%r13), %r15
	movb	%al, 12(%rsp)
	movq	(%rbx), %rax
	cmpq	%rax, %r12
	je	.L101
	movq	16(%rbx), %rdx
.L70:
	cmpq	%rdx, %r15
	ja	.L119
.L71:
	movzbl	12(%rsp), %edi
	movb	%dil, (%rax,%r13)
	movq	(%rbx), %rax
	movq	%r15, 8(%rbx)
	movb	$0, 1(%rax,%r13)
	movzbl	14(%rsp), %eax
	movq	_ZL12base64_chars(%rip), %rdx
	movq	8(%rbx), %r13
	movzbl	(%rdx,%rax), %eax
	leaq	1(%r13), %r15
	movb	%al, 12(%rsp)
	movq	(%rbx), %rax
	cmpq	%rax, %r12
	je	.L102
	movq	16(%rbx), %rdx
.L72:
	cmpq	%rdx, %r15
	ja	.L120
.L73:
	movzbl	12(%rsp), %edi
	movb	%dil, (%rax,%r13)
	movq	(%rbx), %rax
	movq	%r15, 8(%rbx)
	movb	$0, 1(%rax,%r13)
	xorl	%r13d, %r13d
	cmpq	%r14, %rbp
	jne	.L63
.L64:
	testl	%r13d, %r13d
	je	.L62
	cmpl	$2, %r13d
	jg	.L87
	movl	$2, %eax
	movslq	%r13d, %rdx
	subl	%r13d, %eax
	leaq	16(%rsp,%rdx), %rdx
	addq	$1, %rax
	testl	%eax, %eax
	movl	%eax, %ecx
	je	.L87
	xorl	%eax, %eax
.L85:
	movl	%eax, %esi
	addl	$1, %eax
	cmpl	%ecx, %eax
	movb	$0, (%rdx,%rsi)
	jb	.L85
.L87:
	movzbl	16(%rsp), %eax
	movzbl	17(%rsp), %edx
	movq	8(%rbx), %rbp
	movl	%eax, %ecx
	movl	%edx, %esi
	andl	$15, %edx
	andl	$3, %ecx
	shrb	$4, %sil
	shrb	$2, %al
	sall	$4, %ecx
	movzbl	%al, %eax
	leaq	1(%rbp), %r14
	addl	%ecx, %esi
	movzbl	18(%rsp), %ecx
	movb	%sil, 12(%rsp)
	movl	%ecx, %esi
	andl	$63, %ecx
	shrb	$6, %sil
	movb	%cl, 14(%rsp)
	leal	(%rsi,%rdx,4), %esi
	movq	_ZL12base64_chars(%rip), %rdx
	movb	%sil, 13(%rsp)
	movzbl	(%rdx,%rax), %r15d
	movq	(%rbx), %rax
	cmpq	%rax, %r12
	je	.L103
	movq	16(%rbx), %rdx
.L76:
	cmpq	%rdx, %r14
	ja	.L121
.L77:
	movb	%r15b, (%rax,%rbp)
	movq	(%rbx), %rax
	movq	%r14, 8(%rbx)
	movb	$0, 1(%rax,%rbp)
	movzbl	12(%rsp), %eax
	movq	_ZL12base64_chars(%rip), %rdx
	movq	8(%rbx), %rbp
	movzbl	(%rdx,%rax), %r15d
	movq	(%rbx), %rax
	leaq	1(%rbp), %r14
	cmpq	%rax, %r12
	je	.L104
	movq	16(%rbx), %rdx
.L78:
	cmpq	%rdx, %r14
	ja	.L122
.L79:
	movb	%r15b, (%rax,%rbp)
	movq	(%rbx), %rax
	cmpl	$1, %r13d
	movq	%r14, 8(%rbx)
	movb	$0, 1(%rax,%rbp)
	je	.L80
	movzbl	13(%rsp), %eax
	movq	_ZL12base64_chars(%rip), %rdx
	movq	8(%rbx), %rbp
	movzbl	(%rdx,%rax), %r15d
	movq	(%rbx), %rax
	leaq	1(%rbp), %r14
	cmpq	%rax, %r12
	je	.L105
	movq	16(%rbx), %rdx
.L81:
	cmpq	%rdx, %r14
	ja	.L123
.L82:
	movb	%r15b, (%rax,%rbp)
	movq	(%rbx), %rax
	cmpl	$2, %r13d
	movq	%r14, 8(%rbx)
	movb	$0, 1(%rax,%rbp)
	je	.L124
	movzbl	14(%rsp), %eax
	movq	_ZL12base64_chars(%rip), %rdx
	movq	8(%rbx), %rbp
	movzbl	(%rdx,%rax), %r14d
	movq	(%rbx), %rax
	leaq	1(%rbp), %r13
	cmpq	%rax, %r12
	je	.L107
	movq	16(%rbx), %rdx
.L88:
	cmpq	%rdx, %r13
	ja	.L125
.L89:
	movb	%r14b, (%rax,%rbp)
	movq	(%rbx), %rax
	movq	%r13, 8(%rbx)
	movb	$0, 1(%rax,%rbp)
.L62:
	movq	24(%rsp), %rsi
	xorq	%fs:40, %rsi
	movq	%rbx, %rax
	jne	.L126
	addq	$40, %rsp
	.cfi_remember_state
	.cfi_def_cfa_offset 56
	popq	%rbx
	.cfi_def_cfa_offset 48
	popq	%rbp
	.cfi_def_cfa_offset 40
	popq	%r12
	.cfi_def_cfa_offset 32
	popq	%r13
	.cfi_def_cfa_offset 24
	popq	%r14
	.cfi_def_cfa_offset 16
	popq	%r15
	.cfi_def_cfa_offset 8
	ret
	.p2align 4,,10
	.p2align 3
.L117:
	.cfi_restore_state
	movl	$1, %r8d
	xorl	%ecx, %ecx
	xorl	%edx, %edx
	movq	%r13, %rsi
	movq	%rbx, %rdi
.LEHB2:
	call	_ZNSt7__cxx1112basic_stringIcSt11char_traitsIcESaIcEE9_M_mutateEmmPKcm@PLT
	movq	(%rbx), %rax
	jmp	.L67
	.p2align 4,,10
	.p2align 3
.L120:
	movl	$1, %r8d
	xorl	%ecx, %ecx
	xorl	%edx, %edx
	movq	%r13, %rsi
	movq	%rbx, %rdi
	call	_ZNSt7__cxx1112basic_stringIcSt11char_traitsIcESaIcEE9_M_mutateEmmPKcm@PLT
	movq	(%rbx), %rax
	jmp	.L73
	.p2align 4,,10
	.p2align 3
.L119:
	movl	$1, %r8d
	xorl	%ecx, %ecx
	xorl	%edx, %edx
	movq	%r13, %rsi
	movq	%rbx, %rdi
	call	_ZNSt7__cxx1112basic_stringIcSt11char_traitsIcESaIcEE9_M_mutateEmmPKcm@PLT
	movq	(%rbx), %rax
	jmp	.L71
	.p2align 4,,10
	.p2align 3
.L118:
	movl	$1, %r8d
	xorl	%ecx, %ecx
	xorl	%edx, %edx
	movq	%r13, %rsi
	movq	%rbx, %rdi
	call	_ZNSt7__cxx1112basic_stringIcSt11char_traitsIcESaIcEE9_M_mutateEmmPKcm@PLT
	movq	(%rbx), %rax
	jmp	.L69
	.p2align 4,,10
	.p2align 3
.L100:
	movl	$15, %edx
	jmp	.L68
	.p2align 4,,10
	.p2align 3
.L99:
	movl	$15, %edx
	jmp	.L66
	.p2align 4,,10
	.p2align 3
.L102:
	movl	$15, %edx
	jmp	.L72
	.p2align 4,,10
	.p2align 3
.L101:
	movl	$15, %edx
	jmp	.L70
	.p2align 4,,10
	.p2align 3
.L125:
	movl	$1, %r8d
	xorl	%ecx, %ecx
	xorl	%edx, %edx
	movq	%rbp, %rsi
	movq	%rbx, %rdi
	call	_ZNSt7__cxx1112basic_stringIcSt11char_traitsIcESaIcEE9_M_mutateEmmPKcm@PLT
	movq	(%rbx), %rax
	jmp	.L89
	.p2align 4,,10
	.p2align 3
.L123:
	movl	$1, %r8d
	xorl	%ecx, %ecx
	xorl	%edx, %edx
	movq	%rbp, %rsi
	movq	%rbx, %rdi
	call	_ZNSt7__cxx1112basic_stringIcSt11char_traitsIcESaIcEE9_M_mutateEmmPKcm@PLT
	movq	(%rbx), %rax
	jmp	.L82
	.p2align 4,,10
	.p2align 3
.L122:
	movl	$1, %r8d
	xorl	%ecx, %ecx
	xorl	%edx, %edx
	movq	%rbp, %rsi
	movq	%rbx, %rdi
	call	_ZNSt7__cxx1112basic_stringIcSt11char_traitsIcESaIcEE9_M_mutateEmmPKcm@PLT
	movq	(%rbx), %rax
	jmp	.L79
	.p2align 4,,10
	.p2align 3
.L121:
	movl	$1, %r8d
	xorl	%ecx, %ecx
	xorl	%edx, %edx
	movq	%rbp, %rsi
	movq	%rbx, %rdi
	call	_ZNSt7__cxx1112basic_stringIcSt11char_traitsIcESaIcEE9_M_mutateEmmPKcm@PLT
	movq	(%rbx), %rax
	jmp	.L77
.L104:
	movl	$15, %edx
	jmp	.L78
.L105:
	movl	$15, %edx
	jmp	.L81
.L107:
	movl	$15, %edx
	jmp	.L88
.L103:
	movl	$15, %edx
	jmp	.L76
.L124:
	movl	$3, %r14d
.L83:
	movq	(%rbx), %rax
	movq	8(%rbx), %rbp
	cmpq	%rax, %r12
	leaq	1(%rbp), %r13
	je	.L108
	movq	16(%rbx), %rdx
.L91:
	cmpq	%rdx, %r13
	ja	.L127
.L92:
	movb	$61, (%rax,%rbp)
	movq	(%rbx), %rax
	cmpl	$2, %r14d
	movq	%r13, 8(%rbx)
	movb	$0, 1(%rax,%rbp)
	jne	.L62
	movq	(%rbx), %rax
	movq	8(%rbx), %rbp
	cmpq	%rax, %r12
	leaq	1(%rbp), %r13
	je	.L109
	movq	16(%rbx), %rdx
.L93:
	cmpq	%r13, %rdx
	jb	.L128
.L94:
	movb	$61, (%rax,%rbp)
	movq	(%rbx), %rax
	movq	%r13, 8(%rbx)
	movb	$0, 1(%rax,%rbp)
	jmp	.L62
	.p2align 4,,10
	.p2align 3
.L127:
	movl	$1, %r8d
	xorl	%ecx, %ecx
	xorl	%edx, %edx
	movq	%rbp, %rsi
	movq	%rbx, %rdi
	call	_ZNSt7__cxx1112basic_stringIcSt11char_traitsIcESaIcEE9_M_mutateEmmPKcm@PLT
	movq	(%rbx), %rax
	jmp	.L92
	.p2align 4,,10
	.p2align 3
.L128:
	movl	$1, %r8d
	xorl	%ecx, %ecx
	xorl	%edx, %edx
	movq	%rbp, %rsi
	movq	%rbx, %rdi
	call	_ZNSt7__cxx1112basic_stringIcSt11char_traitsIcESaIcEE9_M_mutateEmmPKcm@PLT
.LEHE2:
	movq	(%rbx), %rax
	jmp	.L94
.L109:
	movl	$15, %edx
	jmp	.L93
.L108:
	movl	$15, %edx
	jmp	.L91
.L80:
	movl	$2, %r14d
	jmp	.L83
.L110:
	movq	(%rbx), %rdi
	movq	%rax, %rbp
	cmpq	%rdi, %r12
	je	.L113
	vzeroupper
	call	_ZdlPv@PLT
.L96:
	movq	%rbp, %rdi
.LEHB3:
	call	_Unwind_Resume@PLT
.LEHE3:
.L126:
	call	__stack_chk_fail@PLT
.L113:
	vzeroupper
	jmp	.L96
	.cfi_endproc
.LFE2238:
	.section	.gcc_except_table._Z13base64_encodeB5cxx11PKhj.constprop.72,"a",@progbits
.LLSDA2238:
	.byte	0xff
	.byte	0xff
	.byte	0x1
	.uleb128 .LLSDACSE2238-.LLSDACSB2238
.LLSDACSB2238:
	.uleb128 .LEHB2-.LFB2238
	.uleb128 .LEHE2-.LEHB2
	.uleb128 .L110-.LFB2238
	.uleb128 0
	.uleb128 .LEHB3-.LFB2238
	.uleb128 .LEHE3-.LEHB3
	.uleb128 0
	.uleb128 0
.LLSDACSE2238:
	.section	.text._Z13base64_encodeB5cxx11PKhj.constprop.72
	.size	_Z13base64_encodeB5cxx11PKhj.constprop.72, .-_Z13base64_encodeB5cxx11PKhj.constprop.72
	.section	.text.unlikely._Z13base64_encodeB5cxx11PKhj.constprop.72
.LCOLDE21:
	.section	.text._Z13base64_encodeB5cxx11PKhj.constprop.72
.LHOTE21:
	.section	.text.unlikely._ZN5decaf12SecureBufferD2Ev,"axG",@progbits,_ZN5decaf12SecureBufferD5Ev,comdat
	.align 2
.LCOLDB22:
	.section	.text._ZN5decaf12SecureBufferD2Ev,"axG",@progbits,_ZN5decaf12SecureBufferD5Ev,comdat
.LHOTB22:
	.align 2
	.p2align 4,,15
	.weak	_ZN5decaf12SecureBufferD2Ev
	.hidden	_ZN5decaf12SecureBufferD2Ev
	.type	_ZN5decaf12SecureBufferD2Ev, @function
_ZN5decaf12SecureBufferD2Ev:
.LFB748:
	.cfi_startproc
	.cfi_personality 0x9b,DW.ref.__gxx_personality_v0
	.cfi_lsda 0x1b,.LLSDA748
	leaq	16+_ZTVN5decaf12SecureBufferE(%rip), %rcx
	movq	%rdi, %rax
	movq	%rcx, (%rdi)
	movq	8(%rdi), %rdi
	testq	%rdi, %rdi
	je	.L143
	movq	16(%rax), %rsi
	pushq	%rbx
	.cfi_def_cfa_offset 16
	.cfi_offset 3, -16
	movq	%rax, %rbx
.LEHB4:
	call	decaf_bzero@PLT
.LEHE4:
	movq	8(%rbx), %rdi
	testq	%rdi, %rdi
	je	.L140
	popq	%rbx
	.cfi_remember_state
	.cfi_restore 3
	.cfi_def_cfa_offset 8
	jmp	_ZdaPv@PLT
	.p2align 4,,10
	.p2align 3
.L140:
	.cfi_restore_state
	popq	%rbx
	.cfi_restore 3
	.cfi_def_cfa_offset 8
.L143:
	rep ret
.L133:
	.cfi_def_cfa_offset 16
	.cfi_offset 3, -16
	movq	%rax, %rdi
.L131:
	addq	$1, %rdx
	je	.L132
	vzeroupper
.LEHB5:
	call	_Unwind_Resume@PLT
.L132:
	vzeroupper
	call	__cxa_call_unexpected@PLT
.LEHE5:
	.cfi_endproc
.LFE748:
	.section	.gcc_except_table._ZN5decaf12SecureBufferD2Ev,"aG",@progbits,_ZN5decaf12SecureBufferD5Ev,comdat
	.align 4
.LLSDA748:
	.byte	0xff
	.byte	0x9b
	.uleb128 .LLSDATT748-.LLSDATTD748
.LLSDATTD748:
	.byte	0x1
	.uleb128 .LLSDACSE748-.LLSDACSB748
.LLSDACSB748:
	.uleb128 .LEHB4-.LFB748
	.uleb128 .LEHE4-.LEHB4
	.uleb128 .L133-.LFB748
	.uleb128 0x1
	.uleb128 .LEHB5-.LFB748
	.uleb128 .LEHE5-.LEHB5
	.uleb128 0
	.uleb128 0
.LLSDACSE748:
	.byte	0x7f
	.byte	0
	.align 4
.LLSDATT748:
	.byte	0
	.section	.text._ZN5decaf12SecureBufferD2Ev,"axG",@progbits,_ZN5decaf12SecureBufferD5Ev,comdat
	.size	_ZN5decaf12SecureBufferD2Ev, .-_ZN5decaf12SecureBufferD2Ev
	.section	.text.unlikely._ZN5decaf12SecureBufferD2Ev,"axG",@progbits,_ZN5decaf12SecureBufferD5Ev,comdat
.LCOLDE22:
	.section	.text._ZN5decaf12SecureBufferD2Ev,"axG",@progbits,_ZN5decaf12SecureBufferD5Ev,comdat
.LHOTE22:
	.weak	_ZN5decaf12SecureBufferD1Ev
	.hidden	_ZN5decaf12SecureBufferD1Ev
	.set	_ZN5decaf12SecureBufferD1Ev,_ZN5decaf12SecureBufferD2Ev
	.section	.text.unlikely._ZN5decaf12SecureBufferD0Ev,"axG",@progbits,_ZN5decaf12SecureBufferD5Ev,comdat
	.align 2
.LCOLDB23:
	.section	.text._ZN5decaf12SecureBufferD0Ev,"axG",@progbits,_ZN5decaf12SecureBufferD5Ev,comdat
.LHOTB23:
	.align 2
	.p2align 4,,15
	.weak	_ZN5decaf12SecureBufferD0Ev
	.hidden	_ZN5decaf12SecureBufferD0Ev
	.type	_ZN5decaf12SecureBufferD0Ev, @function
_ZN5decaf12SecureBufferD0Ev:
.LFB750:
	.cfi_startproc
	.cfi_personality 0x9b,DW.ref.__gxx_personality_v0
	.cfi_lsda 0x1b,.LLSDA750
	leaq	16+_ZTVN5decaf12SecureBufferE(%rip), %rax
	pushq	%rbx
	.cfi_def_cfa_offset 16
	.cfi_offset 3, -16
	movq	%rdi, %rbx
	movq	%rax, (%rdi)
	movq	8(%rdi), %rdi
	testq	%rdi, %rdi
	je	.L145
	movq	16(%rbx), %rsi
.LEHB6:
	call	decaf_bzero@PLT
.LEHE6:
	movq	8(%rbx), %rdi
	testq	%rdi, %rdi
	je	.L145
	call	_ZdaPv@PLT
.L145:
	movq	%rbx, %rdi
	popq	%rbx
	.cfi_remember_state
	.cfi_def_cfa_offset 8
	jmp	_ZdlPv@PLT
.L148:
	.cfi_restore_state
	movq	%rax, %rdi
.L146:
	addq	$1, %rdx
	je	.L147
	vzeroupper
.LEHB7:
	call	_Unwind_Resume@PLT
.L147:
	vzeroupper
	call	__cxa_call_unexpected@PLT
.LEHE7:
	.cfi_endproc
.LFE750:
	.section	.gcc_except_table._ZN5decaf12SecureBufferD0Ev,"aG",@progbits,_ZN5decaf12SecureBufferD5Ev,comdat
	.align 4
.LLSDA750:
	.byte	0xff
	.byte	0x9b
	.uleb128 .LLSDATT750-.LLSDATTD750
.LLSDATTD750:
	.byte	0x1
	.uleb128 .LLSDACSE750-.LLSDACSB750
.LLSDACSB750:
	.uleb128 .LEHB6-.LFB750
	.uleb128 .LEHE6-.LEHB6
	.uleb128 .L148-.LFB750
	.uleb128 0x1
	.uleb128 .LEHB7-.LFB750
	.uleb128 .LEHE7-.LEHB7
	.uleb128 0
	.uleb128 0
.LLSDACSE750:
	.byte	0x7f
	.byte	0
	.align 4
.LLSDATT750:
	.byte	0
	.section	.text._ZN5decaf12SecureBufferD0Ev,"axG",@progbits,_ZN5decaf12SecureBufferD5Ev,comdat
	.size	_ZN5decaf12SecureBufferD0Ev, .-_ZN5decaf12SecureBufferD0Ev
	.section	.text.unlikely._ZN5decaf12SecureBufferD0Ev,"axG",@progbits,_ZN5decaf12SecureBufferD5Ev,comdat
.LCOLDE23:
	.section	.text._ZN5decaf12SecureBufferD0Ev,"axG",@progbits,_ZN5decaf12SecureBufferD5Ev,comdat
.LHOTE23:
	.section	.text.unlikely._ZN5decaf5Ed4486ScalarD2Ev,"axG",@progbits,_ZN5decaf5Ed4486ScalarD5Ev,comdat
	.align 2
.LCOLDB24:
	.section	.text._ZN5decaf5Ed4486ScalarD2Ev,"axG",@progbits,_ZN5decaf5Ed4486ScalarD5Ev,comdat
.LHOTB24:
	.align 2
	.p2align 4,,15
	.weak	_ZN5decaf5Ed4486ScalarD2Ev
	.hidden	_ZN5decaf5Ed4486ScalarD2Ev
	.type	_ZN5decaf5Ed4486ScalarD2Ev, @function
_ZN5decaf5Ed4486ScalarD2Ev:
.LFB774:
	.cfi_startproc
	.cfi_personality 0x9b,DW.ref.__gxx_personality_v0
	.cfi_lsda 0x1b,.LLSDA774
	subq	$8, %rsp
	.cfi_def_cfa_offset 16
.LEHB8:
	call	decaf_448_scalar_destroy@PLT
.LEHE8:
	addq	$8, %rsp
	.cfi_remember_state
	.cfi_def_cfa_offset 8
	ret
.L159:
	.cfi_restore_state
	movq	%rax, %rdi
.L157:
	addq	$1, %rdx
	je	.L158
	vzeroupper
.LEHB9:
	call	_Unwind_Resume@PLT
.L158:
	vzeroupper
	call	__cxa_call_unexpected@PLT
.LEHE9:
	.cfi_endproc
.LFE774:
	.section	.gcc_except_table._ZN5decaf5Ed4486ScalarD2Ev,"aG",@progbits,_ZN5decaf5Ed4486ScalarD5Ev,comdat
	.align 4
.LLSDA774:
	.byte	0xff
	.byte	0x9b
	.uleb128 .LLSDATT774-.LLSDATTD774
.LLSDATTD774:
	.byte	0x1
	.uleb128 .LLSDACSE774-.LLSDACSB774
.LLSDACSB774:
	.uleb128 .LEHB8-.LFB774
	.uleb128 .LEHE8-.LEHB8
	.uleb128 .L159-.LFB774
	.uleb128 0x1
	.uleb128 .LEHB9-.LFB774
	.uleb128 .LEHE9-.LEHB9
	.uleb128 0
	.uleb128 0
.LLSDACSE774:
	.byte	0x7f
	.byte	0
	.align 4
.LLSDATT774:
	.byte	0
	.section	.text._ZN5decaf5Ed4486ScalarD2Ev,"axG",@progbits,_ZN5decaf5Ed4486ScalarD5Ev,comdat
	.size	_ZN5decaf5Ed4486ScalarD2Ev, .-_ZN5decaf5Ed4486ScalarD2Ev
	.section	.text.unlikely._ZN5decaf5Ed4486ScalarD2Ev,"axG",@progbits,_ZN5decaf5Ed4486ScalarD5Ev,comdat
.LCOLDE24:
	.section	.text._ZN5decaf5Ed4486ScalarD2Ev,"axG",@progbits,_ZN5decaf5Ed4486ScalarD5Ev,comdat
.LHOTE24:
	.weak	_ZN5decaf5Ed4486ScalarD1Ev
	.hidden	_ZN5decaf5Ed4486ScalarD1Ev
	.set	_ZN5decaf5Ed4486ScalarD1Ev,_ZN5decaf5Ed4486ScalarD2Ev
	.section	.text.unlikely._ZN5decaf5Ed4486ScalaraSEi,"axG",@progbits,_ZN5decaf5Ed4486ScalaraSEi,comdat
	.align 2
.LCOLDB25:
	.section	.text._ZN5decaf5Ed4486ScalaraSEi,"axG",@progbits,_ZN5decaf5Ed4486ScalaraSEi,comdat
.LHOTB25:
	.align 2
	.p2align 4,,15
	.weak	_ZN5decaf5Ed4486ScalaraSEi
	.hidden	_ZN5decaf5Ed4486ScalaraSEi
	.type	_ZN5decaf5Ed4486ScalaraSEi, @function
_ZN5decaf5Ed4486ScalaraSEi:
.LFB772:
	.cfi_startproc
	.cfi_personality 0x9b,DW.ref.__gxx_personality_v0
	.cfi_lsda 0x1b,.LLSDA772
	pushq	%r12
	.cfi_def_cfa_offset 16
	.cfi_offset 12, -16
	pushq	%rbp
	.cfi_def_cfa_offset 24
	.cfi_offset 6, -24
	movl	%esi, %r12d
	pushq	%rbx
	.cfi_def_cfa_offset 32
	.cfi_offset 3, -32
	movl	$2147483648, %esi
	movq	%rdi, %rbx
	subq	$64, %rsp
	.cfi_def_cfa_offset 96
	movq	%rsp, %rdi
	movq	%rsp, %rbp
	movq	%fs:40, %rax
	movq	%rax, 56(%rsp)
	xorl	%eax, %eax
.LEHB10:
	call	decaf_448_scalar_set@PLT
.LEHE10:
	movslq	%r12d, %rsi
	movl	$2147483648, %eax
	movq	%rbx, %rdi
	addq	%rax, %rsi
.LEHB11:
	call	decaf_448_scalar_set@PLT
.LEHE11:
	movq	%rsp, %rdx
	movq	%rbx, %rsi
	movq	%rbx, %rdi
.LEHB12:
	call	decaf_448_scalar_sub@PLT
.LEHE12:
	movq	%rsp, %rdi
.LEHB13:
	call	decaf_448_scalar_destroy@PLT
.LEHE13:
	movq	56(%rsp), %rcx
	xorq	%fs:40, %rcx
	movq	%rbx, %rax
	jne	.L193
	addq	$64, %rsp
	.cfi_remember_state
	.cfi_def_cfa_offset 32
	popq	%rbx
	.cfi_def_cfa_offset 24
	popq	%rbp
	.cfi_def_cfa_offset 16
	popq	%r12
	.cfi_def_cfa_offset 8
	ret
.L193:
	.cfi_restore_state
	call	__stack_chk_fail@PLT
.L178:
.L189:
	movq	%rax, %rdi
	jmp	.L171
.L179:
	jmp	.L189
.L171:
	addq	$1, %rdx
	je	.L172
	vzeroupper
.LEHB14:
	call	_Unwind_Resume@PLT
.L176:
	movq	%rax, %rbx
	movq	%rdx, %r12
	jmp	.L173
.L177:
	jmp	.L189
.L172:
	vzeroupper
	call	__cxa_call_unexpected@PLT
.L173:
	movq	%rbp, %rdi
	vzeroupper
	call	_ZN5decaf5Ed4486ScalarD1Ev
	addq	$1, %r12
	movq	%rbx, %rdi
	je	.L174
	call	_Unwind_Resume@PLT
.L174:
	call	__cxa_call_unexpected@PLT
.LEHE14:
	.cfi_endproc
.LFE772:
	.section	.gcc_except_table._ZN5decaf5Ed4486ScalaraSEi,"aG",@progbits,_ZN5decaf5Ed4486ScalaraSEi,comdat
	.align 4
.LLSDA772:
	.byte	0xff
	.byte	0x9b
	.uleb128 .LLSDATT772-.LLSDATTD772
.LLSDATTD772:
	.byte	0x1
	.uleb128 .LLSDACSE772-.LLSDACSB772
.LLSDACSB772:
	.uleb128 .LEHB10-.LFB772
	.uleb128 .LEHE10-.LEHB10
	.uleb128 .L177-.LFB772
	.uleb128 0x1
	.uleb128 .LEHB11-.LFB772
	.uleb128 .LEHE11-.LEHB11
	.uleb128 .L176-.LFB772
	.uleb128 0x3
	.uleb128 .LEHB12-.LFB772
	.uleb128 .LEHE12-.LEHB12
	.uleb128 .L179-.LFB772
	.uleb128 0x1
	.uleb128 .LEHB13-.LFB772
	.uleb128 .LEHE13-.LEHB13
	.uleb128 .L178-.LFB772
	.uleb128 0x1
	.uleb128 .LEHB14-.LFB772
	.uleb128 .LEHE14-.LEHB14
	.uleb128 0
	.uleb128 0
.LLSDACSE772:
	.byte	0x7f
	.byte	0
	.byte	0
	.byte	0x7d
	.align 4
.LLSDATT772:
	.byte	0
	.section	.text._ZN5decaf5Ed4486ScalaraSEi,"axG",@progbits,_ZN5decaf5Ed4486ScalaraSEi,comdat
	.size	_ZN5decaf5Ed4486ScalaraSEi, .-_ZN5decaf5Ed4486ScalaraSEi
	.section	.text.unlikely._ZN5decaf5Ed4486ScalaraSEi,"axG",@progbits,_ZN5decaf5Ed4486ScalaraSEi,comdat
.LCOLDE25:
	.section	.text._ZN5decaf5Ed4486ScalaraSEi,"axG",@progbits,_ZN5decaf5Ed4486ScalaraSEi,comdat
.LHOTE25:
	.section	.text.unlikely._ZN5decaf5Ed4486ScalaraSEi.constprop.78,"ax",@progbits
	.align 2
.LCOLDB26:
	.section	.text._ZN5decaf5Ed4486ScalaraSEi.constprop.78,"ax",@progbits
.LHOTB26:
	.align 2
	.p2align 4,,15
	.type	_ZN5decaf5Ed4486ScalaraSEi.constprop.78, @function
_ZN5decaf5Ed4486ScalaraSEi.constprop.78:
.LFB2232:
	.cfi_startproc
	.cfi_personality 0x9b,DW.ref.__gxx_personality_v0
	.cfi_lsda 0x1b,.LLSDA2232
	pushq	%r12
	.cfi_def_cfa_offset 16
	.cfi_offset 12, -16
	pushq	%rbp
	.cfi_def_cfa_offset 24
	.cfi_offset 6, -24
	movl	$2147483648, %esi
	pushq	%rbx
	.cfi_def_cfa_offset 32
	.cfi_offset 3, -32
	movq	%rdi, %rbx
	subq	$64, %rsp
	.cfi_def_cfa_offset 96
	movq	%rsp, %rdi
	movq	%rsp, %rbp
	movq	%fs:40, %rax
	movq	%rax, 56(%rsp)
	xorl	%eax, %eax
.LEHB15:
	call	decaf_448_scalar_set@PLT
.LEHE15:
	movl	$2147483648, %esi
	movq	%rbx, %rdi
.LEHB16:
	call	decaf_448_scalar_set@PLT
.LEHE16:
	movq	%rsp, %rdx
	movq	%rbx, %rsi
	movq	%rbx, %rdi
.LEHB17:
	call	decaf_448_scalar_sub@PLT
.LEHE17:
	movq	%rsp, %rdi
.LEHB18:
	call	decaf_448_scalar_destroy@PLT
.LEHE18:
	movq	56(%rsp), %rcx
	xorq	%fs:40, %rcx
	movq	%rbx, %rax
	jne	.L223
	addq	$64, %rsp
	.cfi_remember_state
	.cfi_def_cfa_offset 32
	popq	%rbx
	.cfi_def_cfa_offset 24
	popq	%rbp
	.cfi_def_cfa_offset 16
	popq	%r12
	.cfi_def_cfa_offset 8
	ret
.L223:
	.cfi_restore_state
	call	__stack_chk_fail@PLT
.L208:
.L218:
	addq	$1, %rdx
	movq	%rax, %rdi
	je	.L202
	vzeroupper
.LEHB19:
	call	_Unwind_Resume@PLT
.L209:
	jmp	.L218
.L202:
	vzeroupper
	call	__cxa_call_unexpected@PLT
.L206:
	movq	%rax, %rbx
	movq	%rdx, %r12
	movq	%rbp, %rdi
	vzeroupper
	call	_ZN5decaf5Ed4486ScalarD1Ev
	addq	$1, %r12
	movq	%rbx, %rdi
	je	.L204
	call	_Unwind_Resume@PLT
.L207:
	jmp	.L218
.L204:
	call	__cxa_call_unexpected@PLT
.LEHE19:
	.cfi_endproc
.LFE2232:
	.section	.gcc_except_table._ZN5decaf5Ed4486ScalaraSEi.constprop.78,"a",@progbits
	.align 4
.LLSDA2232:
	.byte	0xff
	.byte	0x9b
	.uleb128 .LLSDATT2232-.LLSDATTD2232
.LLSDATTD2232:
	.byte	0x1
	.uleb128 .LLSDACSE2232-.LLSDACSB2232
.LLSDACSB2232:
	.uleb128 .LEHB15-.LFB2232
	.uleb128 .LEHE15-.LEHB15
	.uleb128 .L207-.LFB2232
	.uleb128 0x1
	.uleb128 .LEHB16-.LFB2232
	.uleb128 .LEHE16-.LEHB16
	.uleb128 .L206-.LFB2232
	.uleb128 0x3
	.uleb128 .LEHB17-.LFB2232
	.uleb128 .LEHE17-.LEHB17
	.uleb128 .L209-.LFB2232
	.uleb128 0x1
	.uleb128 .LEHB18-.LFB2232
	.uleb128 .LEHE18-.LEHB18
	.uleb128 .L208-.LFB2232
	.uleb128 0x1
	.uleb128 .LEHB19-.LFB2232
	.uleb128 .LEHE19-.LEHB19
	.uleb128 0
	.uleb128 0
.LLSDACSE2232:
	.byte	0x7f
	.byte	0
	.byte	0
	.byte	0x7d
	.align 4
.LLSDATT2232:
	.byte	0
	.section	.text._ZN5decaf5Ed4486ScalaraSEi.constprop.78
	.size	_ZN5decaf5Ed4486ScalaraSEi.constprop.78, .-_ZN5decaf5Ed4486ScalaraSEi.constprop.78
	.section	.text.unlikely._ZN5decaf5Ed4486ScalaraSEi.constprop.78
.LCOLDE26:
	.section	.text._ZN5decaf5Ed4486ScalaraSEi.constprop.78
.LHOTE26:
	.section	.text.unlikely._ZNK5decaf5Ed4486ScalarmlERKS1_,"axG",@progbits,_ZNK5decaf5Ed4486ScalarmlERKS1_,comdat
	.align 2
.LCOLDB27:
	.section	.text._ZNK5decaf5Ed4486ScalarmlERKS1_,"axG",@progbits,_ZNK5decaf5Ed4486ScalarmlERKS1_,comdat
.LHOTB27:
	.align 2
	.p2align 4,,15
	.weak	_ZNK5decaf5Ed4486ScalarmlERKS1_
	.hidden	_ZNK5decaf5Ed4486ScalarmlERKS1_
	.type	_ZNK5decaf5Ed4486ScalarmlERKS1_, @function
_ZNK5decaf5Ed4486ScalarmlERKS1_:
.LFB788:
	.cfi_startproc
	.cfi_personality 0x9b,DW.ref.__gxx_personality_v0
	.cfi_lsda 0x1b,.LLSDA788
	pushq	%r12
	.cfi_def_cfa_offset 16
	.cfi_offset 12, -16
	pushq	%rbp
	.cfi_def_cfa_offset 24
	.cfi_offset 6, -24
	pushq	%rbx
	.cfi_def_cfa_offset 32
	.cfi_offset 3, -32
	movq	%rdi, %rbx
.LEHB20:
	call	decaf_448_scalar_mul@PLT
.LEHE20:
	movq	%rbx, %rax
	popq	%rbx
	.cfi_remember_state
	.cfi_def_cfa_offset 24
	popq	%rbp
	.cfi_def_cfa_offset 16
	popq	%r12
	.cfi_def_cfa_offset 8
	ret
.L227:
	.cfi_restore_state
	movq	%rax, %rbp
	movq	%rdx, %r12
.L225:
	movq	%rbx, %rdi
	vzeroupper
	call	_ZN5decaf5Ed4486ScalarD1Ev
	addq	$1, %r12
	movq	%rbp, %rdi
	je	.L226
.LEHB21:
	call	_Unwind_Resume@PLT
.L226:
	call	__cxa_call_unexpected@PLT
.LEHE21:
	.cfi_endproc
.LFE788:
	.section	.gcc_except_table._ZNK5decaf5Ed4486ScalarmlERKS1_,"aG",@progbits,_ZNK5decaf5Ed4486ScalarmlERKS1_,comdat
	.align 4
.LLSDA788:
	.byte	0xff
	.byte	0x9b
	.uleb128 .LLSDATT788-.LLSDATTD788
.LLSDATTD788:
	.byte	0x1
	.uleb128 .LLSDACSE788-.LLSDACSB788
.LLSDACSB788:
	.uleb128 .LEHB20-.LFB788
	.uleb128 .LEHE20-.LEHB20
	.uleb128 .L227-.LFB788
	.uleb128 0x3
	.uleb128 .LEHB21-.LFB788
	.uleb128 .LEHE21-.LEHB21
	.uleb128 0
	.uleb128 0
.LLSDACSE788:
	.byte	0x7f
	.byte	0
	.byte	0
	.byte	0x7d
	.align 4
.LLSDATT788:
	.byte	0
	.section	.text._ZNK5decaf5Ed4486ScalarmlERKS1_,"axG",@progbits,_ZNK5decaf5Ed4486ScalarmlERKS1_,comdat
	.size	_ZNK5decaf5Ed4486ScalarmlERKS1_, .-_ZNK5decaf5Ed4486ScalarmlERKS1_
	.section	.text.unlikely._ZNK5decaf5Ed4486ScalarmlERKS1_,"axG",@progbits,_ZNK5decaf5Ed4486ScalarmlERKS1_,comdat
.LCOLDE27:
	.section	.text._ZNK5decaf5Ed4486ScalarmlERKS1_,"axG",@progbits,_ZNK5decaf5Ed4486ScalarmlERKS1_,comdat
.LHOTE27:
	.section	.text.unlikely._ZN5decaf5Ed4485PointD2Ev,"axG",@progbits,_ZN5decaf5Ed4485PointD5Ev,comdat
	.align 2
.LCOLDB28:
	.section	.text._ZN5decaf5Ed4485PointD2Ev,"axG",@progbits,_ZN5decaf5Ed4485PointD5Ev,comdat
.LHOTB28:
	.align 2
	.p2align 4,,15
	.weak	_ZN5decaf5Ed4485PointD2Ev
	.hidden	_ZN5decaf5Ed4485PointD2Ev
	.type	_ZN5decaf5Ed4485PointD2Ev, @function
_ZN5decaf5Ed4485PointD2Ev:
.LFB817:
	.cfi_startproc
	.cfi_personality 0x9b,DW.ref.__gxx_personality_v0
	.cfi_lsda 0x1b,.LLSDA817
	subq	$8, %rsp
	.cfi_def_cfa_offset 16
.LEHB22:
	call	decaf_448_point_destroy@PLT
.LEHE22:
	addq	$8, %rsp
	.cfi_remember_state
	.cfi_def_cfa_offset 8
	ret
.L235:
	.cfi_restore_state
	movq	%rax, %rdi
.L233:
	addq	$1, %rdx
	je	.L234
	vzeroupper
.LEHB23:
	call	_Unwind_Resume@PLT
.L234:
	vzeroupper
	call	__cxa_call_unexpected@PLT
.LEHE23:
	.cfi_endproc
.LFE817:
	.section	.gcc_except_table._ZN5decaf5Ed4485PointD2Ev,"aG",@progbits,_ZN5decaf5Ed4485PointD5Ev,comdat
	.align 4
.LLSDA817:
	.byte	0xff
	.byte	0x9b
	.uleb128 .LLSDATT817-.LLSDATTD817
.LLSDATTD817:
	.byte	0x1
	.uleb128 .LLSDACSE817-.LLSDACSB817
.LLSDACSB817:
	.uleb128 .LEHB22-.LFB817
	.uleb128 .LEHE22-.LEHB22
	.uleb128 .L235-.LFB817
	.uleb128 0x1
	.uleb128 .LEHB23-.LFB817
	.uleb128 .LEHE23-.LEHB23
	.uleb128 0
	.uleb128 0
.LLSDACSE817:
	.byte	0x7f
	.byte	0
	.align 4
.LLSDATT817:
	.byte	0
	.section	.text._ZN5decaf5Ed4485PointD2Ev,"axG",@progbits,_ZN5decaf5Ed4485PointD5Ev,comdat
	.size	_ZN5decaf5Ed4485PointD2Ev, .-_ZN5decaf5Ed4485PointD2Ev
	.section	.text.unlikely._ZN5decaf5Ed4485PointD2Ev,"axG",@progbits,_ZN5decaf5Ed4485PointD5Ev,comdat
.LCOLDE28:
	.section	.text._ZN5decaf5Ed4485PointD2Ev,"axG",@progbits,_ZN5decaf5Ed4485PointD5Ev,comdat
.LHOTE28:
	.weak	_ZN5decaf5Ed4485PointD1Ev
	.hidden	_ZN5decaf5Ed4485PointD1Ev
	.set	_ZN5decaf5Ed4485PointD1Ev,_ZN5decaf5Ed4485PointD2Ev
	.section	.text.unlikely._ZN5decaf5Ed4485Point11set_to_hashERKNS_5BlockE,"axG",@progbits,_ZN5decaf5Ed4485Point11set_to_hashERKNS_5BlockE,comdat
	.align 2
.LCOLDB29:
	.section	.text._ZN5decaf5Ed4485Point11set_to_hashERKNS_5BlockE,"axG",@progbits,_ZN5decaf5Ed4485Point11set_to_hashERKNS_5BlockE,comdat
.LHOTB29:
	.align 2
	.p2align 4,,15
	.weak	_ZN5decaf5Ed4485Point11set_to_hashERKNS_5BlockE
	.hidden	_ZN5decaf5Ed4485Point11set_to_hashERKNS_5BlockE
	.type	_ZN5decaf5Ed4485Point11set_to_hashERKNS_5BlockE, @function
_ZN5decaf5Ed4485Point11set_to_hashERKNS_5BlockE:
.LFB828:
	.cfi_startproc
	.cfi_personality 0x9b,DW.ref.__gxx_personality_v0
	.cfi_lsda 0x1b,.LLSDA828
	pushq	%rbp
	.cfi_def_cfa_offset 16
	.cfi_offset 6, -16
	pushq	%rbx
	.cfi_def_cfa_offset 24
	.cfi_offset 3, -24
	movq	%rdi, %rbp
	movq	%rsi, %rbx
	subq	$56, %rsp
	.cfi_def_cfa_offset 80
	movq	%fs:40, %rax
	movq	%rax, 40(%rsp)
	xorl	%eax, %eax
	movq	16(%rsi), %rax
	cmpq	$55, %rax
	jbe	.L259
	cmpq	$56, %rax
	je	.L260
	cmpq	$111, %rax
	ja	.L244
	leaq	16+_ZTVN5decaf12SecureBufferE(%rip), %rax
	movl	$112, %edi
	movq	$0, 24(%rsp)
	movq	$112, 32(%rsp)
	movq	%rax, 16(%rsp)
.LEHB24:
	call	_Znam@PLT
.LEHE24:
	leaq	8(%rax), %rdi
	movq	%rax, %rcx
	movq	%rax, 24(%rsp)
	movq	%rax, %r8
	movq	$0, (%rax)
	movq	$0, 104(%rax)
	andq	$-8, %rdi
	xorl	%eax, %eax
	subq	%rdi, %rcx
	addl	$112, %ecx
	shrl	$3, %ecx
	rep stosq
	movq	%r8, %rdi
	movq	8(%rbx), %rsi
	movq	16(%rbx), %rdx
	call	memcpy@PLT
	movq	%rbp, %rdi
	movq	%rax, %rsi
.LEHB25:
	call	decaf_448_point_from_hash_uniform@PLT
.LEHE25:
.L256:
	movb	%al, 15(%rsp)
	leaq	32(%rsp), %rsi
	leaq	16+_ZTVN5decaf12SecureBufferE(%rip), %rax
	leaq	24(%rsp), %rdi
	movq	%rax, 16(%rsp)
	call	_ZN5decaf12SecureBuffer5clearEv.isra.15
	movzbl	15(%rsp), %eax
	jmp	.L242
	.p2align 4,,10
	.p2align 3
.L244:
	movq	8(%rsi), %rsi
.LEHB26:
	call	decaf_448_point_from_hash_uniform@PLT
.L242:
	movq	40(%rsp), %rdx
	xorq	%fs:40, %rdx
	jne	.L261
	addq	$56, %rsp
	.cfi_remember_state
	.cfi_def_cfa_offset 24
	popq	%rbx
	.cfi_def_cfa_offset 16
	popq	%rbp
	.cfi_def_cfa_offset 8
	ret
	.p2align 4,,10
	.p2align 3
.L259:
	.cfi_restore_state
	leaq	16+_ZTVN5decaf12SecureBufferE(%rip), %rax
	movl	$56, %edi
	movq	$0, 24(%rsp)
	movq	$56, 32(%rsp)
	movq	%rax, 16(%rsp)
	call	_Znam@PLT
.LEHE26:
	leaq	8(%rax), %rdi
	movq	%rax, %rcx
	movq	%rax, 24(%rsp)
	movq	%rax, %r8
	movq	$0, (%rax)
	movq	$0, 48(%rax)
	andq	$-8, %rdi
	xorl	%eax, %eax
	subq	%rdi, %rcx
	addl	$56, %ecx
	shrl	$3, %ecx
	rep stosq
	movq	%r8, %rdi
	movq	8(%rbx), %rsi
	movq	16(%rbx), %rdx
	call	memcpy@PLT
	movq	%rbp, %rdi
	movq	%rax, %rsi
.LEHB27:
	call	decaf_448_point_from_hash_nonuniform@PLT
.LEHE27:
	jmp	.L256
	.p2align 4,,10
	.p2align 3
.L260:
	movq	8(%rsi), %rsi
.LEHB28:
	call	decaf_448_point_from_hash_nonuniform@PLT
.LEHE28:
	jmp	.L242
.L261:
	call	__stack_chk_fail@PLT
.L252:
.L257:
	movq	%rax, %rbx
	movq	%rdx, %rbp
	jmp	.L247
.L250:
	jmp	.L257
.L251:
	movq	%rax, %rdi
	jmp	.L246
.L247:
	leaq	16+_ZTVN5decaf12SecureBufferE(%rip), %rax
	leaq	32(%rsp), %rsi
	leaq	24(%rsp), %rdi
	movq	%rax, 16(%rsp)
	vzeroupper
	call	_ZN5decaf12SecureBuffer5clearEv.isra.15
	movq	%rbx, %rdi
	movq	%rbp, %rdx
.L246:
	addq	$1, %rdx
	je	.L248
	vzeroupper
.LEHB29:
	call	_Unwind_Resume@PLT
.L248:
	vzeroupper
	call	__cxa_call_unexpected@PLT
.LEHE29:
	.cfi_endproc
.LFE828:
	.section	.gcc_except_table._ZN5decaf5Ed4485Point11set_to_hashERKNS_5BlockE,"aG",@progbits,_ZN5decaf5Ed4485Point11set_to_hashERKNS_5BlockE,comdat
	.align 4
.LLSDA828:
	.byte	0xff
	.byte	0x9b
	.uleb128 .LLSDATT828-.LLSDATTD828
.LLSDATTD828:
	.byte	0x1
	.uleb128 .LLSDACSE828-.LLSDACSB828
.LLSDACSB828:
	.uleb128 .LEHB24-.LFB828
	.uleb128 .LEHE24-.LEHB24
	.uleb128 .L251-.LFB828
	.uleb128 0x1
	.uleb128 .LEHB25-.LFB828
	.uleb128 .LEHE25-.LEHB25
	.uleb128 .L252-.LFB828
	.uleb128 0x3
	.uleb128 .LEHB26-.LFB828
	.uleb128 .LEHE26-.LEHB26
	.uleb128 .L251-.LFB828
	.uleb128 0x1
	.uleb128 .LEHB27-.LFB828
	.uleb128 .LEHE27-.LEHB27
	.uleb128 .L250-.LFB828
	.uleb128 0x3
	.uleb128 .LEHB28-.LFB828
	.uleb128 .LEHE28-.LEHB28
	.uleb128 .L251-.LFB828
	.uleb128 0x1
	.uleb128 .LEHB29-.LFB828
	.uleb128 .LEHE29-.LEHB29
	.uleb128 0
	.uleb128 0
.LLSDACSE828:
	.byte	0x7f
	.byte	0
	.byte	0
	.byte	0x7d
	.align 4
.LLSDATT828:
	.byte	0
	.section	.text._ZN5decaf5Ed4485Point11set_to_hashERKNS_5BlockE,"axG",@progbits,_ZN5decaf5Ed4485Point11set_to_hashERKNS_5BlockE,comdat
	.size	_ZN5decaf5Ed4485Point11set_to_hashERKNS_5BlockE, .-_ZN5decaf5Ed4485Point11set_to_hashERKNS_5BlockE
	.section	.text.unlikely._ZN5decaf5Ed4485Point11set_to_hashERKNS_5BlockE,"axG",@progbits,_ZN5decaf5Ed4485Point11set_to_hashERKNS_5BlockE,comdat
.LCOLDE29:
	.section	.text._ZN5decaf5Ed4485Point11set_to_hashERKNS_5BlockE,"axG",@progbits,_ZN5decaf5Ed4485Point11set_to_hashERKNS_5BlockE,comdat
.LHOTE29:
	.section	.text.unlikely._ZNK5decaf5Ed4485PointplERKS1_,"axG",@progbits,_ZNK5decaf5Ed4485PointplERKS1_,comdat
	.align 2
.LCOLDB30:
	.section	.text._ZNK5decaf5Ed4485PointplERKS1_,"axG",@progbits,_ZNK5decaf5Ed4485PointplERKS1_,comdat
.LHOTB30:
	.align 2
	.p2align 4,,15
	.weak	_ZNK5decaf5Ed4485PointplERKS1_
	.hidden	_ZNK5decaf5Ed4485PointplERKS1_
	.type	_ZNK5decaf5Ed4485PointplERKS1_, @function
_ZNK5decaf5Ed4485PointplERKS1_:
.LFB831:
	.cfi_startproc
	.cfi_personality 0x9b,DW.ref.__gxx_personality_v0
	.cfi_lsda 0x1b,.LLSDA831
	pushq	%r12
	.cfi_def_cfa_offset 16
	.cfi_offset 12, -16
	pushq	%rbp
	.cfi_def_cfa_offset 24
	.cfi_offset 6, -24
	pushq	%rbx
	.cfi_def_cfa_offset 32
	.cfi_offset 3, -32
	movq	%rdi, %rbx
.LEHB30:
	call	decaf_448_point_add@PLT
.LEHE30:
	movq	%rbx, %rax
	popq	%rbx
	.cfi_remember_state
	.cfi_def_cfa_offset 24
	popq	%rbp
	.cfi_def_cfa_offset 16
	popq	%r12
	.cfi_def_cfa_offset 8
	ret
.L265:
	.cfi_restore_state
	movq	%rax, %rbp
	movq	%rdx, %r12
.L263:
	movq	%rbx, %rdi
	vzeroupper
	call	_ZN5decaf5Ed4485PointD1Ev
	addq	$1, %r12
	movq	%rbp, %rdi
	je	.L264
.LEHB31:
	call	_Unwind_Resume@PLT
.L264:
	call	__cxa_call_unexpected@PLT
.LEHE31:
	.cfi_endproc
.LFE831:
	.section	.gcc_except_table._ZNK5decaf5Ed4485PointplERKS1_,"aG",@progbits,_ZNK5decaf5Ed4485PointplERKS1_,comdat
	.align 4
.LLSDA831:
	.byte	0xff
	.byte	0x9b
	.uleb128 .LLSDATT831-.LLSDATTD831
.LLSDATTD831:
	.byte	0x1
	.uleb128 .LLSDACSE831-.LLSDACSB831
.LLSDACSB831:
	.uleb128 .LEHB30-.LFB831
	.uleb128 .LEHE30-.LEHB30
	.uleb128 .L265-.LFB831
	.uleb128 0x3
	.uleb128 .LEHB31-.LFB831
	.uleb128 .LEHE31-.LEHB31
	.uleb128 0
	.uleb128 0
.LLSDACSE831:
	.byte	0x7f
	.byte	0
	.byte	0
	.byte	0x7d
	.align 4
.LLSDATT831:
	.byte	0
	.section	.text._ZNK5decaf5Ed4485PointplERKS1_,"axG",@progbits,_ZNK5decaf5Ed4485PointplERKS1_,comdat
	.size	_ZNK5decaf5Ed4485PointplERKS1_, .-_ZNK5decaf5Ed4485PointplERKS1_
	.section	.text.unlikely._ZNK5decaf5Ed4485PointplERKS1_,"axG",@progbits,_ZNK5decaf5Ed4485PointplERKS1_,comdat
.LCOLDE30:
	.section	.text._ZNK5decaf5Ed4485PointplERKS1_,"axG",@progbits,_ZNK5decaf5Ed4485PointplERKS1_,comdat
.LHOTE30:
	.section	.text.unlikely._ZNK5decaf5Ed4485PointmlERKNS0_6ScalarE,"axG",@progbits,_ZNK5decaf5Ed4485PointmlERKNS0_6ScalarE,comdat
	.align 2
.LCOLDB31:
	.section	.text._ZNK5decaf5Ed4485PointmlERKNS0_6ScalarE,"axG",@progbits,_ZNK5decaf5Ed4485PointmlERKNS0_6ScalarE,comdat
.LHOTB31:
	.align 2
	.p2align 4,,15
	.weak	_ZNK5decaf5Ed4485PointmlERKNS0_6ScalarE
	.hidden	_ZNK5decaf5Ed4485PointmlERKNS0_6ScalarE
	.type	_ZNK5decaf5Ed4485PointmlERKNS0_6ScalarE, @function
_ZNK5decaf5Ed4485PointmlERKNS0_6ScalarE:
.LFB840:
	.cfi_startproc
	.cfi_personality 0x9b,DW.ref.__gxx_personality_v0
	.cfi_lsda 0x1b,.LLSDA840
	pushq	%r12
	.cfi_def_cfa_offset 16
	.cfi_offset 12, -16
	pushq	%rbp
	.cfi_def_cfa_offset 24
	.cfi_offset 6, -24
	pushq	%rbx
	.cfi_def_cfa_offset 32
	.cfi_offset 3, -32
	movq	%rdi, %rbx
.LEHB32:
	call	decaf_448_point_scalarmul@PLT
.LEHE32:
	movq	%rbx, %rax
	popq	%rbx
	.cfi_remember_state
	.cfi_def_cfa_offset 24
	popq	%rbp
	.cfi_def_cfa_offset 16
	popq	%r12
	.cfi_def_cfa_offset 8
	ret
.L273:
	.cfi_restore_state
	movq	%rax, %rbp
	movq	%rdx, %r12
.L271:
	movq	%rbx, %rdi
	vzeroupper
	call	_ZN5decaf5Ed4485PointD1Ev
	addq	$1, %r12
	movq	%rbp, %rdi
	je	.L272
.LEHB33:
	call	_Unwind_Resume@PLT
.L272:
	call	__cxa_call_unexpected@PLT
.LEHE33:
	.cfi_endproc
.LFE840:
	.section	.gcc_except_table._ZNK5decaf5Ed4485PointmlERKNS0_6ScalarE,"aG",@progbits,_ZNK5decaf5Ed4485PointmlERKNS0_6ScalarE,comdat
	.align 4
.LLSDA840:
	.byte	0xff
	.byte	0x9b
	.uleb128 .LLSDATT840-.LLSDATTD840
.LLSDATTD840:
	.byte	0x1
	.uleb128 .LLSDACSE840-.LLSDACSB840
.LLSDACSB840:
	.uleb128 .LEHB32-.LFB840
	.uleb128 .LEHE32-.LEHB32
	.uleb128 .L273-.LFB840
	.uleb128 0x3
	.uleb128 .LEHB33-.LFB840
	.uleb128 .LEHE33-.LEHB33
	.uleb128 0
	.uleb128 0
.LLSDACSE840:
	.byte	0x7f
	.byte	0
	.byte	0
	.byte	0x7d
	.align 4
.LLSDATT840:
	.byte	0
	.section	.text._ZNK5decaf5Ed4485PointmlERKNS0_6ScalarE,"axG",@progbits,_ZNK5decaf5Ed4485PointmlERKNS0_6ScalarE,comdat
	.size	_ZNK5decaf5Ed4485PointmlERKNS0_6ScalarE, .-_ZNK5decaf5Ed4485PointmlERKNS0_6ScalarE
	.section	.text.unlikely._ZNK5decaf5Ed4485PointmlERKNS0_6ScalarE,"axG",@progbits,_ZNK5decaf5Ed4485PointmlERKNS0_6ScalarE,comdat
.LCOLDE31:
	.section	.text._ZNK5decaf5Ed4485PointmlERKNS0_6ScalarE,"axG",@progbits,_ZNK5decaf5Ed4485PointmlERKNS0_6ScalarE,comdat
.LHOTE31:
	.section	.text.unlikely._ZNK5decaf5Ed4485Point16invert_elligatorERNS_6BufferEh,"axG",@progbits,_ZNK5decaf5Ed4485Point16invert_elligatorERNS_6BufferEh,comdat
	.align 2
.LCOLDB32:
	.section	.text._ZNK5decaf5Ed4485Point16invert_elligatorERNS_6BufferEh,"axG",@progbits,_ZNK5decaf5Ed4485Point16invert_elligatorERNS_6BufferEh,comdat
.LHOTB32:
	.align 2
	.p2align 4,,15
	.weak	_ZNK5decaf5Ed4485Point16invert_elligatorERNS_6BufferEh
	.hidden	_ZNK5decaf5Ed4485Point16invert_elligatorERNS_6BufferEh
	.type	_ZNK5decaf5Ed4485Point16invert_elligatorERNS_6BufferEh, @function
_ZNK5decaf5Ed4485Point16invert_elligatorERNS_6BufferEh:
.LFB849:
	.cfi_startproc
	.cfi_personality 0x9b,DW.ref.__gxx_personality_v0
	.cfi_lsda 0x1b,.LLSDA849
	pushq	%r14
	.cfi_def_cfa_offset 16
	.cfi_offset 14, -16
	pushq	%r13
	.cfi_def_cfa_offset 24
	.cfi_offset 13, -24
	movq	%rdi, %r14
	pushq	%r12
	.cfi_def_cfa_offset 32
	.cfi_offset 12, -32
	pushq	%rbp
	.cfi_def_cfa_offset 40
	.cfi_offset 6, -40
	movl	$14, %ecx
	pushq	%rbx
	.cfi_def_cfa_offset 48
	.cfi_offset 3, -48
	movq	%rsi, %rbp
	movl	%edx, %r12d
	addq	$-128, %rsp
	.cfi_def_cfa_offset 176
	movq	16(%rsi), %r13
	movq	%fs:40, %rax
	movq	%rax, 120(%rsp)
	xorl	%eax, %eax
	movq	%rsp, %rdi
	movq	%rsp, %rbx
	cmpq	$112, %r13
	rep stosq
	ja	.L279
	movq	8(%rsi), %rsi
	movl	$112, %ecx
	movq	%r13, %rdx
	movq	%rsp, %rdi
	call	__memcpy_chk@PLT
	cmpq	$56, %r13
	ja	.L291
	movzbl	%r12b, %edx
	movq	%r14, %rsi
	movq	%rsp, %rdi
.LEHB34:
	call	decaf_448_invert_elligator_nonuniform@PLT
.L306:
	movq	16(%rbp), %rdi
	movq	%rax, %r12
	movl	$56, %edx
	cmpq	$55, %rdi
	jbe	.L308
.L282:
	cmpl	$8, %edx
	movq	8(%rbp), %rcx
	movl	%edx, %eax
	jnb	.L283
	andl	$4, %edx
	jne	.L309
	testl	%eax, %eax
	je	.L284
	movzbl	(%rbx), %edx
	testb	$2, %al
	movb	%dl, (%rcx)
	jne	.L310
.L284:
	movl	$112, %esi
	movq	%rbx, %rdi
	call	decaf_bzero@PLT
	testq	%r12, %r12
	setne	%al
	movq	120(%rsp), %rbx
	xorq	%fs:40, %rbx
	jne	.L311
	subq	$-128, %rsp
	.cfi_remember_state
	.cfi_def_cfa_offset 48
	popq	%rbx
	.cfi_def_cfa_offset 40
	popq	%rbp
	.cfi_def_cfa_offset 32
	popq	%r12
	.cfi_def_cfa_offset 24
	popq	%r13
	.cfi_def_cfa_offset 16
	popq	%r14
	.cfi_def_cfa_offset 8
	ret
	.p2align 4,,10
	.p2align 3
.L279:
	.cfi_restore_state
	movq	8(%rsi), %rax
	movq	(%rax), %rdx
	movq	%rdx, (%rsp)
	movq	8(%rax), %rdx
	movq	%rdx, 8(%rsp)
	movq	16(%rax), %rdx
	movq	%rdx, 16(%rsp)
	movq	24(%rax), %rdx
	movq	%rdx, 24(%rsp)
	movq	32(%rax), %rdx
	movq	%rdx, 32(%rsp)
	movq	40(%rax), %rdx
	movq	%rdx, 40(%rsp)
	movq	48(%rax), %rdx
	movq	%rdx, 48(%rsp)
	movq	56(%rax), %rdx
	movq	%rdx, 56(%rsp)
	movq	64(%rax), %rdx
	movq	%rdx, 64(%rsp)
	movq	72(%rax), %rdx
	movq	%rdx, 72(%rsp)
	movq	80(%rax), %rdx
	movq	%rdx, 80(%rsp)
	movq	88(%rax), %rdx
	movq	%rdx, 88(%rsp)
	movq	96(%rax), %rdx
	movq	%rdx, 96(%rsp)
	movq	104(%rax), %rax
	movq	%rax, 104(%rsp)
.L291:
	movzbl	%r12b, %edx
	movq	%r14, %rsi
	movq	%rbx, %rdi
	call	decaf_448_invert_elligator_uniform@PLT
	jmp	.L306
	.p2align 4,,10
	.p2align 3
.L283:
	movq	(%rsp), %rax
	movq	%rbx, %rdi
	movq	%rax, (%rcx)
	movl	%edx, %eax
	movq	-8(%rbx,%rax), %rsi
	movq	%rsi, -8(%rcx,%rax)
	leaq	8(%rcx), %rsi
	andq	$-8, %rsi
	subq	%rsi, %rcx
	leal	(%rdx,%rcx), %eax
	subq	%rcx, %rdi
	andl	$-8, %eax
	cmpl	$8, %eax
	jb	.L284
	andl	$-8, %eax
	xorl	%edx, %edx
.L287:
	movl	%edx, %ecx
	addl	$8, %edx
	movq	(%rdi,%rcx), %r8
	cmpl	%eax, %edx
	movq	%r8, (%rsi,%rcx)
	jb	.L287
	jmp	.L284
	.p2align 4,,10
	.p2align 3
.L308:
	leaq	56(%rbx), %rsi
	subq	%rdi, %rdx
	addq	%rbx, %rdi
	call	decaf_memeq@PLT
.LEHE34:
	movq	16(%rbp), %rdx
	andq	%rax, %r12
	movl	$56, %eax
	cmpq	$56, %rdx
	cmovnb	%rax, %rdx
	jmp	.L282
	.p2align 4,,10
	.p2align 3
.L309:
	movl	(%rbx), %edx
	movl	%edx, (%rcx)
	movl	%eax, %edx
	movl	-4(%rbx,%rdx), %eax
	movl	%eax, -4(%rcx,%rdx)
	jmp	.L284
	.p2align 4,,10
	.p2align 3
.L310:
	movl	%eax, %edx
	movzwl	-2(%rbx,%rdx), %eax
	movw	%ax, -2(%rcx,%rdx)
	jmp	.L284
.L311:
	call	__stack_chk_fail@PLT
.L295:
	movq	%rax, %rdi
.L289:
	addq	$1, %rdx
	je	.L290
	vzeroupper
.LEHB35:
	call	_Unwind_Resume@PLT
.L290:
	vzeroupper
	call	__cxa_call_unexpected@PLT
.LEHE35:
	.cfi_endproc
.LFE849:
	.section	.gcc_except_table._ZNK5decaf5Ed4485Point16invert_elligatorERNS_6BufferEh,"aG",@progbits,_ZNK5decaf5Ed4485Point16invert_elligatorERNS_6BufferEh,comdat
	.align 4
.LLSDA849:
	.byte	0xff
	.byte	0x9b
	.uleb128 .LLSDATT849-.LLSDATTD849
.LLSDATTD849:
	.byte	0x1
	.uleb128 .LLSDACSE849-.LLSDACSB849
.LLSDACSB849:
	.uleb128 .LEHB34-.LFB849
	.uleb128 .LEHE34-.LEHB34
	.uleb128 .L295-.LFB849
	.uleb128 0x1
	.uleb128 .LEHB35-.LFB849
	.uleb128 .LEHE35-.LEHB35
	.uleb128 0
	.uleb128 0
.LLSDACSE849:
	.byte	0x7f
	.byte	0
	.align 4
.LLSDATT849:
	.byte	0
	.section	.text._ZNK5decaf5Ed4485Point16invert_elligatorERNS_6BufferEh,"axG",@progbits,_ZNK5decaf5Ed4485Point16invert_elligatorERNS_6BufferEh,comdat
	.size	_ZNK5decaf5Ed4485Point16invert_elligatorERNS_6BufferEh, .-_ZNK5decaf5Ed4485Point16invert_elligatorERNS_6BufferEh
	.section	.text.unlikely._ZNK5decaf5Ed4485Point16invert_elligatorERNS_6BufferEh,"axG",@progbits,_ZNK5decaf5Ed4485Point16invert_elligatorERNS_6BufferEh,comdat
.LCOLDE32:
	.section	.text._ZNK5decaf5Ed4485Point16invert_elligatorERNS_6BufferEh,"axG",@progbits,_ZNK5decaf5Ed4485Point16invert_elligatorERNS_6BufferEh,comdat
.LHOTE32:
	.section	.text.unlikely._ZN5decaf12KeccakSpongeD2Ev,"axG",@progbits,_ZN5decaf12KeccakSpongeD5Ev,comdat
	.align 2
.LCOLDB33:
	.section	.text._ZN5decaf12KeccakSpongeD2Ev,"axG",@progbits,_ZN5decaf12KeccakSpongeD5Ev,comdat
.LHOTB33:
	.align 2
	.p2align 4,,15
	.weak	_ZN5decaf12KeccakSpongeD2Ev
	.hidden	_ZN5decaf12KeccakSpongeD2Ev
	.type	_ZN5decaf12KeccakSpongeD2Ev, @function
_ZN5decaf12KeccakSpongeD2Ev:
.LFB912:
	.cfi_startproc
	.cfi_personality 0x9b,DW.ref.__gxx_personality_v0
	.cfi_lsda 0x1b,.LLSDA912
	subq	$8, %rsp
	.cfi_def_cfa_offset 16
.LEHB36:
	call	sponge_destroy@PLT
.LEHE36:
	addq	$8, %rsp
	.cfi_remember_state
	.cfi_def_cfa_offset 8
	ret
.L315:
	.cfi_restore_state
	movq	%rax, %rdi
.L313:
	addq	$1, %rdx
	je	.L314
	vzeroupper
.LEHB37:
	call	_Unwind_Resume@PLT
.L314:
	vzeroupper
	call	__cxa_call_unexpected@PLT
.LEHE37:
	.cfi_endproc
.LFE912:
	.section	.gcc_except_table._ZN5decaf12KeccakSpongeD2Ev,"aG",@progbits,_ZN5decaf12KeccakSpongeD5Ev,comdat
	.align 4
.LLSDA912:
	.byte	0xff
	.byte	0x9b
	.uleb128 .LLSDATT912-.LLSDATTD912
.LLSDATTD912:
	.byte	0x1
	.uleb128 .LLSDACSE912-.LLSDACSB912
.LLSDACSB912:
	.uleb128 .LEHB36-.LFB912
	.uleb128 .LEHE36-.LEHB36
	.uleb128 .L315-.LFB912
	.uleb128 0x1
	.uleb128 .LEHB37-.LFB912
	.uleb128 .LEHE37-.LEHB37
	.uleb128 0
	.uleb128 0
.LLSDACSE912:
	.byte	0x7f
	.byte	0
	.align 4
.LLSDATT912:
	.byte	0
	.section	.text._ZN5decaf12KeccakSpongeD2Ev,"axG",@progbits,_ZN5decaf12KeccakSpongeD5Ev,comdat
	.size	_ZN5decaf12KeccakSpongeD2Ev, .-_ZN5decaf12KeccakSpongeD2Ev
	.section	.text.unlikely._ZN5decaf12KeccakSpongeD2Ev,"axG",@progbits,_ZN5decaf12KeccakSpongeD5Ev,comdat
.LCOLDE33:
	.section	.text._ZN5decaf12KeccakSpongeD2Ev,"axG",@progbits,_ZN5decaf12KeccakSpongeD5Ev,comdat
.LHOTE33:
	.weak	_ZN5decaf12KeccakSpongeD1Ev
	.hidden	_ZN5decaf12KeccakSpongeD1Ev
	.set	_ZN5decaf12KeccakSpongeD1Ev,_ZN5decaf12KeccakSpongeD2Ev
	.section	.text.unlikely._ZN5decaf9SpongeRng4readERNS_6BufferE,"axG",@progbits,_ZN5decaf9SpongeRng4readERNS_6BufferE,comdat
	.align 2
.LCOLDB34:
	.section	.text._ZN5decaf9SpongeRng4readERNS_6BufferE,"axG",@progbits,_ZN5decaf9SpongeRng4readERNS_6BufferE,comdat
.LHOTB34:
	.align 2
	.p2align 4,,15
	.weak	_ZN5decaf9SpongeRng4readERNS_6BufferE
	.hidden	_ZN5decaf9SpongeRng4readERNS_6BufferE
	.type	_ZN5decaf9SpongeRng4readERNS_6BufferE, @function
_ZN5decaf9SpongeRng4readERNS_6BufferE:
.LFB950:
	.cfi_startproc
	.cfi_personality 0x9b,DW.ref.__gxx_personality_v0
	.cfi_lsda 0x1b,.LLSDA950
	subq	$8, %rsp
	.cfi_def_cfa_offset 16
	movq	16(%rsi), %rdx
	movq	8(%rsi), %rsi
.LEHB38:
	call	spongerng_next@PLT
.LEHE38:
	addq	$8, %rsp
	.cfi_remember_state
	.cfi_def_cfa_offset 8
	ret
.L323:
	.cfi_restore_state
	movq	%rax, %rdi
.L321:
	addq	$1, %rdx
	je	.L322
	vzeroupper
.LEHB39:
	call	_Unwind_Resume@PLT
.L322:
	vzeroupper
	call	__cxa_call_unexpected@PLT
.LEHE39:
	.cfi_endproc
.LFE950:
	.section	.gcc_except_table._ZN5decaf9SpongeRng4readERNS_6BufferE,"aG",@progbits,_ZN5decaf9SpongeRng4readERNS_6BufferE,comdat
	.align 4
.LLSDA950:
	.byte	0xff
	.byte	0x9b
	.uleb128 .LLSDATT950-.LLSDATTD950
.LLSDATTD950:
	.byte	0x1
	.uleb128 .LLSDACSE950-.LLSDACSB950
.LLSDACSB950:
	.uleb128 .LEHB38-.LFB950
	.uleb128 .LEHE38-.LEHB38
	.uleb128 .L323-.LFB950
	.uleb128 0x1
	.uleb128 .LEHB39-.LFB950
	.uleb128 .LEHE39-.LEHB39
	.uleb128 0
	.uleb128 0
.LLSDACSE950:
	.byte	0x7f
	.byte	0
	.align 4
.LLSDATT950:
	.byte	0
	.section	.text._ZN5decaf9SpongeRng4readERNS_6BufferE,"axG",@progbits,_ZN5decaf9SpongeRng4readERNS_6BufferE,comdat
	.size	_ZN5decaf9SpongeRng4readERNS_6BufferE, .-_ZN5decaf9SpongeRng4readERNS_6BufferE
	.section	.text.unlikely._ZN5decaf9SpongeRng4readERNS_6BufferE,"axG",@progbits,_ZN5decaf9SpongeRng4readERNS_6BufferE,comdat
.LCOLDE34:
	.section	.text._ZN5decaf9SpongeRng4readERNS_6BufferE,"axG",@progbits,_ZN5decaf9SpongeRng4readERNS_6BufferE,comdat
.LHOTE34:
	.section	.text.unlikely._ZN5decaf5Ed4486ScalarC2ERNS_9SpongeRngE,"axG",@progbits,_ZN5decaf5Ed4486ScalarC5ERNS_9SpongeRngE,comdat
	.align 2
.LCOLDB35:
	.section	.text._ZN5decaf5Ed4486ScalarC2ERNS_9SpongeRngE,"axG",@progbits,_ZN5decaf5Ed4486ScalarC5ERNS_9SpongeRngE,comdat
.LHOTB35:
	.align 2
	.p2align 4,,15
	.weak	_ZN5decaf5Ed4486ScalarC2ERNS_9SpongeRngE
	.hidden	_ZN5decaf5Ed4486ScalarC2ERNS_9SpongeRngE
	.type	_ZN5decaf5Ed4486ScalarC2ERNS_9SpongeRngE, @function
_ZN5decaf5Ed4486ScalarC2ERNS_9SpongeRngE:
.LFB954:
	.cfi_startproc
	.cfi_personality 0x9b,DW.ref.__gxx_personality_v0
	.cfi_lsda 0x1b,.LLSDA954
	pushq	%r12
	.cfi_def_cfa_offset 16
	.cfi_offset 12, -16
	pushq	%rbp
	.cfi_def_cfa_offset 24
	.cfi_offset 6, -24
	movq	%rdi, %rbp
	pushq	%rbx
	.cfi_def_cfa_offset 32
	.cfi_offset 3, -32
	movl	$56, %edi
	movq	%rsi, %r12
.LEHB40:
	call	_Znam@PLT
.LEHE40:
	leaq	8(%rax), %rdi
	movq	%rax, %rcx
	movq	%rax, %rbx
	movq	$0, (%rax)
	movq	$0, 48(%rax)
	xorl	%eax, %eax
	andq	$-8, %rdi
	movl	$56, %edx
	movq	%rbx, %rsi
	subq	%rdi, %rcx
	addl	$56, %ecx
	shrl	$3, %ecx
	rep stosq
	movq	%r12, %rdi
.LEHB41:
	call	spongerng_next@PLT
.LEHE41:
	movl	$56, %edx
	movq	%rbx, %rsi
	movq	%rbp, %rdi
.LEHB42:
	call	decaf_448_scalar_decode_long@PLT
.LEHE42:
	movl	$56, %esi
	movq	%rbx, %rdi
.LEHB43:
	call	decaf_bzero@PLT
.LEHE43:
	movq	%rbx, %rdi
	popq	%rbx
	.cfi_remember_state
	.cfi_def_cfa_offset 24
	popq	%rbp
	.cfi_def_cfa_offset 16
	popq	%r12
	.cfi_def_cfa_offset 8
	jmp	_ZdaPv@PLT
.L342:
	.cfi_restore_state
	movq	%rax, %rdi
	jmp	.L332
.L344:
.L354:
	movq	%rax, %rdi
	jmp	.L334
.L332:
	cmpq	$-2, %rdx
	je	.L357
.L334:
	addq	$1, %rdx
	je	.L340
	vzeroupper
.LEHB44:
	call	_Unwind_Resume@PLT
.LEHE44:
.L357:
	vzeroupper
.LEHB45:
	call	__cxa_call_unexpected@PLT
.LEHE45:
.L340:
	vzeroupper
.LEHB46:
	call	__cxa_call_unexpected@PLT
.LEHE46:
.L341:
	jmp	.L354
.L345:
	jmp	.L354
.L343:
	jmp	.L354
	.cfi_endproc
.LFE954:
	.section	.gcc_except_table._ZN5decaf5Ed4486ScalarC2ERNS_9SpongeRngE,"aG",@progbits,_ZN5decaf5Ed4486ScalarC5ERNS_9SpongeRngE,comdat
	.align 4
.LLSDA954:
	.byte	0xff
	.byte	0x9b
	.uleb128 .LLSDATT954-.LLSDATTD954
.LLSDATTD954:
	.byte	0x1
	.uleb128 .LLSDACSE954-.LLSDACSB954
.LLSDACSB954:
	.uleb128 .LEHB40-.LFB954
	.uleb128 .LEHE40-.LEHB40
	.uleb128 .L342-.LFB954
	.uleb128 0x3
	.uleb128 .LEHB41-.LFB954
	.uleb128 .LEHE41-.LEHB41
	.uleb128 .L343-.LFB954
	.uleb128 0x1
	.uleb128 .LEHB42-.LFB954
	.uleb128 .LEHE42-.LEHB42
	.uleb128 .L345-.LFB954
	.uleb128 0x1
	.uleb128 .LEHB43-.LFB954
	.uleb128 .LEHE43-.LEHB43
	.uleb128 .L344-.LFB954
	.uleb128 0x1
	.uleb128 .LEHB44-.LFB954
	.uleb128 .LEHE44-.LEHB44
	.uleb128 0
	.uleb128 0
	.uleb128 .LEHB45-.LFB954
	.uleb128 .LEHE45-.LEHB45
	.uleb128 .L341-.LFB954
	.uleb128 0x1
	.uleb128 .LEHB46-.LFB954
	.uleb128 .LEHE46-.LEHB46
	.uleb128 0
	.uleb128 0
.LLSDACSE954:
	.byte	0x7f
	.byte	0
	.byte	0x7e
	.byte	0x7d
	.align 4
	.long	DW.ref._ZTISt9bad_alloc-.
.LLSDATT954:
	.byte	0
	.byte	0x1
	.byte	0
	.section	.text._ZN5decaf5Ed4486ScalarC2ERNS_9SpongeRngE,"axG",@progbits,_ZN5decaf5Ed4486ScalarC5ERNS_9SpongeRngE,comdat
	.size	_ZN5decaf5Ed4486ScalarC2ERNS_9SpongeRngE, .-_ZN5decaf5Ed4486ScalarC2ERNS_9SpongeRngE
	.section	.text.unlikely._ZN5decaf5Ed4486ScalarC2ERNS_9SpongeRngE,"axG",@progbits,_ZN5decaf5Ed4486ScalarC5ERNS_9SpongeRngE,comdat
.LCOLDE35:
	.section	.text._ZN5decaf5Ed4486ScalarC2ERNS_9SpongeRngE,"axG",@progbits,_ZN5decaf5Ed4486ScalarC5ERNS_9SpongeRngE,comdat
.LHOTE35:
	.weak	_ZN5decaf5Ed4486ScalarC1ERNS_9SpongeRngE
	.hidden	_ZN5decaf5Ed4486ScalarC1ERNS_9SpongeRngE
	.set	_ZN5decaf5Ed4486ScalarC1ERNS_9SpongeRngE,_ZN5decaf5Ed4486ScalarC2ERNS_9SpongeRngE
	.section	.text.unlikely._Z13base64_encodeB5cxx11PKhj,"ax",@progbits
.LCOLDB36:
	.section	.text._Z13base64_encodeB5cxx11PKhj,"ax",@progbits
.LHOTB36:
	.p2align 4,,15
	.globl	_Z13base64_encodeB5cxx11PKhj
	.hidden	_Z13base64_encodeB5cxx11PKhj
	.type	_Z13base64_encodeB5cxx11PKhj, @function
_Z13base64_encodeB5cxx11PKhj:
.LFB1816:
	.cfi_startproc
	.cfi_personality 0x9b,DW.ref.__gxx_personality_v0
	.cfi_lsda 0x1b,.LLSDA1816
	pushq	%r15
	.cfi_def_cfa_offset 16
	.cfi_offset 15, -16
	pushq	%r14
	.cfi_def_cfa_offset 24
	.cfi_offset 14, -24
	xorl	%r14d, %r14d
	pushq	%r13
	.cfi_def_cfa_offset 32
	.cfi_offset 13, -32
	pushq	%r12
	.cfi_def_cfa_offset 40
	.cfi_offset 12, -40
	leaq	16(%rdi), %r12
	pushq	%rbp
	.cfi_def_cfa_offset 48
	.cfi_offset 6, -48
	pushq	%rbx
	.cfi_def_cfa_offset 56
	.cfi_offset 3, -56
	movl	%edx, %r13d
	movq	%rdi, %rbx
	movq	%rsi, %rbp
	addq	%rsi, %r13
	subq	$40, %rsp
	.cfi_def_cfa_offset 96
	movq	%r12, (%rdi)
	movq	$0, 8(%rdi)
	movq	%fs:40, %rax
	movq	%rax, 24(%rsp)
	xorl	%eax, %eax
	movb	$0, 16(%rdi)
	jmp	.L359
	.p2align 4,,10
	.p2align 3
.L361:
	movslq	%eax, %r14
.L359:
	cmpq	%r13, %rbp
	je	.L360
	addq	$1, %rbp
	movzbl	-1(%rbp), %edx
	leal	1(%r14), %eax
	cmpl	$3, %eax
	movb	%dl, 16(%rsp,%r14)
	jne	.L361
	movzbl	16(%rsp), %eax
	movzbl	17(%rsp), %edx
	movq	8(%rbx), %r14
	movl	%eax, %ecx
	movl	%edx, %esi
	andl	$15, %edx
	andl	$3, %ecx
	shrb	$4, %sil
	shrb	$2, %al
	sall	$4, %ecx
	movzbl	%al, %eax
	leaq	1(%r14), %r15
	leal	(%rcx,%rsi), %edi
	movzbl	18(%rsp), %ecx
	movb	%dil, 12(%rsp)
	movl	%ecx, %esi
	andl	$63, %ecx
	shrb	$6, %sil
	movb	%cl, 14(%rsp)
	leal	(%rsi,%rdx,4), %edi
	movq	_ZL12base64_chars(%rip), %rdx
	movb	%dil, 13(%rsp)
	movzbl	(%rdx,%rax), %eax
	movb	%al, 15(%rsp)
	movq	(%rbx), %rax
	cmpq	%rax, %r12
	je	.L394
	movq	16(%rbx), %rdx
.L362:
	cmpq	%rdx, %r15
	ja	.L412
.L363:
	movzbl	15(%rsp), %edi
	movb	%dil, (%rax,%r14)
	movq	(%rbx), %rax
	movq	%r15, 8(%rbx)
	movb	$0, 1(%rax,%r14)
	movzbl	12(%rsp), %eax
	movq	_ZL12base64_chars(%rip), %rdx
	movq	8(%rbx), %r14
	movzbl	(%rdx,%rax), %eax
	leaq	1(%r14), %r15
	movb	%al, 12(%rsp)
	movq	(%rbx), %rax
	cmpq	%rax, %r12
	je	.L395
	movq	16(%rbx), %rdx
.L364:
	cmpq	%rdx, %r15
	ja	.L413
.L365:
	movzbl	12(%rsp), %edi
	movb	%dil, (%rax,%r14)
	movq	(%rbx), %rax
	movq	%r15, 8(%rbx)
	movb	$0, 1(%rax,%r14)
	movzbl	13(%rsp), %eax
	movq	_ZL12base64_chars(%rip), %rdx
	movq	8(%rbx), %r14
	movzbl	(%rdx,%rax), %eax
	leaq	1(%r14), %r15
	movb	%al, 12(%rsp)
	movq	(%rbx), %rax
	cmpq	%rax, %r12
	je	.L396
	movq	16(%rbx), %rdx
.L366:
	cmpq	%rdx, %r15
	ja	.L414
.L367:
	movzbl	12(%rsp), %edi
	movb	%dil, (%rax,%r14)
	movq	(%rbx), %rax
	movq	%r15, 8(%rbx)
	movb	$0, 1(%rax,%r14)
	movzbl	14(%rsp), %eax
	movq	_ZL12base64_chars(%rip), %rdx
	movq	8(%rbx), %r14
	movzbl	(%rdx,%rax), %eax
	leaq	1(%r14), %r15
	movb	%al, 12(%rsp)
	movq	(%rbx), %rax
	cmpq	%rax, %r12
	je	.L397
	movq	16(%rbx), %rdx
.L368:
	cmpq	%rdx, %r15
	ja	.L415
.L369:
	movzbl	12(%rsp), %edi
	movb	%dil, (%rax,%r14)
	movq	(%rbx), %rax
	movq	%r15, 8(%rbx)
	movb	$0, 1(%rax,%r14)
	xorl	%eax, %eax
	jmp	.L361
	.p2align 4,,10
	.p2align 3
.L412:
	movl	$1, %r8d
	xorl	%ecx, %ecx
	xorl	%edx, %edx
	movq	%r14, %rsi
	movq	%rbx, %rdi
.LEHB47:
	call	_ZNSt7__cxx1112basic_stringIcSt11char_traitsIcESaIcEE9_M_mutateEmmPKcm@PLT
	movq	(%rbx), %rax
	jmp	.L363
	.p2align 4,,10
	.p2align 3
.L415:
	movl	$1, %r8d
	xorl	%ecx, %ecx
	xorl	%edx, %edx
	movq	%r14, %rsi
	movq	%rbx, %rdi
	call	_ZNSt7__cxx1112basic_stringIcSt11char_traitsIcESaIcEE9_M_mutateEmmPKcm@PLT
	movq	(%rbx), %rax
	jmp	.L369
	.p2align 4,,10
	.p2align 3
.L414:
	movl	$1, %r8d
	xorl	%ecx, %ecx
	xorl	%edx, %edx
	movq	%r14, %rsi
	movq	%rbx, %rdi
	call	_ZNSt7__cxx1112basic_stringIcSt11char_traitsIcESaIcEE9_M_mutateEmmPKcm@PLT
	movq	(%rbx), %rax
	jmp	.L367
	.p2align 4,,10
	.p2align 3
.L413:
	movl	$1, %r8d
	xorl	%ecx, %ecx
	xorl	%edx, %edx
	movq	%r14, %rsi
	movq	%rbx, %rdi
	call	_ZNSt7__cxx1112basic_stringIcSt11char_traitsIcESaIcEE9_M_mutateEmmPKcm@PLT
	movq	(%rbx), %rax
	jmp	.L365
	.p2align 4,,10
	.p2align 3
.L360:
	testl	%r14d, %r14d
	je	.L358
	cmpl	$2, %r14d
	jg	.L383
	movl	$2, %eax
	movslq	%r14d, %rdx
	subl	%r14d, %eax
	leaq	16(%rsp,%rdx), %rdx
	addq	$1, %rax
	testl	%eax, %eax
	movl	%eax, %ecx
	je	.L383
	xorl	%eax, %eax
.L381:
	movl	%eax, %esi
	addl	$1, %eax
	cmpl	%ecx, %eax
	movb	$0, (%rdx,%rsi)
	jb	.L381
.L383:
	movzbl	16(%rsp), %eax
	movzbl	17(%rsp), %edx
	movq	8(%rbx), %rbp
	movl	%eax, %ecx
	movl	%edx, %esi
	andl	$15, %edx
	andl	$3, %ecx
	shrb	$4, %sil
	shrb	$2, %al
	sall	$4, %ecx
	movzbl	%al, %eax
	leaq	1(%rbp), %r13
	addl	%ecx, %esi
	movzbl	18(%rsp), %ecx
	movb	%sil, 12(%rsp)
	movl	%ecx, %esi
	andl	$63, %ecx
	shrb	$6, %sil
	movb	%cl, 14(%rsp)
	leal	(%rsi,%rdx,4), %esi
	movq	_ZL12base64_chars(%rip), %rdx
	movb	%sil, 13(%rsp)
	movzbl	(%rdx,%rax), %r15d
	movq	(%rbx), %rax
	cmpq	%r12, %rax
	je	.L398
	movq	16(%rbx), %rdx
.L372:
	cmpq	%r13, %rdx
	jb	.L416
.L373:
	movb	%r15b, (%rax,%rbp)
	movq	(%rbx), %rax
	movq	%r13, 8(%rbx)
	movb	$0, 1(%rax,%rbp)
	movzbl	12(%rsp), %eax
	movq	_ZL12base64_chars(%rip), %rdx
	movq	8(%rbx), %rbp
	movzbl	(%rdx,%rax), %r15d
	movq	(%rbx), %rax
	leaq	1(%rbp), %r13
	cmpq	%rax, %r12
	je	.L399
	movq	16(%rbx), %rdx
.L374:
	cmpq	%rdx, %r13
	ja	.L417
.L375:
	movb	%r15b, (%rax,%rbp)
	movq	(%rbx), %rax
	cmpl	$1, %r14d
	movq	%r13, 8(%rbx)
	movb	$0, 1(%rax,%rbp)
	je	.L376
	movzbl	13(%rsp), %eax
	movq	_ZL12base64_chars(%rip), %rdx
	movq	8(%rbx), %rbp
	movzbl	(%rdx,%rax), %r15d
	movq	(%rbx), %rax
	leaq	1(%rbp), %r13
	cmpq	%rax, %r12
	je	.L400
	movq	16(%rbx), %rdx
.L377:
	cmpq	%rdx, %r13
	ja	.L418
.L378:
	movb	%r15b, (%rax,%rbp)
	movq	(%rbx), %rax
	cmpl	$2, %r14d
	movq	%r13, 8(%rbx)
	movb	$0, 1(%rax,%rbp)
	je	.L419
	movzbl	14(%rsp), %eax
	movq	_ZL12base64_chars(%rip), %rdx
	movq	8(%rbx), %rbp
	movzbl	(%rdx,%rax), %r14d
	movq	(%rbx), %rax
	leaq	1(%rbp), %r13
	cmpq	%rax, %r12
	je	.L402
	movq	16(%rbx), %rdx
.L384:
	cmpq	%rdx, %r13
	ja	.L420
.L385:
	movb	%r14b, (%rax,%rbp)
	movq	(%rbx), %rax
	movq	%r13, 8(%rbx)
	movb	$0, 1(%rax,%rbp)
.L358:
	movq	24(%rsp), %rsi
	xorq	%fs:40, %rsi
	movq	%rbx, %rax
	jne	.L421
	addq	$40, %rsp
	.cfi_remember_state
	.cfi_def_cfa_offset 56
	popq	%rbx
	.cfi_def_cfa_offset 48
	popq	%rbp
	.cfi_def_cfa_offset 40
	popq	%r12
	.cfi_def_cfa_offset 32
	popq	%r13
	.cfi_def_cfa_offset 24
	popq	%r14
	.cfi_def_cfa_offset 16
	popq	%r15
	.cfi_def_cfa_offset 8
	ret
	.p2align 4,,10
	.p2align 3
.L395:
	.cfi_restore_state
	movl	$15, %edx
	jmp	.L364
	.p2align 4,,10
	.p2align 3
.L394:
	movl	$15, %edx
	jmp	.L362
	.p2align 4,,10
	.p2align 3
.L397:
	movl	$15, %edx
	jmp	.L368
	.p2align 4,,10
	.p2align 3
.L396:
	movl	$15, %edx
	jmp	.L366
	.p2align 4,,10
	.p2align 3
.L420:
	movl	$1, %r8d
	xorl	%ecx, %ecx
	xorl	%edx, %edx
	movq	%rbp, %rsi
	movq	%rbx, %rdi
	call	_ZNSt7__cxx1112basic_stringIcSt11char_traitsIcESaIcEE9_M_mutateEmmPKcm@PLT
	movq	(%rbx), %rax
	jmp	.L385
	.p2align 4,,10
	.p2align 3
.L418:
	movl	$1, %r8d
	xorl	%ecx, %ecx
	xorl	%edx, %edx
	movq	%rbp, %rsi
	movq	%rbx, %rdi
	call	_ZNSt7__cxx1112basic_stringIcSt11char_traitsIcESaIcEE9_M_mutateEmmPKcm@PLT
	movq	(%rbx), %rax
	jmp	.L378
	.p2align 4,,10
	.p2align 3
.L417:
	movl	$1, %r8d
	xorl	%ecx, %ecx
	xorl	%edx, %edx
	movq	%rbp, %rsi
	movq	%rbx, %rdi
	call	_ZNSt7__cxx1112basic_stringIcSt11char_traitsIcESaIcEE9_M_mutateEmmPKcm@PLT
	movq	(%rbx), %rax
	jmp	.L375
	.p2align 4,,10
	.p2align 3
.L416:
	movl	$1, %r8d
	xorl	%ecx, %ecx
	xorl	%edx, %edx
	movq	%rbp, %rsi
	movq	%rbx, %rdi
	call	_ZNSt7__cxx1112basic_stringIcSt11char_traitsIcESaIcEE9_M_mutateEmmPKcm@PLT
	movq	(%rbx), %rax
	jmp	.L373
.L399:
	movl	$15, %edx
	jmp	.L374
.L400:
	movl	$15, %edx
	jmp	.L377
.L402:
	movl	$15, %edx
	jmp	.L384
.L398:
	movl	$15, %edx
	jmp	.L372
.L419:
	movl	$3, %r14d
.L379:
	movq	(%rbx), %rax
	movq	8(%rbx), %rbp
	cmpq	%rax, %r12
	leaq	1(%rbp), %r13
	je	.L403
	movq	16(%rbx), %rdx
.L387:
	cmpq	%rdx, %r13
	ja	.L422
.L388:
	movb	$61, (%rax,%rbp)
	movq	(%rbx), %rax
	cmpl	$2, %r14d
	movq	%r13, 8(%rbx)
	movb	$0, 1(%rax,%rbp)
	jne	.L358
	movq	(%rbx), %rax
	movq	8(%rbx), %rbp
	cmpq	%rax, %r12
	leaq	1(%rbp), %r13
	je	.L404
	movq	16(%rbx), %rdx
.L389:
	cmpq	%r13, %rdx
	jb	.L423
.L390:
	movb	$61, (%rax,%rbp)
	movq	(%rbx), %rax
	movq	%r13, 8(%rbx)
	movb	$0, 1(%rax,%rbp)
	jmp	.L358
	.p2align 4,,10
	.p2align 3
.L422:
	movl	$1, %r8d
	xorl	%ecx, %ecx
	xorl	%edx, %edx
	movq	%rbp, %rsi
	movq	%rbx, %rdi
	call	_ZNSt7__cxx1112basic_stringIcSt11char_traitsIcESaIcEE9_M_mutateEmmPKcm@PLT
	movq	(%rbx), %rax
	jmp	.L388
	.p2align 4,,10
	.p2align 3
.L423:
	movl	$1, %r8d
	xorl	%ecx, %ecx
	xorl	%edx, %edx
	movq	%rbp, %rsi
	movq	%rbx, %rdi
	call	_ZNSt7__cxx1112basic_stringIcSt11char_traitsIcESaIcEE9_M_mutateEmmPKcm@PLT
.LEHE47:
	movq	(%rbx), %rax
	jmp	.L390
.L404:
	movl	$15, %edx
	jmp	.L389
.L403:
	movl	$15, %edx
	jmp	.L387
.L376:
	movl	$2, %r14d
	jmp	.L379
.L405:
	movq	(%rbx), %rdi
	movq	%rax, %rbp
	cmpq	%rdi, %r12
	je	.L408
	vzeroupper
	call	_ZdlPv@PLT
.L392:
	movq	%rbp, %rdi
.LEHB48:
	call	_Unwind_Resume@PLT
.LEHE48:
.L421:
	call	__stack_chk_fail@PLT
.L408:
	vzeroupper
	jmp	.L392
	.cfi_endproc
.LFE1816:
	.section	.gcc_except_table._Z13base64_encodeB5cxx11PKhj,"a",@progbits
.LLSDA1816:
	.byte	0xff
	.byte	0xff
	.byte	0x1
	.uleb128 .LLSDACSE1816-.LLSDACSB1816
.LLSDACSB1816:
	.uleb128 .LEHB47-.LFB1816
	.uleb128 .LEHE47-.LEHB47
	.uleb128 .L405-.LFB1816
	.uleb128 0
	.uleb128 .LEHB48-.LFB1816
	.uleb128 .LEHE48-.LEHB48
	.uleb128 0
	.uleb128 0
.LLSDACSE1816:
	.section	.text._Z13base64_encodeB5cxx11PKhj
	.size	_Z13base64_encodeB5cxx11PKhj, .-_Z13base64_encodeB5cxx11PKhj
	.section	.text.unlikely._Z13base64_encodeB5cxx11PKhj
.LCOLDE36:
	.section	.text._Z13base64_encodeB5cxx11PKhj
.LHOTE36:
	.section	.text.unlikely._Z13base64_decodeRKNSt7__cxx1112basic_stringIcSt11char_traitsIcESaIcEEEPh,"ax",@progbits
.LCOLDB37:
	.section	.text._Z13base64_decodeRKNSt7__cxx1112basic_stringIcSt11char_traitsIcESaIcEEEPh,"ax",@progbits
.LHOTB37:
	.p2align 4,,15
	.globl	_Z13base64_decodeRKNSt7__cxx1112basic_stringIcSt11char_traitsIcESaIcEEEPh
	.hidden	_Z13base64_decodeRKNSt7__cxx1112basic_stringIcSt11char_traitsIcESaIcEEEPh
	.type	_Z13base64_decodeRKNSt7__cxx1112basic_stringIcSt11char_traitsIcESaIcEEEPh, @function
_Z13base64_decodeRKNSt7__cxx1112basic_stringIcSt11char_traitsIcESaIcEEEPh:
.LFB1817:
	.cfi_startproc
	pushq	%r15
	.cfi_def_cfa_offset 16
	.cfi_offset 15, -16
	pushq	%r14
	.cfi_def_cfa_offset 24
	.cfi_offset 14, -24
	movq	%rsi, %r15
	pushq	%r13
	.cfi_def_cfa_offset 32
	.cfi_offset 13, -32
	pushq	%r12
	.cfi_def_cfa_offset 40
	.cfi_offset 12, -40
	movq	%rdi, %r14
	pushq	%rbp
	.cfi_def_cfa_offset 48
	.cfi_offset 6, -48
	pushq	%rbx
	.cfi_def_cfa_offset 56
	.cfi_offset 3, -56
	xorl	%ebp, %ebp
	xorl	%ebx, %ebx
	xorl	%r12d, %r12d
	subq	$40, %rsp
	.cfi_def_cfa_offset 96
	movq	%fs:40, %rax
	movq	%rax, 24(%rsp)
	xorl	%eax, %eax
	movl	8(%rdi), %eax
	movq	%rax, (%rsp)
	leaq	16(%rsp), %rax
	movq	%rax, 8(%rsp)
	jmp	.L425
	.p2align 4,,10
	.p2align 3
.L428:
	addq	$1, %rbx
	movslq	%eax, %r12
.L425:
	cmpq	%rbx, (%rsp)
	je	.L426
	movq	(%r14), %rax
	movzbl	(%rax,%rbx), %r13d
	cmpb	$61, %r13b
	je	.L426
	movzbl	%r13b, %edi
	call	isalnum@PLT
	testl	%eax, %eax
	jne	.L427
	movl	%r13d, %eax
	andl	$-5, %eax
	cmpb	$43, %al
	jne	.L426
.L427:
	leal	1(%r12), %eax
	movb	%r13b, 16(%rsp,%r12)
	cmpl	$4, %eax
	jne	.L428
	movq	8(%rsp), %rax
	leaq	4(%rax), %r12
	movq	%rax, %r13
.L429:
	movsbl	0(%r13), %esi
	leaq	_ZL12base64_chars(%rip), %rdi
	xorl	%edx, %edx
	addq	$1, %r13
	call	_ZNKSt7__cxx1112basic_stringIcSt11char_traitsIcESaIcEE4findEcm@PLT
	movb	%al, -1(%r13)
	cmpq	%r12, %r13
	jne	.L429
	movzbl	17(%rsp), %ecx
	movzbl	18(%rsp), %eax
	movl	%ebp, %r8d
	movl	%ecx, %edx
	movl	%eax, %esi
	andl	$60, %eax
	andl	$48, %edx
	sarl	$2, %eax
	sall	$4, %ecx
	movl	%edx, %edi
	movzbl	16(%rsp), %edx
	leal	(%rcx,%rax), %eax
	sarl	$4, %edi
	sall	$6, %esi
	addb	19(%rsp), %sil
	leal	(%rdi,%rdx,4), %edx
	leal	1(%rbp), %edi
	movb	%dl, (%r15,%r8)
	movb	%al, (%r15,%rdi)
	leal	2(%rbp), %eax
	addl	$3, %ebp
	movb	%sil, (%r15,%rax)
	xorl	%eax, %eax
	jmp	.L428
	.p2align 4,,10
	.p2align 3
.L426:
	testl	%r12d, %r12d
	je	.L424
	cmpl	$3, %r12d
	jg	.L455
	movl	$3, %eax
	leaq	16(%rsp), %rbx
	movslq	%r12d, %rdx
	subl	%r12d, %eax
	addq	$1, %rax
	addq	%rbx, %rdx
	testl	%eax, %eax
	movl	%eax, %ecx
	je	.L435
	xorl	%eax, %eax
.L433:
	movl	%eax, %esi
	addl	$1, %eax
	cmpl	%ecx, %eax
	movb	$0, (%rdx,%rsi)
	jb	.L433
.L435:
	leaq	4(%rbx), %r13
.L432:
	movsbl	(%rbx), %esi
	leaq	_ZL12base64_chars(%rip), %rdi
	xorl	%edx, %edx
	addq	$1, %rbx
	call	_ZNKSt7__cxx1112basic_stringIcSt11char_traitsIcESaIcEE4findEcm@PLT
	movb	%al, -1(%rbx)
	cmpq	%r13, %rbx
	jne	.L432
	movzbl	17(%rsp), %ecx
	movzbl	16(%rsp), %edx
	movl	%ecx, %eax
	sall	$4, %ecx
	andl	$48, %eax
	sarl	$4, %eax
	leal	(%rax,%rdx,4), %esi
	movzbl	18(%rsp), %eax
	movl	%eax, %edx
	sall	$6, %eax
	addb	19(%rsp), %al
	andl	$60, %edx
	sarl	$2, %edx
	addl	%ecx, %edx
	subl	$1, %r12d
	je	.L424
	movl	%ebp, %ecx
	cmpl	$1, %r12d
	movb	%sil, (%r15,%rcx)
	leal	1(%rbp), %ecx
	je	.L424
	addl	$2, %ebp
	cmpl	$2, %r12d
	movb	%dl, (%r15,%rcx)
	je	.L424
	movb	%al, (%r15,%rbp)
	.p2align 4,,10
	.p2align 3
.L424:
	movq	24(%rsp), %rax
	xorq	%fs:40, %rax
	jne	.L456
	addq	$40, %rsp
	.cfi_remember_state
	.cfi_def_cfa_offset 56
	popq	%rbx
	.cfi_def_cfa_offset 48
	popq	%rbp
	.cfi_def_cfa_offset 40
	popq	%r12
	.cfi_def_cfa_offset 32
	popq	%r13
	.cfi_def_cfa_offset 24
	popq	%r14
	.cfi_def_cfa_offset 16
	popq	%r15
	.cfi_def_cfa_offset 8
	ret
	.p2align 4,,10
	.p2align 3
.L455:
	.cfi_restore_state
	leaq	16(%rsp), %rbx
	jmp	.L435
.L456:
	call	__stack_chk_fail@PLT
	.cfi_endproc
.LFE1817:
	.size	_Z13base64_decodeRKNSt7__cxx1112basic_stringIcSt11char_traitsIcESaIcEEEPh, .-_Z13base64_decodeRKNSt7__cxx1112basic_stringIcSt11char_traitsIcESaIcEEEPh
	.section	.text.unlikely._Z13base64_decodeRKNSt7__cxx1112basic_stringIcSt11char_traitsIcESaIcEEEPh
.LCOLDE37:
	.section	.text._Z13base64_decodeRKNSt7__cxx1112basic_stringIcSt11char_traitsIcESaIcEEEPh
.LHOTE37:
	.section	.text.unlikely._Z10gen_randomPci,"ax",@progbits
.LCOLDB38:
	.section	.text._Z10gen_randomPci,"ax",@progbits
.LHOTB38:
	.p2align 4,,15
	.globl	_Z10gen_randomPci
	.hidden	_Z10gen_randomPci
	.type	_Z10gen_randomPci, @function
_Z10gen_randomPci:
.LFB1819:
	.cfi_startproc
	pushq	%r15
	.cfi_def_cfa_offset 16
	.cfi_offset 15, -16
	pushq	%r14
	.cfi_def_cfa_offset 24
	.cfi_offset 14, -24
	pushq	%r13
	.cfi_def_cfa_offset 32
	.cfi_offset 13, -32
	pushq	%r12
	.cfi_def_cfa_offset 40
	.cfi_offset 12, -40
	movq	%rdi, %r13
	pushq	%rbp
	.cfi_def_cfa_offset 48
	.cfi_offset 6, -48
	pushq	%rbx
	.cfi_def_cfa_offset 56
	.cfi_offset 3, -56
	xorl	%edi, %edi
	movslq	%esi, %r12
	subq	$8, %rsp
	.cfi_def_cfa_offset 64
	call	time@PLT
	movl	%eax, %edi
	call	srand@PLT
	cmpl	$1, %r12d
	jle	.L459
	leal	-2(%r12), %eax
	leaq	_ZZ10gen_randomPciE8alphanum(%rip), %r15
	movq	%r13, %r14
	movabsq	$-8925843906633654007, %rbx
	leaq	1(%r13,%rax), %rbp
	.p2align 4,,10
	.p2align 3
.L460:
	call	rand@PLT
	movslq	%eax, %rcx
	addq	$1, %r14
	movq	%rcx, %rdx
	shrq	%rdx
	movq	%rdx, %rax
	mulq	%rbx
	shrq	$4, %rdx
	movq	%rdx, %rsi
	leaq	(%rcx,%rdx,2), %rax
	salq	$6, %rsi
	subq	%rsi, %rax
	movzbl	(%r15,%rax), %eax
	movb	%al, -1(%r14)
	cmpq	%rbp, %r14
	jne	.L460
.L459:
	movb	$0, -1(%r13,%r12)
	addq	$8, %rsp
	.cfi_def_cfa_offset 56
	popq	%rbx
	.cfi_def_cfa_offset 48
	popq	%rbp
	.cfi_def_cfa_offset 40
	popq	%r12
	.cfi_def_cfa_offset 32
	popq	%r13
	.cfi_def_cfa_offset 24
	popq	%r14
	.cfi_def_cfa_offset 16
	popq	%r15
	.cfi_def_cfa_offset 8
	ret
	.cfi_endproc
.LFE1819:
	.size	_Z10gen_randomPci, .-_Z10gen_randomPci
	.section	.text.unlikely._Z10gen_randomPci
.LCOLDE38:
	.section	.text._Z10gen_randomPci
.LHOTE38:
	.section	.text.unlikely._Z7encryptRN5decaf5Ed4485PointERKNS_5BlockERKNS0_6ScalarES8_i,"ax",@progbits
.LCOLDB39:
	.section	.text._Z7encryptRN5decaf5Ed4485PointERKNS_5BlockERKNS0_6ScalarES8_i,"ax",@progbits
.LHOTB39:
	.p2align 4,,15
	.globl	_Z7encryptRN5decaf5Ed4485PointERKNS_5BlockERKNS0_6ScalarES8_i
	.hidden	_Z7encryptRN5decaf5Ed4485PointERKNS_5BlockERKNS0_6ScalarES8_i
	.type	_Z7encryptRN5decaf5Ed4485PointERKNS_5BlockERKNS0_6ScalarES8_i, @function
_Z7encryptRN5decaf5Ed4485PointERKNS_5BlockERKNS0_6ScalarES8_i:
.LFB1820:
	.cfi_startproc
	.cfi_personality 0x9b,DW.ref.__gxx_personality_v0
	.cfi_lsda 0x1b,.LLSDA1820
	leaq	8(%rsp), %r10
	.cfi_def_cfa 10, 0
	andq	$-32, %rsp
	pushq	-8(%r10)
	pushq	%rbp
	.cfi_escape 0x10,0x6,0x2,0x76,0
	movq	%rsp, %rbp
	pushq	%r15
	pushq	%r14
	pushq	%r13
	pushq	%r12
	.cfi_escape 0x10,0xf,0x2,0x76,0x78
	.cfi_escape 0x10,0xe,0x2,0x76,0x70
	.cfi_escape 0x10,0xd,0x2,0x76,0x68
	.cfi_escape 0x10,0xc,0x2,0x76,0x60
	leaq	-336(%rbp), %r12
	pushq	%r10
	.cfi_escape 0xf,0x3,0x76,0x58,0x6
	pushq	%rbx
	leaq	-1376(%rbp), %r14
	.cfi_escape 0x10,0x3,0x2,0x76,0x50
	movq	%rcx, %rbx
	movq	%rsi, %r15
	movl	%r8d, %esi
	subq	$1408, %rsp
	movq	%rdi, -1440(%rbp)
	movq	%r12, %rdi
	movq	%rdx, -1448(%rbp)
	movq	%fs:40, %rax
	movq	%rax, -56(%rbp)
	xorl	%eax, %eax
	call	_ZN5decaf5Ed4486ScalaraSEi
	movq	%r12, %rdx
	movq	%rbx, %rsi
	movq	%r14, %rdi
.LEHB49:
	call	decaf_448_scalar_add@PLT
.LEHE49:
	movq	%r12, %rdi
.LEHB50:
	call	decaf_448_scalar_destroy@PLT
.LEHE50:
	leaq	-1312(%rbp), %r13
	movq	SHAKE256_params_s@GOTPCREL(%rip), %rsi
	movq	%r13, %rdi
.LEHB51:
	call	sponge_init@PLT
.LEHE51:
	leaq	16+_ZTVN5decaf12SecureBufferE(%rip), %rax
	movl	$56, %edi
	movq	$0, -1400(%rbp)
	movq	$56, -1392(%rbp)
	movq	%rax, -1408(%rbp)
.LEHB52:
	call	_Znam@PLT
.LEHE52:
	leaq	8(%rax), %rdi
	movq	%rax, %rcx
	movq	%rax, -1400(%rbp)
	movq	%rax, %rdx
	movq	$0, (%rax)
	movq	$0, 48(%rax)
	andq	$-8, %rdi
	xorl	%eax, %eax
	movq	%r14, %rsi
	subq	%rdi, %rcx
	addl	$56, %ecx
	shrl	$3, %ecx
	rep stosq
	movq	%rdx, %rdi
.LEHB53:
	call	decaf_448_scalar_encode@PLT
.LEHE53:
	movq	-1392(%rbp), %rdx
	movq	-1400(%rbp), %rsi
	movq	%r13, %rdi
.LEHB54:
	call	sha3_update@PLT
.LEHE54:
	leaq	-1408(%rbp), %rbx
	leaq	16+_ZTVN5decaf12SecureBufferE(%rip), %rax
	leaq	8(%rbx), %rdi
	leaq	16(%rbx), %rsi
	movq	%rax, -1408(%rbp)
	call	_ZN5decaf12SecureBuffer5clearEv.isra.15
	leaq	16+_ZTVN5decaf12SecureBufferE(%rip), %rax
	movl	$56, %edi
	movq	$0, -1400(%rbp)
	movq	$56, -1392(%rbp)
	movq	%rax, -1408(%rbp)
.LEHB55:
	call	_Znam@PLT
.LEHE55:
	leaq	8(%rax), %rdi
	movq	%rax, %rcx
	movq	%rax, -1400(%rbp)
	movq	%rax, %rsi
	movq	$0, (%rax)
	movq	$0, 48(%rax)
	andq	$-8, %rdi
	xorl	%eax, %eax
	movl	$56, %edx
	subq	%rdi, %rcx
	addl	$56, %ecx
	shrl	$3, %ecx
	rep stosq
	movq	%r13, %rdi
.LEHB56:
	call	sha3_output@PLT
.LEHE56:
	leaq	-1104(%rbp), %rax
	movq	%rbx, %rsi
	movq	%rax, %rdi
	movq	%rax, -1424(%rbp)
	call	_ZN5decaf5Ed4485Point11set_to_hashERKNS_5BlockE
	movq	decaf_448_point_identity@GOTPCREL(%rip), %rsi
	leaq	-848(%rbp), %rdi
	movl	$32, %ecx
	rep movsq
	leaq	-848(%rbp), %rdx
	movq	%r15, %rsi
	leaq	-592(%rbp), %r15
	movq	%rdx, %rdi
	movq	%rdx, -1416(%rbp)
	call	_ZN5decaf5Ed4485Point11set_to_hashERKNS_5BlockE
	movq	-1448(%rbp), %rdx
	movq	-1424(%rbp), %rsi
	movq	%r15, %rdi
	movb	%al, -1425(%rbp)
.LEHB57:
	call	decaf_448_point_scalarmul@PLT
.LEHE57:
	movq	-1416(%rbp), %rsi
	movq	%r15, %rdx
	movq	%r12, %rdi
.LEHB58:
	call	decaf_448_point_add@PLT
.LEHE58:
	movl	$32, %ecx
	movq	-1440(%rbp), %rdi
	movq	%r12, %rsi
	rep movsq
	leaq	-336(%rbp), %rdi
.LEHB59:
	call	decaf_448_point_destroy@PLT
.LEHE59:
	movq	%r15, %rdi
.LEHB60:
	call	decaf_448_point_destroy@PLT
.LEHE60:
	movq	-1416(%rbp), %rdi
.LEHB61:
	call	decaf_448_point_destroy@PLT
.LEHE61:
	movq	-1424(%rbp), %rdi
.LEHB62:
	call	decaf_448_point_destroy@PLT
.LEHE62:
	leaq	16+_ZTVN5decaf12SecureBufferE(%rip), %rax
	leaq	8(%rbx), %rdi
	leaq	16(%rbx), %rsi
	movq	%rax, -1408(%rbp)
	call	_ZN5decaf12SecureBuffer5clearEv.isra.15
	movq	%r13, %rdi
.LEHB63:
	call	sponge_destroy@PLT
.LEHE63:
	movq	%r14, %rdi
.LEHB64:
	call	decaf_448_scalar_destroy@PLT
.LEHE64:
	movq	-56(%rbp), %rbx
	xorq	%fs:40, %rbx
	movzbl	-1425(%rbp), %eax
	jne	.L559
	addq	$1408, %rsp
	popq	%rbx
	popq	%r10
	.cfi_remember_state
	.cfi_def_cfa 10, 0
	popq	%r12
	popq	%r13
	popq	%r14
	popq	%r15
	popq	%rbp
	leaq	-8(%r10), %rsp
	.cfi_def_cfa 7, 8
	ret
.L559:
	.cfi_restore_state
	call	__stack_chk_fail@PLT
.L513:
.L540:
	addq	$1, %rdx
	movq	%rax, %rdi
	je	.L470
	vzeroupper
.L538:
.LEHB65:
	call	_Unwind_Resume@PLT
.L514:
	jmp	.L540
.L470:
	vzeroupper
.L536:
	call	__cxa_call_unexpected@PLT
.LEHE65:
.L515:
	jmp	.L540
.L516:
	jmp	.L540
.L517:
	jmp	.L540
.L518:
	jmp	.L540
.L519:
	movq	%rax, %rbx
	movq	%rdx, %r13
	movq	%r12, %rdi
	vzeroupper
	call	_ZN5decaf5Ed4485PointD1Ev
	addq	$1, %r13
	movq	%rbx, %rdi
	jne	.L538
	jmp	.L536
.L520:
	movq	%rax, %rbx
	movq	%rdx, %r12
	movq	%r15, %rdi
	vzeroupper
	call	_ZN5decaf5Ed4485PointD1Ev
	addq	$1, %r12
	movq	%rbx, %rdi
	jne	.L538
	jmp	.L536
.L512:
	movq	%rax, %r12
	leaq	16(%rbx), %rsi
	leaq	16+_ZTVN5decaf12SecureBufferE(%rip), %rax
	leaq	8(%rbx), %rdi
	movq	%rax, -1408(%rbp)
	vzeroupper
	call	_ZN5decaf12SecureBuffer5clearEv.isra.15
	leaq	16+_ZTVN5decaf5BlockE(%rip), %rax
	movq	%r12, %rbx
	movq	%rax, -1408(%rbp)
.L479:
	movq	%r13, %rdi
	call	_ZN5decaf12KeccakSpongeD2Ev
	movq	%r14, %rdi
	call	_ZN5decaf5Ed4486ScalarD1Ev
	movq	%rbx, %rdi
	jmp	.L538
.L506:
	movq	%rax, %rbx
	vzeroupper
	jmp	.L479
.L505:
	movq	%rax, %rbx
	leaq	16+_ZTVN5decaf12SecureBufferE(%rip), %rax
	movq	%rax, -1408(%rbp)
	leaq	-1408(%rbp), %rax
	leaq	16(%rax), %rsi
	leaq	8(%rax), %rdi
	vzeroupper
	call	_ZN5decaf12SecureBuffer5clearEv.isra.15
	jmp	.L479
.L508:
	movq	%rax, %rbx
	leaq	16+_ZTVN5decaf12SecureBufferE(%rip), %rax
	movq	%rdx, %r12
	movq	%rax, -1408(%rbp)
	leaq	-1408(%rbp), %rax
	leaq	16(%rax), %rsi
	leaq	8(%rax), %rdi
	vzeroupper
	call	_ZN5decaf12SecureBuffer5clearEv.isra.15
	leaq	16+_ZTVN5decaf5BlockE(%rip), %rax
	movq	%rbx, %rdi
	movq	%r12, %rdx
	movq	%rax, -1408(%rbp)
.L475:
	addq	$1, %rdx
	jne	.L538
	jmp	.L536
.L507:
	movq	%rax, %rdi
	vzeroupper
	jmp	.L475
.L509:
	jmp	.L540
.L510:
	jmp	.L540
.L511:
	movq	%rax, %rbx
	movq	%rdx, %r12
	movq	%r14, %rdi
	vzeroupper
	call	_ZN5decaf5Ed4486ScalarD1Ev
	addq	$1, %r12
	movq	%rbx, %rdi
	jne	.L538
	jmp	.L536
	.cfi_endproc
.LFE1820:
	.section	.gcc_except_table._Z7encryptRN5decaf5Ed4485PointERKNS_5BlockERKNS0_6ScalarES8_i,"a",@progbits
	.align 4
.LLSDA1820:
	.byte	0xff
	.byte	0x9b
	.uleb128 .LLSDATT1820-.LLSDATTD1820
.LLSDATTD1820:
	.byte	0x1
	.uleb128 .LLSDACSE1820-.LLSDACSB1820
.LLSDACSB1820:
	.uleb128 .LEHB49-.LFB1820
	.uleb128 .LEHE49-.LEHB49
	.uleb128 .L511-.LFB1820
	.uleb128 0x3
	.uleb128 .LEHB50-.LFB1820
	.uleb128 .LEHE50-.LEHB50
	.uleb128 .L510-.LFB1820
	.uleb128 0x1
	.uleb128 .LEHB51-.LFB1820
	.uleb128 .LEHE51-.LEHB51
	.uleb128 .L509-.LFB1820
	.uleb128 0x1
	.uleb128 .LEHB52-.LFB1820
	.uleb128 .LEHE52-.LEHB52
	.uleb128 .L507-.LFB1820
	.uleb128 0x1
	.uleb128 .LEHB53-.LFB1820
	.uleb128 .LEHE53-.LEHB53
	.uleb128 .L508-.LFB1820
	.uleb128 0x3
	.uleb128 .LEHB54-.LFB1820
	.uleb128 .LEHE54-.LEHB54
	.uleb128 .L505-.LFB1820
	.uleb128 0
	.uleb128 .LEHB55-.LFB1820
	.uleb128 .LEHE55-.LEHB55
	.uleb128 .L506-.LFB1820
	.uleb128 0
	.uleb128 .LEHB56-.LFB1820
	.uleb128 .LEHE56-.LEHB56
	.uleb128 .L512-.LFB1820
	.uleb128 0
	.uleb128 .LEHB57-.LFB1820
	.uleb128 .LEHE57-.LEHB57
	.uleb128 .L520-.LFB1820
	.uleb128 0x3
	.uleb128 .LEHB58-.LFB1820
	.uleb128 .LEHE58-.LEHB58
	.uleb128 .L519-.LFB1820
	.uleb128 0x3
	.uleb128 .LEHB59-.LFB1820
	.uleb128 .LEHE59-.LEHB59
	.uleb128 .L518-.LFB1820
	.uleb128 0x1
	.uleb128 .LEHB60-.LFB1820
	.uleb128 .LEHE60-.LEHB60
	.uleb128 .L517-.LFB1820
	.uleb128 0x1
	.uleb128 .LEHB61-.LFB1820
	.uleb128 .LEHE61-.LEHB61
	.uleb128 .L516-.LFB1820
	.uleb128 0x1
	.uleb128 .LEHB62-.LFB1820
	.uleb128 .LEHE62-.LEHB62
	.uleb128 .L515-.LFB1820
	.uleb128 0x1
	.uleb128 .LEHB63-.LFB1820
	.uleb128 .LEHE63-.LEHB63
	.uleb128 .L514-.LFB1820
	.uleb128 0x1
	.uleb128 .LEHB64-.LFB1820
	.uleb128 .LEHE64-.LEHB64
	.uleb128 .L513-.LFB1820
	.uleb128 0x1
	.uleb128 .LEHB65-.LFB1820
	.uleb128 .LEHE65-.LEHB65
	.uleb128 0
	.uleb128 0
.LLSDACSE1820:
	.byte	0x7f
	.byte	0
	.byte	0
	.byte	0x7d
	.align 4
.LLSDATT1820:
	.byte	0
	.section	.text._Z7encryptRN5decaf5Ed4485PointERKNS_5BlockERKNS0_6ScalarES8_i
	.size	_Z7encryptRN5decaf5Ed4485PointERKNS_5BlockERKNS0_6ScalarES8_i, .-_Z7encryptRN5decaf5Ed4485PointERKNS_5BlockERKNS0_6ScalarES8_i
	.section	.text.unlikely._Z7encryptRN5decaf5Ed4485PointERKNS_5BlockERKNS0_6ScalarES8_i
.LCOLDE39:
	.section	.text._Z7encryptRN5decaf5Ed4485PointERKNS_5BlockERKNS0_6ScalarES8_i
.LHOTE39:
	.section	.text.unlikely._Z7decryptRN5decaf12SecureBufferENS_5Ed4485PointERKNS2_6ScalarES6_ih,"ax",@progbits
.LCOLDB40:
	.section	.text._Z7decryptRN5decaf12SecureBufferENS_5Ed4485PointERKNS2_6ScalarES6_ih,"ax",@progbits
.LHOTB40:
	.p2align 4,,15
	.globl	_Z7decryptRN5decaf12SecureBufferENS_5Ed4485PointERKNS2_6ScalarES6_ih
	.hidden	_Z7decryptRN5decaf12SecureBufferENS_5Ed4485PointERKNS2_6ScalarES6_ih
	.type	_Z7decryptRN5decaf12SecureBufferENS_5Ed4485PointERKNS2_6ScalarES6_ih, @function
_Z7decryptRN5decaf12SecureBufferENS_5Ed4485PointERKNS2_6ScalarES6_ih:
.LFB1827:
	.cfi_startproc
	.cfi_personality 0x9b,DW.ref.__gxx_personality_v0
	.cfi_lsda 0x1b,.LLSDA1827
	leaq	8(%rsp), %r10
	.cfi_def_cfa 10, 0
	andq	$-32, %rsp
	pushq	-8(%r10)
	pushq	%rbp
	.cfi_escape 0x10,0x6,0x2,0x76,0
	movq	%rsp, %rbp
	pushq	%r15
	pushq	%r14
	pushq	%r13
	pushq	%r12
	.cfi_escape 0x10,0xf,0x2,0x76,0x78
	.cfi_escape 0x10,0xe,0x2,0x76,0x70
	.cfi_escape 0x10,0xd,0x2,0x76,0x68
	.cfi_escape 0x10,0xc,0x2,0x76,0x60
	leaq	-336(%rbp), %r12
	pushq	%r10
	.cfi_escape 0xf,0x3,0x76,0x58,0x6
	pushq	%rbx
	movq	%rcx, %r13
	.cfi_escape 0x10,0x3,0x2,0x76,0x50
	movl	%r8d, %ebx
	subq	$1152, %rsp
	movq	%rdi, -1160(%rbp)
	movq	%rsi, -1168(%rbp)
	movq	%r12, %rdi
	movl	$2147483648, %esi
	movq	%rdx, -1176(%rbp)
	movl	%r9d, -1180(%rbp)
	movq	%fs:40, %rax
	movq	%rax, -56(%rbp)
	xorl	%eax, %eax
.LEHB66:
	call	decaf_448_scalar_set@PLT
.LEHE66:
	movslq	%ebx, %rsi
	leaq	-592(%rbp), %rbx
	movl	$2147483648, %eax
	addq	%rax, %rsi
	movq	%rbx, %rdi
.LEHB67:
	call	decaf_448_scalar_set@PLT
.LEHE67:
	movq	%r12, %rdx
	movq	%rbx, %rsi
	movq	%rbx, %rdi
.LEHB68:
	call	decaf_448_scalar_sub@PLT
.LEHE68:
	movq	%r12, %rdi
.LEHB69:
	call	decaf_448_scalar_destroy@PLT
.LEHE69:
	leaq	-1120(%rbp), %r14
	movq	%rbx, %rdx
	movq	%r13, %rsi
	movq	%r14, %rdi
.LEHB70:
	call	decaf_448_scalar_add@PLT
.LEHE70:
	movq	%rbx, %rdi
.LEHB71:
	call	decaf_448_scalar_destroy@PLT
.LEHE71:
	leaq	-1056(%rbp), %r13
	movq	SHAKE256_params_s@GOTPCREL(%rip), %rsi
	movq	%r13, %rdi
.LEHB72:
	call	sponge_init@PLT
.LEHE72:
	leaq	16+_ZTVN5decaf12SecureBufferE(%rip), %rax
	movl	$56, %edi
	movq	$0, -1144(%rbp)
	movq	$56, -1136(%rbp)
	movq	%rax, -1152(%rbp)
.LEHB73:
	call	_Znam@PLT
.LEHE73:
	leaq	8(%rax), %rdi
	movq	%rax, %rcx
	movq	%rax, -1144(%rbp)
	movq	%rax, %rdx
	movq	$0, (%rax)
	movq	$0, 48(%rax)
	andq	$-8, %rdi
	xorl	%eax, %eax
	movq	%r14, %rsi
	subq	%rdi, %rcx
	addl	$56, %ecx
	shrl	$3, %ecx
	rep stosq
	movq	%rdx, %rdi
.LEHB74:
	call	decaf_448_scalar_encode@PLT
.LEHE74:
	movq	-1136(%rbp), %rdx
	movq	-1144(%rbp), %rsi
	movq	%r13, %rdi
.LEHB75:
	call	sha3_update@PLT
.LEHE75:
	movq	-1144(%rbp), %rdi
	leaq	16+_ZTVN5decaf12SecureBufferE(%rip), %rax
	movq	%rax, -1152(%rbp)
	testq	%rdi, %rdi
	je	.L583
	movq	-1136(%rbp), %rsi
.LEHB76:
	call	decaf_bzero@PLT
.LEHE76:
	movq	-1144(%rbp), %rdi
	testq	%rdi, %rdi
	je	.L583
	call	_ZdaPv@PLT
.L583:
	leaq	16+_ZTVN5decaf12SecureBufferE(%rip), %rax
	movl	$56, %edi
	movq	$0, -1144(%rbp)
	movq	$56, -1136(%rbp)
	movq	%rax, -1152(%rbp)
.LEHB77:
	call	_Znam@PLT
.LEHE77:
	leaq	8(%rax), %rdi
	movq	%rax, %rcx
	movq	%rax, -1144(%rbp)
	movq	%rax, %rsi
	movq	$0, (%rax)
	movq	$0, 48(%rax)
	andq	$-8, %rdi
	xorl	%eax, %eax
	movl	$56, %edx
	subq	%rdi, %rcx
	addl	$56, %ecx
	shrl	$3, %ecx
	rep stosq
	movq	%r13, %rdi
.LEHB78:
	call	sha3_output@PLT
.LEHE78:
	leaq	-848(%rbp), %r15
	leaq	-1152(%rbp), %rsi
	movq	%r15, %rdi
	call	_ZN5decaf5Ed4485Point11set_to_hashERKNS_5BlockE
	movq	-1176(%rbp), %rdx
	movq	%r15, %rsi
	movq	%r12, %rdi
.LEHB79:
	call	decaf_448_point_scalarmul@PLT
.LEHE79:
	movq	-1168(%rbp), %rsi
	movq	%r12, %rdx
	movq	%rbx, %rdi
.LEHB80:
	call	decaf_448_point_sub@PLT
.LEHE80:
	movq	%r12, %rdi
.LEHB81:
	call	decaf_448_point_destroy@PLT
.LEHE81:
	movzbl	-1180(%rbp), %edx
	movq	-1160(%rbp), %rsi
	movq	%rbx, %rdi
	call	_ZNK5decaf5Ed4485Point16invert_elligatorERNS_6BufferEh
	movq	%rbx, %rdi
.LEHB82:
	call	decaf_448_point_destroy@PLT
.LEHE82:
	movq	%r15, %rdi
.LEHB83:
	call	decaf_448_point_destroy@PLT
.LEHE83:
	movq	-1144(%rbp), %rdi
	leaq	16+_ZTVN5decaf12SecureBufferE(%rip), %rax
	movq	%rax, -1152(%rbp)
	testq	%rdi, %rdi
	je	.L602
	movq	-1136(%rbp), %rsi
.LEHB84:
	call	decaf_bzero@PLT
.LEHE84:
	movq	-1144(%rbp), %rdi
	testq	%rdi, %rdi
	je	.L602
	call	_ZdaPv@PLT
.L602:
	movq	%r13, %rdi
.LEHB85:
	call	sponge_destroy@PLT
.LEHE85:
	movq	%r14, %rdi
.LEHB86:
	call	decaf_448_scalar_destroy@PLT
.LEHE86:
	movq	-56(%rbp), %rax
	xorq	%fs:40, %rax
	jne	.L693
	addq	$1152, %rsp
	popq	%rbx
	popq	%r10
	.cfi_remember_state
	.cfi_def_cfa 10, 0
	popq	%r12
	popq	%r13
	popq	%r14
	popq	%r15
	popq	%rbp
	leaq	-8(%r10), %rsp
	.cfi_def_cfa 7, 8
	ret
.L693:
	.cfi_restore_state
	call	__stack_chk_fail@PLT
.L629:
.L670:
	addq	$1, %rdx
	movq	%rax, %rdi
	je	.L613
	vzeroupper
.LEHB87:
	call	_Unwind_Resume@PLT
.L630:
	jmp	.L670
.L632:
	jmp	.L670
.L633:
	jmp	.L670
.L631:
	jmp	.L670
.L613:
	vzeroupper
.L667:
	call	__cxa_call_unexpected@PLT
.L634:
	jmp	.L670
.L635:
	movq	%rax, %r12
	movq	%rdx, %r13
	movq	%rbx, %rdi
	vzeroupper
	call	_ZN5decaf5Ed4485PointD1Ev
	addq	$1, %r13
	movq	%r12, %rdi
	je	.L667
.L668:
	call	_Unwind_Resume@PLT
.LEHE87:
.L636:
	movq	%rax, %rbx
	movq	%rdx, %r13
	movq	%r12, %rdi
	vzeroupper
	call	_ZN5decaf5Ed4485PointD1Ev
	addq	$1, %r13
	movq	%rbx, %rdi
	jne	.L668
	jmp	.L667
.L627:
	movq	%rax, %rbx
	leaq	16+_ZTVN5decaf12SecureBufferE(%rip), %rax
	movq	%rax, -1152(%rbp)
	leaq	-1152(%rbp), %rax
	leaq	16(%rax), %rsi
	leaq	8(%rax), %rdi
	vzeroupper
	call	_ZN5decaf12SecureBuffer5clearEv.isra.15
	leaq	16+_ZTVN5decaf5BlockE(%rip), %rax
	movq	%rax, -1152(%rbp)
.L589:
	movq	%r13, %rdi
	call	_ZN5decaf12KeccakSpongeD2Ev
	movq	%r14, %rdi
	call	_ZN5decaf5Ed4486ScalarD1Ev
	movq	%rbx, %rdi
	jmp	.L668
.L617:
	movq	%rax, %rbx
	vzeroupper
	jmp	.L589
.L628:
	jmp	.L670
.L616:
	movq	%rax, %rbx
	leaq	16+_ZTVN5decaf12SecureBufferE(%rip), %rax
	movq	%rax, -1152(%rbp)
	leaq	-1152(%rbp), %rax
	leaq	16(%rax), %rsi
	leaq	8(%rax), %rdi
	vzeroupper
	call	_ZN5decaf12SecureBuffer5clearEv.isra.15
	jmp	.L589
.L619:
	movq	%rax, %rbx
	leaq	16+_ZTVN5decaf12SecureBufferE(%rip), %rax
	movq	%rdx, %r12
	movq	%rax, -1152(%rbp)
	leaq	-1152(%rbp), %rax
	leaq	16(%rax), %rsi
	leaq	8(%rax), %rdi
	vzeroupper
	call	_ZN5decaf12SecureBuffer5clearEv.isra.15
	leaq	16+_ZTVN5decaf5BlockE(%rip), %rax
	movq	%rbx, %rdi
	movq	%r12, %rdx
	movq	%rax, -1152(%rbp)
.L581:
	addq	$1, %rdx
	jne	.L668
	jmp	.L667
.L618:
	movq	%rax, %rdi
	vzeroupper
	jmp	.L581
.L620:
	jmp	.L670
.L621:
	jmp	.L670
.L622:
	movq	%rax, %rbx
	movq	%rdx, %r12
	movq	%r14, %rdi
	vzeroupper
	call	_ZN5decaf5Ed4486ScalarD1Ev
	addq	$1, %r12
	movq	%rbx, %rdi
	jne	.L668
	jmp	.L667
.L625:
	jmp	.L670
.L626:
	jmp	.L670
.L623:
	movq	%rax, %rbx
	movq	%rdx, %r13
	movq	%r12, %rdi
	vzeroupper
	call	_ZN5decaf5Ed4486ScalarD1Ev
	addq	$1, %r13
	movq	%rbx, %rdi
	jne	.L668
	jmp	.L667
.L624:
	jmp	.L670
	.cfi_endproc
.LFE1827:
	.section	.gcc_except_table._Z7decryptRN5decaf12SecureBufferENS_5Ed4485PointERKNS2_6ScalarES6_ih,"a",@progbits
	.align 4
.LLSDA1827:
	.byte	0xff
	.byte	0x9b
	.uleb128 .LLSDATT1827-.LLSDATTD1827
.LLSDATTD1827:
	.byte	0x1
	.uleb128 .LLSDACSE1827-.LLSDACSB1827
.LLSDACSB1827:
	.uleb128 .LEHB66-.LFB1827
	.uleb128 .LEHE66-.LEHB66
	.uleb128 .L624-.LFB1827
	.uleb128 0x1
	.uleb128 .LEHB67-.LFB1827
	.uleb128 .LEHE67-.LEHB67
	.uleb128 .L623-.LFB1827
	.uleb128 0x3
	.uleb128 .LEHB68-.LFB1827
	.uleb128 .LEHE68-.LEHB68
	.uleb128 .L626-.LFB1827
	.uleb128 0x1
	.uleb128 .LEHB69-.LFB1827
	.uleb128 .LEHE69-.LEHB69
	.uleb128 .L625-.LFB1827
	.uleb128 0x1
	.uleb128 .LEHB70-.LFB1827
	.uleb128 .LEHE70-.LEHB70
	.uleb128 .L622-.LFB1827
	.uleb128 0x3
	.uleb128 .LEHB71-.LFB1827
	.uleb128 .LEHE71-.LEHB71
	.uleb128 .L621-.LFB1827
	.uleb128 0x1
	.uleb128 .LEHB72-.LFB1827
	.uleb128 .LEHE72-.LEHB72
	.uleb128 .L620-.LFB1827
	.uleb128 0x1
	.uleb128 .LEHB73-.LFB1827
	.uleb128 .LEHE73-.LEHB73
	.uleb128 .L618-.LFB1827
	.uleb128 0x1
	.uleb128 .LEHB74-.LFB1827
	.uleb128 .LEHE74-.LEHB74
	.uleb128 .L619-.LFB1827
	.uleb128 0x3
	.uleb128 .LEHB75-.LFB1827
	.uleb128 .LEHE75-.LEHB75
	.uleb128 .L616-.LFB1827
	.uleb128 0
	.uleb128 .LEHB76-.LFB1827
	.uleb128 .LEHE76-.LEHB76
	.uleb128 .L628-.LFB1827
	.uleb128 0x1
	.uleb128 .LEHB77-.LFB1827
	.uleb128 .LEHE77-.LEHB77
	.uleb128 .L617-.LFB1827
	.uleb128 0
	.uleb128 .LEHB78-.LFB1827
	.uleb128 .LEHE78-.LEHB78
	.uleb128 .L627-.LFB1827
	.uleb128 0
	.uleb128 .LEHB79-.LFB1827
	.uleb128 .LEHE79-.LEHB79
	.uleb128 .L636-.LFB1827
	.uleb128 0x3
	.uleb128 .LEHB80-.LFB1827
	.uleb128 .LEHE80-.LEHB80
	.uleb128 .L635-.LFB1827
	.uleb128 0x3
	.uleb128 .LEHB81-.LFB1827
	.uleb128 .LEHE81-.LEHB81
	.uleb128 .L634-.LFB1827
	.uleb128 0x1
	.uleb128 .LEHB82-.LFB1827
	.uleb128 .LEHE82-.LEHB82
	.uleb128 .L633-.LFB1827
	.uleb128 0x1
	.uleb128 .LEHB83-.LFB1827
	.uleb128 .LEHE83-.LEHB83
	.uleb128 .L632-.LFB1827
	.uleb128 0x1
	.uleb128 .LEHB84-.LFB1827
	.uleb128 .LEHE84-.LEHB84
	.uleb128 .L631-.LFB1827
	.uleb128 0x1
	.uleb128 .LEHB85-.LFB1827
	.uleb128 .LEHE85-.LEHB85
	.uleb128 .L630-.LFB1827
	.uleb128 0x1
	.uleb128 .LEHB86-.LFB1827
	.uleb128 .LEHE86-.LEHB86
	.uleb128 .L629-.LFB1827
	.uleb128 0x1
	.uleb128 .LEHB87-.LFB1827
	.uleb128 .LEHE87-.LEHB87
	.uleb128 0
	.uleb128 0
.LLSDACSE1827:
	.byte	0x7f
	.byte	0
	.byte	0
	.byte	0x7d
	.align 4
.LLSDATT1827:
	.byte	0
	.section	.text._Z7decryptRN5decaf12SecureBufferENS_5Ed4485PointERKNS2_6ScalarES6_ih
	.size	_Z7decryptRN5decaf12SecureBufferENS_5Ed4485PointERKNS2_6ScalarES6_ih, .-_Z7decryptRN5decaf12SecureBufferENS_5Ed4485PointERKNS2_6ScalarES6_ih
	.section	.text.unlikely._Z7decryptRN5decaf12SecureBufferENS_5Ed4485PointERKNS2_6ScalarES6_ih
.LCOLDE40:
	.section	.text._Z7decryptRN5decaf12SecureBufferENS_5Ed4485PointERKNS2_6ScalarES6_ih
.LHOTE40:
	.section	.text.unlikely._Z5rekeyRN5decaf5Ed4485PointES1_RKNS0_6ScalarES5_i,"ax",@progbits
.LCOLDB41:
	.section	.text._Z5rekeyRN5decaf5Ed4485PointES1_RKNS0_6ScalarES5_i,"ax",@progbits
.LHOTB41:
	.p2align 4,,15
	.globl	_Z5rekeyRN5decaf5Ed4485PointES1_RKNS0_6ScalarES5_i
	.hidden	_Z5rekeyRN5decaf5Ed4485PointES1_RKNS0_6ScalarES5_i
	.type	_Z5rekeyRN5decaf5Ed4485PointES1_RKNS0_6ScalarES5_i, @function
_Z5rekeyRN5decaf5Ed4485PointES1_RKNS0_6ScalarES5_i:
.LFB1828:
	.cfi_startproc
	.cfi_personality 0x9b,DW.ref.__gxx_personality_v0
	.cfi_lsda 0x1b,.LLSDA1828
	leaq	8(%rsp), %r10
	.cfi_def_cfa 10, 0
	andq	$-32, %rsp
	pushq	-8(%r10)
	pushq	%rbp
	.cfi_escape 0x10,0x6,0x2,0x76,0
	movq	%rsp, %rbp
	pushq	%r15
	pushq	%r14
	pushq	%r13
	pushq	%r12
	.cfi_escape 0x10,0xf,0x2,0x76,0x78
	.cfi_escape 0x10,0xe,0x2,0x76,0x70
	.cfi_escape 0x10,0xd,0x2,0x76,0x68
	.cfi_escape 0x10,0xc,0x2,0x76,0x60
	leaq	-336(%rbp), %r12
	pushq	%r10
	.cfi_escape 0xf,0x3,0x76,0x58,0x6
	pushq	%rbx
	movq	%rcx, %r13
	.cfi_escape 0x10,0x3,0x2,0x76,0x50
	movl	%r8d, %ebx
	subq	$1152, %rsp
	movq	%rdi, -1160(%rbp)
	movq	%rsi, -1168(%rbp)
	movq	%r12, %rdi
	movl	$2147483648, %esi
	movq	%rdx, -1176(%rbp)
	movq	%fs:40, %rax
	movq	%rax, -56(%rbp)
	xorl	%eax, %eax
.LEHB88:
	call	decaf_448_scalar_set@PLT
.LEHE88:
	movslq	%ebx, %rsi
	leaq	-592(%rbp), %rbx
	movl	$2147483648, %eax
	addq	%rax, %rsi
	movq	%rbx, %rdi
.LEHB89:
	call	decaf_448_scalar_set@PLT
.LEHE89:
	movq	%r12, %rdx
	movq	%rbx, %rsi
	movq	%rbx, %rdi
.LEHB90:
	call	decaf_448_scalar_sub@PLT
.LEHE90:
	movq	%r12, %rdi
.LEHB91:
	call	decaf_448_scalar_destroy@PLT
.LEHE91:
	leaq	-1120(%rbp), %r15
	movq	%rbx, %rdx
	movq	%r13, %rsi
	movq	%r15, %rdi
.LEHB92:
	call	decaf_448_scalar_add@PLT
.LEHE92:
	movq	%rbx, %rdi
.LEHB93:
	call	decaf_448_scalar_destroy@PLT
.LEHE93:
	leaq	-1056(%rbp), %r13
	movq	SHAKE256_params_s@GOTPCREL(%rip), %rsi
	movq	%r13, %rdi
.LEHB94:
	call	sponge_init@PLT
.LEHE94:
	leaq	16+_ZTVN5decaf12SecureBufferE(%rip), %rax
	movl	$56, %edi
	movq	$0, -1144(%rbp)
	movq	$56, -1136(%rbp)
	movq	%rax, -1152(%rbp)
.LEHB95:
	call	_Znam@PLT
.LEHE95:
	leaq	8(%rax), %rdi
	movq	%rax, %rcx
	movq	%rax, -1144(%rbp)
	movq	%rax, %rdx
	movq	$0, (%rax)
	movq	$0, 48(%rax)
	andq	$-8, %rdi
	xorl	%eax, %eax
	movq	%r15, %rsi
	subq	%rdi, %rcx
	addl	$56, %ecx
	shrl	$3, %ecx
	rep stosq
	movq	%rdx, %rdi
.LEHB96:
	call	decaf_448_scalar_encode@PLT
.LEHE96:
	movq	-1136(%rbp), %rdx
	movq	-1144(%rbp), %rsi
	movq	%r13, %rdi
.LEHB97:
	call	sha3_update@PLT
.LEHE97:
	leaq	-1152(%rbp), %r14
	leaq	16+_ZTVN5decaf12SecureBufferE(%rip), %rax
	leaq	8(%r14), %rdi
	leaq	16(%r14), %rsi
	movq	%rax, -1152(%rbp)
	call	_ZN5decaf12SecureBuffer5clearEv.isra.15
	leaq	16+_ZTVN5decaf12SecureBufferE(%rip), %rax
	movl	$56, %edi
	movq	$0, -1144(%rbp)
	movq	$56, -1136(%rbp)
	movq	%rax, -1152(%rbp)
.LEHB98:
	call	_Znam@PLT
.LEHE98:
	leaq	8(%rax), %rdi
	movq	%rax, %rcx
	movq	%rax, -1144(%rbp)
	movq	%rax, %rsi
	movq	$0, (%rax)
	movq	$0, 48(%rax)
	andq	$-8, %rdi
	xorl	%eax, %eax
	movl	$56, %edx
	subq	%rdi, %rcx
	addl	$56, %ecx
	shrl	$3, %ecx
	rep stosq
	movq	%r13, %rdi
.LEHB99:
	call	sha3_output@PLT
.LEHE99:
	leaq	-848(%rbp), %rax
	movq	%r14, %rsi
	movq	%rax, %rdi
	movq	%rax, %r14
	movq	%rax, -1184(%rbp)
	call	_ZN5decaf5Ed4485Point11set_to_hashERKNS_5BlockE
	movq	-1176(%rbp), %rdx
	movq	%r14, %rsi
	movq	%rbx, %rdi
.LEHB100:
	call	decaf_448_point_scalarmul@PLT
.LEHE100:
	movq	-1168(%rbp), %rsi
	movq	%rbx, %rdx
	movq	%r12, %rdi
.LEHB101:
	call	decaf_448_point_add@PLT
.LEHE101:
	movl	$32, %ecx
	movq	-1160(%rbp), %rdi
	movq	%r12, %rsi
	rep movsq
	leaq	-336(%rbp), %rdi
.LEHB102:
	call	decaf_448_point_destroy@PLT
.LEHE102:
	movq	%rbx, %rdi
.LEHB103:
	call	decaf_448_point_destroy@PLT
.LEHE103:
	movq	-1184(%rbp), %rdi
.LEHB104:
	call	decaf_448_point_destroy@PLT
.LEHE104:
	movq	-1144(%rbp), %rdi
	leaq	16+_ZTVN5decaf12SecureBufferE(%rip), %rax
	movq	%rax, -1152(%rbp)
	testq	%rdi, %rdi
	je	.L732
	movq	-1136(%rbp), %rsi
.LEHB105:
	call	decaf_bzero@PLT
.LEHE105:
	movq	-1144(%rbp), %rdi
	testq	%rdi, %rdi
	je	.L732
	call	_ZdaPv@PLT
.L732:
	movq	%r13, %rdi
.LEHB106:
	call	sponge_destroy@PLT
.LEHE106:
	movq	%r15, %rdi
.LEHB107:
	call	decaf_448_scalar_destroy@PLT
.LEHE107:
	movq	-56(%rbp), %rax
	xorq	%fs:40, %rax
	jne	.L815
	addq	$1152, %rsp
	popq	%rbx
	popq	%r10
	.cfi_remember_state
	.cfi_def_cfa 10, 0
	popq	%r12
	popq	%r13
	popq	%r14
	popq	%r15
	popq	%rbp
	leaq	-8(%r10), %rsp
	.cfi_def_cfa 7, 8
	ret
.L815:
	.cfi_restore_state
	call	__stack_chk_fail@PLT
.L758:
.L793:
	addq	$1, %rdx
	movq	%rax, %rdi
	je	.L743
	vzeroupper
.LEHB108:
	call	_Unwind_Resume@PLT
.L759:
	jmp	.L793
.L743:
	vzeroupper
.L790:
	call	__cxa_call_unexpected@PLT
.L760:
	jmp	.L793
.L761:
	jmp	.L793
.L762:
	jmp	.L793
.L763:
	jmp	.L793
.L764:
	movq	%rax, %rbx
	movq	%rdx, %r13
	movq	%r12, %rdi
	vzeroupper
	call	_ZN5decaf5Ed4485PointD1Ev
	addq	$1, %r13
	movq	%rbx, %rdi
	je	.L790
.L791:
	call	_Unwind_Resume@PLT
.LEHE108:
.L765:
	movq	%rax, %r12
	movq	%rdx, %r13
	movq	%rbx, %rdi
	vzeroupper
	call	_ZN5decaf5Ed4485PointD1Ev
	addq	$1, %r13
	movq	%r12, %rdi
	jne	.L791
	jmp	.L790
.L757:
	movq	%rax, %rbx
	leaq	16(%r14), %rsi
	leaq	16+_ZTVN5decaf12SecureBufferE(%rip), %rax
	leaq	8(%r14), %rdi
	movq	%rax, -1152(%rbp)
	vzeroupper
	call	_ZN5decaf12SecureBuffer5clearEv.isra.15
	leaq	16+_ZTVN5decaf5BlockE(%rip), %rax
	movq	%rax, -1152(%rbp)
.L719:
	movq	%r13, %rdi
	call	_ZN5decaf12KeccakSpongeD2Ev
	movq	%r15, %rdi
	call	_ZN5decaf5Ed4486ScalarD1Ev
	movq	%rbx, %rdi
	jmp	.L791
.L747:
	movq	%rax, %rbx
	vzeroupper
	jmp	.L719
.L746:
	movq	%rax, %rbx
	leaq	16+_ZTVN5decaf12SecureBufferE(%rip), %rax
	movq	%rax, -1152(%rbp)
	leaq	-1152(%rbp), %rax
	leaq	16(%rax), %rsi
	leaq	8(%rax), %rdi
	vzeroupper
	call	_ZN5decaf12SecureBuffer5clearEv.isra.15
	jmp	.L719
.L749:
	movq	%rax, %rbx
	leaq	16+_ZTVN5decaf12SecureBufferE(%rip), %rax
	movq	%rdx, %r12
	movq	%rax, -1152(%rbp)
	leaq	-1152(%rbp), %rax
	leaq	16(%rax), %rsi
	leaq	8(%rax), %rdi
	vzeroupper
	call	_ZN5decaf12SecureBuffer5clearEv.isra.15
	leaq	16+_ZTVN5decaf5BlockE(%rip), %rax
	movq	%rbx, %rdi
	movq	%r12, %rdx
	movq	%rax, -1152(%rbp)
.L715:
	addq	$1, %rdx
	jne	.L791
	jmp	.L790
.L748:
	movq	%rax, %rdi
	vzeroupper
	jmp	.L715
.L750:
	jmp	.L793
.L751:
	jmp	.L793
.L752:
	movq	%rax, %rbx
	movq	%rdx, %r12
	movq	%r15, %rdi
	vzeroupper
	call	_ZN5decaf5Ed4486ScalarD1Ev
	addq	$1, %r12
	movq	%rbx, %rdi
	jne	.L791
	jmp	.L790
.L755:
	jmp	.L793
.L756:
	jmp	.L793
.L753:
	movq	%rax, %rbx
	movq	%rdx, %r13
	movq	%r12, %rdi
	vzeroupper
	call	_ZN5decaf5Ed4486ScalarD1Ev
	addq	$1, %r13
	movq	%rbx, %rdi
	jne	.L791
	jmp	.L790
.L754:
	jmp	.L793
	.cfi_endproc
.LFE1828:
	.section	.gcc_except_table._Z5rekeyRN5decaf5Ed4485PointES1_RKNS0_6ScalarES5_i,"a",@progbits
	.align 4
.LLSDA1828:
	.byte	0xff
	.byte	0x9b
	.uleb128 .LLSDATT1828-.LLSDATTD1828
.LLSDATTD1828:
	.byte	0x1
	.uleb128 .LLSDACSE1828-.LLSDACSB1828
.LLSDACSB1828:
	.uleb128 .LEHB88-.LFB1828
	.uleb128 .LEHE88-.LEHB88
	.uleb128 .L754-.LFB1828
	.uleb128 0x1
	.uleb128 .LEHB89-.LFB1828
	.uleb128 .LEHE89-.LEHB89
	.uleb128 .L753-.LFB1828
	.uleb128 0x3
	.uleb128 .LEHB90-.LFB1828
	.uleb128 .LEHE90-.LEHB90
	.uleb128 .L756-.LFB1828
	.uleb128 0x1
	.uleb128 .LEHB91-.LFB1828
	.uleb128 .LEHE91-.LEHB91
	.uleb128 .L755-.LFB1828
	.uleb128 0x1
	.uleb128 .LEHB92-.LFB1828
	.uleb128 .LEHE92-.LEHB92
	.uleb128 .L752-.LFB1828
	.uleb128 0x3
	.uleb128 .LEHB93-.LFB1828
	.uleb128 .LEHE93-.LEHB93
	.uleb128 .L751-.LFB1828
	.uleb128 0x1
	.uleb128 .LEHB94-.LFB1828
	.uleb128 .LEHE94-.LEHB94
	.uleb128 .L750-.LFB1828
	.uleb128 0x1
	.uleb128 .LEHB95-.LFB1828
	.uleb128 .LEHE95-.LEHB95
	.uleb128 .L748-.LFB1828
	.uleb128 0x1
	.uleb128 .LEHB96-.LFB1828
	.uleb128 .LEHE96-.LEHB96
	.uleb128 .L749-.LFB1828
	.uleb128 0x3
	.uleb128 .LEHB97-.LFB1828
	.uleb128 .LEHE97-.LEHB97
	.uleb128 .L746-.LFB1828
	.uleb128 0
	.uleb128 .LEHB98-.LFB1828
	.uleb128 .LEHE98-.LEHB98
	.uleb128 .L747-.LFB1828
	.uleb128 0
	.uleb128 .LEHB99-.LFB1828
	.uleb128 .LEHE99-.LEHB99
	.uleb128 .L757-.LFB1828
	.uleb128 0
	.uleb128 .LEHB100-.LFB1828
	.uleb128 .LEHE100-.LEHB100
	.uleb128 .L765-.LFB1828
	.uleb128 0x3
	.uleb128 .LEHB101-.LFB1828
	.uleb128 .LEHE101-.LEHB101
	.uleb128 .L764-.LFB1828
	.uleb128 0x3
	.uleb128 .LEHB102-.LFB1828
	.uleb128 .LEHE102-.LEHB102
	.uleb128 .L763-.LFB1828
	.uleb128 0x1
	.uleb128 .LEHB103-.LFB1828
	.uleb128 .LEHE103-.LEHB103
	.uleb128 .L762-.LFB1828
	.uleb128 0x1
	.uleb128 .LEHB104-.LFB1828
	.uleb128 .LEHE104-.LEHB104
	.uleb128 .L761-.LFB1828
	.uleb128 0x1
	.uleb128 .LEHB105-.LFB1828
	.uleb128 .LEHE105-.LEHB105
	.uleb128 .L760-.LFB1828
	.uleb128 0x1
	.uleb128 .LEHB106-.LFB1828
	.uleb128 .LEHE106-.LEHB106
	.uleb128 .L759-.LFB1828
	.uleb128 0x1
	.uleb128 .LEHB107-.LFB1828
	.uleb128 .LEHE107-.LEHB107
	.uleb128 .L758-.LFB1828
	.uleb128 0x1
	.uleb128 .LEHB108-.LFB1828
	.uleb128 .LEHE108-.LEHB108
	.uleb128 0
	.uleb128 0
.LLSDACSE1828:
	.byte	0x7f
	.byte	0
	.byte	0
	.byte	0x7d
	.align 4
.LLSDATT1828:
	.byte	0
	.section	.text._Z5rekeyRN5decaf5Ed4485PointES1_RKNS0_6ScalarES5_i
	.size	_Z5rekeyRN5decaf5Ed4485PointES1_RKNS0_6ScalarES5_i, .-_Z5rekeyRN5decaf5Ed4485PointES1_RKNS0_6ScalarES5_i
	.section	.text.unlikely._Z5rekeyRN5decaf5Ed4485PointES1_RKNS0_6ScalarES5_i
.LCOLDE41:
	.section	.text._Z5rekeyRN5decaf5Ed4485PointES1_RKNS0_6ScalarES5_i
.LHOTE41:
	.section	.rodata.str1.1
.LC42:
	.string	"original:"
.LC43:
	.string	"block size:"
.LC44:
	.string	"/dev/urandom"
.LC45:
	.string	"Couldn't load from file"
.LC46:
	.string	""
.LC47:
	.string	"k_encode"
.LC48:
	.string	"k_str"
.LC49:
	.string	"basic_string::append"
.LC50:
	.string	"#"
.LC51:
	.string	"keys_str"
.LC52:
	.string	"nihao"
.LC53:
	.string	"wohao"
.LC54:
	.string	"one---------------------:"
.LC55:
	.string	"n_encode"
.LC56:
	.string	"n_str"
.LC57:
	.string	"hints"
.LC58:
	.string	"first_decrypt:"
	.section	.text.unlikely._Z11wwh_encryptPcS_,"ax",@progbits
.LCOLDB59:
	.section	.text._Z11wwh_encryptPcS_,"ax",@progbits
.LHOTB59:
	.p2align 4,,15
	.globl	_Z11wwh_encryptPcS_
	.hidden	_Z11wwh_encryptPcS_
	.type	_Z11wwh_encryptPcS_, @function
_Z11wwh_encryptPcS_:
.LFB1829:
	.cfi_startproc
	.cfi_personality 0x9b,DW.ref.__gxx_personality_v0
	.cfi_lsda 0x1b,.LLSDA1829
	leaq	8(%rsp), %r10
	.cfi_def_cfa 10, 0
	andq	$-32, %rsp
	leaq	.LC42(%rip), %rsi
	movl	$9, %edx
	pushq	-8(%r10)
	pushq	%rbp
	.cfi_escape 0x10,0x6,0x2,0x76,0
	movq	%rsp, %rbp
	pushq	%r15
	pushq	%r14
	pushq	%r13
	pushq	%r12
	.cfi_escape 0x10,0xf,0x2,0x76,0x78
	.cfi_escape 0x10,0xe,0x2,0x76,0x70
	.cfi_escape 0x10,0xd,0x2,0x76,0x68
	.cfi_escape 0x10,0xc,0x2,0x76,0x60
	movq	%rdi, %r14
	pushq	%r10
	.cfi_escape 0xf,0x3,0x76,0x58,0x6
	pushq	%rbx
	subq	$1088, %rsp
	.cfi_escape 0x10,0x3,0x2,0x76,0x50
	movq	_ZSt4cout@GOTPCREL(%rip), %rdi
	movq	%fs:40, %rax
	movq	%rax, -56(%rbp)
	xorl	%eax, %eax
.LEHB109:
	call	_ZSt16__ostream_insertIcSt11char_traitsIcEERSt13basic_ostreamIT_T0_ES6_PKS3_l@PLT
	testq	%r14, %r14
	je	.L984
	movq	%r14, %rdi
	call	strlen@PLT
	movq	_ZSt4cout@GOTPCREL(%rip), %rdi
	movq	%rax, %rdx
	movq	%r14, %rsi
	call	_ZSt16__ostream_insertIcSt11char_traitsIcEERSt13basic_ostreamIT_T0_ES6_PKS3_l@PLT
.L818:
	movq	_ZSt4cout@GOTPCREL(%rip), %rdi
	call	_ZSt4endlIcSt11char_traitsIcEERSt13basic_ostreamIT_T0_ES6_@PLT
	movq	%r14, %rdi
	call	strlen@PLT
	movq	%rax, %r12
	movq	%rax, %r15
	movabsq	$2635249153387078803, %rdx
	shrq	$3, %r12
	movq	_ZSt4cout@GOTPCREL(%rip), %rdi
	leaq	.LC43(%rip), %rsi
	movq	%r12, %rax
	mulq	%rdx
	leal	1(%rdx), %eax
	movq	%rdx, %r12
	movl	$11, %edx
	movl	%eax, %ebx
	movl	%eax, -1044(%rbp)
	call	_ZSt16__ostream_insertIcSt11char_traitsIcEERSt13basic_ostreamIT_T0_ES6_PKS3_l@PLT
	movq	_ZSt4cout@GOTPCREL(%rip), %rdi
	movl	%ebx, %esi
	movslq	%ebx, %rbx
	call	_ZNSolsEi@PLT
	movq	%rax, %rdi
	call	_ZSt4endlIcSt11char_traitsIcEERSt13basic_ostreamIT_T0_ES6_@PLT
	movabsq	$35747322042253312, %rax
	movq	$-1, %rdi
	cmpq	%rax, %rbx
	ja	.L819
	movq	%rbx, %rdi
	salq	$8, %rdi
	addq	$32, %rdi
.L819:
	call	_Znam@PLT
	testq	%rbx, %rbx
	movq	%rax, -1056(%rbp)
	movq	%rbx, 24(%rax)
	leaq	32(%rax), %r13
	je	.L822
	movq	decaf_448_point_identity@GOTPCREL(%rip), %rdx
	movq	%rax, %r8
	xorl	%eax, %eax
	.p2align 4,,10
	.p2align 3
.L820:
	movq	%rax, %rcx
	addq	$1, %rax
	movq	%rdx, %rsi
	salq	$8, %rcx
	cmpq	%rax, %rbx
	leaq	32(%r8,%rcx), %rdi
	movl	$32, %ecx
	rep movsq
	jne	.L820
.L822:
	movq	%rbx, %rdi
	call	_Znam@PLT
	movq	%rax, -1040(%rbp)
	leaq	-336(%rbp), %rax
	leaq	12+.LC44(%rip), %rdx
	leaq	.LC44(%rip), %rsi
	movq	%rax, %rdi
	movq	%rax, -1016(%rbp)
	addq	$16, %rax
	movq	%rax, -336(%rbp)
	call	_ZNSt7__cxx1112basic_stringIcSt11char_traitsIcESaIcEE12_M_constructIPKcEEvT_S8_St20forward_iterator_tag.isra.37
.LEHE109:
	leaq	-544(%rbp), %rax
	movq	-336(%rbp), %rsi
	xorl	%ecx, %ecx
	movl	$32, %edx
	movq	%rax, %rdi
	movq	%rax, -1096(%rbp)
.LEHB110:
	call	spongerng_init_from_file@PLT
.LEHE110:
	testl	%eax, %eax
	movl	%eax, %ebx
	jne	.L985
	movq	-1016(%rbp), %rax
	movq	-336(%rbp), %rdi
	addq	$16, %rax
	cmpq	%rax, %rdi
	je	.L827
	call	_ZdlPv@PLT
.L827:
	leaq	-672(%rbp), %rax
	movq	-1096(%rbp), %rsi
	leaq	-960(%rbp), %rbx
	movq	%rax, %rdi
	movq	%rax, -1024(%rbp)
	call	_ZN5decaf5Ed4486ScalarC1ERNS_9SpongeRngE
	leaq	.LC46(%rip), %rdx
	leaq	16(%rbx), %rax
	movq	%rbx, %rdi
	movq	%rbx, -1088(%rbp)
	movq	%rdx, %rsi
	movq	%rax, -960(%rbp)
.LEHB111:
	call	_ZNSt7__cxx1112basic_stringIcSt11char_traitsIcESaIcEE12_M_constructIPKcEEvT_S8_St20forward_iterator_tag.isra.37
.LEHE111:
	movl	$56, %edi
.LEHB112:
	call	_Znam@PLT
.LEHE112:
	movq	-1024(%rbp), %rsi
	movq	%rax, %rdi
	movq	%rax, %rbx
.LEHB113:
	call	decaf_448_scalar_encode@PLT
.LEHE113:
	movq	_ZSt4cout@GOTPCREL(%rip), %rdi
	leaq	.LC47(%rip), %rsi
	movl	$8, %edx
.LEHB114:
	call	_ZSt16__ostream_insertIcSt11char_traitsIcEERSt13basic_ostreamIT_T0_ES6_PKS3_l@PLT
	movq	%rbx, %rdi
	call	strlen@PLT
	movq	_ZSt4cout@GOTPCREL(%rip), %rdi
	movq	%rax, %rdx
	movq	%rbx, %rsi
	call	_ZSt16__ostream_insertIcSt11char_traitsIcEERSt13basic_ostreamIT_T0_ES6_PKS3_l@PLT
	movq	_ZSt4cout@GOTPCREL(%rip), %rdi
	call	_ZSt4endlIcSt11char_traitsIcEERSt13basic_ostreamIT_T0_ES6_@PLT
	leaq	-928(%rbp), %rax
	movq	%rbx, %rdi
	movq	%rax, -1104(%rbp)
	addq	$16, %rax
	movq	%rax, -928(%rbp)
	call	strlen@PLT
	movq	-1104(%rbp), %rdi
	leaq	(%rbx,%rax), %rdx
	movq	%rbx, %rsi
	call	_ZNSt7__cxx1112basic_stringIcSt11char_traitsIcESaIcEE12_M_constructIPKcEEvT_S8_St20forward_iterator_tag.isra.37
.LEHE114:
	movq	_ZSt4cout@GOTPCREL(%rip), %rdi
	leaq	.LC48(%rip), %rsi
	movl	$5, %edx
.LEHB115:
	call	_ZSt16__ostream_insertIcSt11char_traitsIcEERSt13basic_ostreamIT_T0_ES6_PKS3_l@PLT
	movq	-920(%rbp), %rdx
	movq	-928(%rbp), %rsi
	movq	_ZSt4cout@GOTPCREL(%rip), %rdi
	call	_ZSt16__ostream_insertIcSt11char_traitsIcEERSt13basic_ostreamIT_T0_ES6_PKS3_l@PLT
	movq	%rax, %rdi
	call	_ZSt4endlIcSt11char_traitsIcEERSt13basic_ostreamIT_T0_ES6_@PLT
	movq	-928(%rbp), %rsi
	leaq	-896(%rbp), %rbx
	leaq	16(%rbx), %rax
	movq	%rbx, %rdi
	movq	%rsi, %rdx
	addq	-920(%rbp), %rdx
	movq	%rax, -896(%rbp)
	call	_ZNSt7__cxx1112basic_stringIcSt11char_traitsIcESaIcEE12_M_constructIPcEEvT_S7_St20forward_iterator_tag.isra.44
.LEHE115:
	movabsq	$9223372036854775807, %rax
	cmpq	%rax, -888(%rbp)
	je	.L986
	leaq	.LC50(%rip), %rsi
	movl	$1, %edx
	movq	%rbx, %rdi
.LEHB116:
	call	_ZNSt7__cxx1112basic_stringIcSt11char_traitsIcESaIcEE9_M_appendEPKcm@PLT
.LEHE116:
	movq	-888(%rbp), %rdx
	movq	-896(%rbp), %rsi
	movq	-1088(%rbp), %rdi
.LEHB117:
	call	_ZNSt7__cxx1112basic_stringIcSt11char_traitsIcESaIcEE9_M_appendEPKcm@PLT
.LEHE117:
	movq	-896(%rbp), %rdi
	addq	$16, %rbx
	cmpq	%rbx, %rdi
	je	.L836
	call	_ZdlPv@PLT
.L836:
	movq	_ZSt4cout@GOTPCREL(%rip), %rdi
	leaq	.LC51(%rip), %rsi
	movl	$8, %edx
.LEHB118:
	call	_ZSt16__ostream_insertIcSt11char_traitsIcEERSt13basic_ostreamIT_T0_ES6_PKS3_l@PLT
	movq	-952(%rbp), %rdx
	movq	-960(%rbp), %rsi
	movq	_ZSt4cout@GOTPCREL(%rip), %rdi
	call	_ZSt16__ostream_insertIcSt11char_traitsIcEERSt13basic_ostreamIT_T0_ES6_PKS3_l@PLT
	movq	%rax, %rdi
	call	_ZSt4endlIcSt11char_traitsIcEERSt13basic_ostreamIT_T0_ES6_@PLT
.LEHE118:
	leaq	-608(%rbp), %rax
	movq	-1096(%rbp), %rsi
	movq	%rax, %rdi
	movq	%rax, -1032(%rbp)
	call	_ZN5decaf5Ed4486ScalarC1ERNS_9SpongeRngE
	leaq	-864(%rbp), %rax
	leaq	5+.LC52(%rip), %rdx
	leaq	.LC52(%rip), %rsi
	movq	%rax, %rbx
	movq	%rax, -1128(%rbp)
	addq	$16, %rax
	movq	%rbx, %rdi
	movq	%rax, -864(%rbp)
.LEHB119:
	call	_ZNSt7__cxx1112basic_stringIcSt11char_traitsIcESaIcEE12_M_constructIPKcEEvT_S8_St20forward_iterator_tag.isra.37
.LEHE119:
	leaq	-832(%rbp), %rcx
	leaq	5+.LC53(%rip), %rdx
	leaq	.LC53(%rip), %rsi
	leaq	16(%rcx), %rax
	movq	%rcx, %rdi
	movq	%rcx, -1136(%rbp)
	movq	%rax, -832(%rbp)
.LEHB120:
	call	_ZNSt7__cxx1112basic_stringIcSt11char_traitsIcESaIcEE12_M_constructIPKcEEvT_S8_St20forward_iterator_tag.isra.37
.LEHE120:
	movq	-824(%rbp), %rdx
	movq	-832(%rbp), %rsi
	movq	%rbx, %rdi
.LEHB121:
	call	_ZNSt7__cxx1112basic_stringIcSt11char_traitsIcESaIcEE9_M_appendEPKcm@PLT
	movq	_ZSt4cout@GOTPCREL(%rip), %rdi
	leaq	.LC54(%rip), %rsi
	movl	$25, %edx
	call	_ZSt16__ostream_insertIcSt11char_traitsIcEERSt13basic_ostreamIT_T0_ES6_PKS3_l@PLT
	movq	-856(%rbp), %rdx
	movq	-864(%rbp), %rsi
	movq	_ZSt4cout@GOTPCREL(%rip), %rdi
	call	_ZSt16__ostream_insertIcSt11char_traitsIcEERSt13basic_ostreamIT_T0_ES6_PKS3_l@PLT
	movq	%rax, %rdi
	call	_ZSt4endlIcSt11char_traitsIcEERSt13basic_ostreamIT_T0_ES6_@PLT
	movl	$56, %edi
	call	_Znam@PLT
.LEHE121:
	movq	-1032(%rbp), %rsi
	movq	%rax, %rdi
	movq	%rax, %rbx
.LEHB122:
	call	decaf_448_scalar_encode@PLT
.LEHE122:
	movq	_ZSt4cout@GOTPCREL(%rip), %rdi
	leaq	.LC55(%rip), %rsi
	movl	$8, %edx
.LEHB123:
	call	_ZSt16__ostream_insertIcSt11char_traitsIcEERSt13basic_ostreamIT_T0_ES6_PKS3_l@PLT
	movq	%rbx, %rdi
	call	strlen@PLT
	movq	_ZSt4cout@GOTPCREL(%rip), %rdi
	movq	%rax, %rdx
	movq	%rbx, %rsi
	call	_ZSt16__ostream_insertIcSt11char_traitsIcEERSt13basic_ostreamIT_T0_ES6_PKS3_l@PLT
	movq	_ZSt4cout@GOTPCREL(%rip), %rdi
	call	_ZSt4endlIcSt11char_traitsIcEERSt13basic_ostreamIT_T0_ES6_@PLT
	leaq	-800(%rbp), %rax
	movq	%rbx, %rdi
	movq	%rax, -1112(%rbp)
	addq	$16, %rax
	movq	%rax, -800(%rbp)
	call	strlen@PLT
	movq	-1112(%rbp), %rdi
	leaq	(%rbx,%rax), %rdx
	movq	%rbx, %rsi
	call	_ZNSt7__cxx1112basic_stringIcSt11char_traitsIcESaIcEE12_M_constructIPKcEEvT_S8_St20forward_iterator_tag.isra.37
.LEHE123:
	movq	_ZSt4cout@GOTPCREL(%rip), %rdi
	leaq	.LC56(%rip), %rsi
	movl	$5, %edx
.LEHB124:
	call	_ZSt16__ostream_insertIcSt11char_traitsIcEERSt13basic_ostreamIT_T0_ES6_PKS3_l@PLT
	movq	-792(%rbp), %rdx
	movq	-800(%rbp), %rsi
	movq	_ZSt4cout@GOTPCREL(%rip), %rdi
	call	_ZSt16__ostream_insertIcSt11char_traitsIcEERSt13basic_ostreamIT_T0_ES6_PKS3_l@PLT
	movq	%rax, %rdi
	call	_ZSt4endlIcSt11char_traitsIcEERSt13basic_ostreamIT_T0_ES6_@PLT
	movq	-800(%rbp), %rsi
	leaq	-768(%rbp), %rbx
	leaq	16(%rbx), %rax
	movq	%rbx, %rdi
	movq	%rsi, %rdx
	addq	-792(%rbp), %rdx
	movq	%rax, -768(%rbp)
	call	_ZNSt7__cxx1112basic_stringIcSt11char_traitsIcESaIcEE12_M_constructIPcEEvT_S7_St20forward_iterator_tag.isra.44
.LEHE124:
	movabsq	$9223372036854775807, %rax
	cmpq	%rax, -760(%rbp)
	je	.L987
	leaq	.LC50(%rip), %rsi
	movl	$1, %edx
	movq	%rbx, %rdi
.LEHB125:
	call	_ZNSt7__cxx1112basic_stringIcSt11char_traitsIcESaIcEE9_M_appendEPKcm@PLT
.LEHE125:
	movq	-760(%rbp), %rdx
	movq	-768(%rbp), %rsi
	movq	-1088(%rbp), %rdi
.LEHB126:
	call	_ZNSt7__cxx1112basic_stringIcSt11char_traitsIcESaIcEE9_M_appendEPKcm@PLT
.LEHE126:
	movq	-768(%rbp), %rdi
	addq	$16, %rbx
	cmpq	%rbx, %rdi
	je	.L845
	call	_ZdlPv@PLT
.L845:
	movq	_ZSt4cout@GOTPCREL(%rip), %rdi
	leaq	.LC51(%rip), %rsi
	movl	$8, %edx
.LEHB127:
	call	_ZSt16__ostream_insertIcSt11char_traitsIcEERSt13basic_ostreamIT_T0_ES6_PKS3_l@PLT
	movq	-952(%rbp), %rdx
	movq	-960(%rbp), %rsi
	movq	_ZSt4cout@GOTPCREL(%rip), %rdi
	call	_ZSt16__ostream_insertIcSt11char_traitsIcEERSt13basic_ostreamIT_T0_ES6_PKS3_l@PLT
	movq	%rax, %rdi
	call	_ZSt4endlIcSt11char_traitsIcEERSt13basic_ostreamIT_T0_ES6_@PLT
	movl	-1044(%rbp), %edx
	testl	%edx, %edx
	jle	.L854
	movq	-1056(%rbp), %rax
	movl	%r12d, %r12d
	movq	%r13, %rbx
	salq	$8, %r12
	xorl	%r13d, %r13d
	leaq	288(%rax,%r12), %rax
	xorl	%r12d, %r12d
	movq	%rax, -1064(%rbp)
	leaq	-992(%rbp), %rax
	movq	%rax, -1072(%rbp)
	jmp	.L855
	.p2align 4,,10
	.p2align 3
.L988:
	cmpq	%r15, %rax
	ja	.L849
	movq	%r15, %rdx
	subq	%rax, %rdx
.L851:
	leaq	16+_ZTVN5decaf5BlockE(%rip), %rsi
	movq	%rdx, -976(%rbp)
	movq	-1032(%rbp), %rcx
	movq	-1024(%rbp), %rdx
	addq	%r14, %rax
	movq	%rbx, %rdi
	movq	%rsi, -992(%rbp)
	movq	-1072(%rbp), %rsi
	movq	%rax, -984(%rbp)
	call	_Z7encryptRN5decaf5Ed4485PointERKNS_5BlockERKNS0_6ScalarES8_i
.LEHE127:
	movq	-1040(%rbp), %rsi
	addl	$56, %r13d
	addq	$256, %rbx
	movb	%al, (%rsi,%r12)
	addq	$1, %r12
	cmpq	%rbx, -1064(%rbp)
	je	.L854
.L855:
	movl	%r13d, %eax
	movl	%r12d, %r8d
	leaq	56(%rax), %rdx
	cmpq	%r15, %rdx
	jnb	.L988
	cmpq	%r15, %rax
	ja	.L849
	movq	%r15, %rdx
	subq	%rax, %rdx
	cmpq	$55, %rdx
	ja	.L989
.L849:
	movl	$8, %edi
	call	__cxa_allocate_exception@PLT
	leaq	16+_ZTVN5decaf15LengthExceptionE(%rip), %rdx
	leaq	_ZTIN5decaf15LengthExceptionE(%rip), %rsi
	movq	%rax, %rdi
	movq	%rdx, (%rax)
	leaq	_ZN5decaf15LengthExceptionD1Ev(%rip), %rdx
.LEHB128:
	call	__cxa_throw@PLT
.LEHE128:
	.p2align 4,,10
	.p2align 3
.L854:
	movq	-1040(%rbp), %r14
	leaq	-736(%rbp), %rax
	movq	%rax, %rbx
	movq	%rax, -1120(%rbp)
	addq	$16, %rax
	movq	%r14, %rdi
	movq	%rax, -736(%rbp)
	call	strlen@PLT
	leaq	(%r14,%rax), %rdx
	movq	%r14, %rsi
	movq	%rbx, %rdi
.LEHB129:
	call	_ZNSt7__cxx1112basic_stringIcSt11char_traitsIcESaIcEE12_M_constructIPKcEEvT_S8_St20forward_iterator_tag.isra.37
.LEHE129:
	movq	_ZSt4cout@GOTPCREL(%rip), %rdi
	leaq	.LC57(%rip), %rsi
	movl	$5, %edx
.LEHB130:
	call	_ZSt16__ostream_insertIcSt11char_traitsIcEERSt13basic_ostreamIT_T0_ES6_PKS3_l@PLT
	movq	-1040(%rbp), %rbx
	movq	%rbx, %rdi
	call	strlen@PLT
	movq	_ZSt4cout@GOTPCREL(%rip), %rdi
	movq	%rax, %rdx
	movq	%rbx, %rsi
	call	_ZSt16__ostream_insertIcSt11char_traitsIcEERSt13basic_ostreamIT_T0_ES6_PKS3_l@PLT
	movq	_ZSt4cout@GOTPCREL(%rip), %rdi
	call	_ZSt4endlIcSt11char_traitsIcEERSt13basic_ostreamIT_T0_ES6_@PLT
	movq	-728(%rbp), %rdx
	movq	-736(%rbp), %rsi
	movq	-1088(%rbp), %rdi
	call	_ZNSt7__cxx1112basic_stringIcSt11char_traitsIcESaIcEE9_M_appendEPKcm@PLT
	movq	_ZSt4cout@GOTPCREL(%rip), %rdi
	leaq	.LC51(%rip), %rsi
	movl	$8, %edx
	call	_ZSt16__ostream_insertIcSt11char_traitsIcEERSt13basic_ostreamIT_T0_ES6_PKS3_l@PLT
	movq	-952(%rbp), %rdx
	movq	-960(%rbp), %rsi
	movq	_ZSt4cout@GOTPCREL(%rip), %rdi
	call	_ZSt16__ostream_insertIcSt11char_traitsIcEERSt13basic_ostreamIT_T0_ES6_PKS3_l@PLT
	movq	%rax, %rdi
	call	_ZSt4endlIcSt11char_traitsIcEERSt13basic_ostreamIT_T0_ES6_@PLT
	leaq	-704(%rbp), %rax
	leaq	.LC46(%rip), %rdx
	movq	%rax, %rdi
	movq	%rax, -1064(%rbp)
	movq	%rdx, %rsi
	addq	$16, %rax
	movq	%rax, -704(%rbp)
	call	_ZNSt7__cxx1112basic_stringIcSt11char_traitsIcESaIcEE12_M_constructIPKcEEvT_S8_St20forward_iterator_tag.isra.37
.LEHE130:
	movl	-1044(%rbp), %eax
	testl	%eax, %eax
	jle	.L868
	leaq	-992(%rbp), %rax
	leaq	-336(%rbp), %r14
	xorl	%r12d, %r12d
	movq	%rax, -1072(%rbp)
	leaq	-1000(%rbp), %rax
	leaq	16(%r14), %r15
	movq	%rax, -1080(%rbp)
	.p2align 4,,10
	.p2align 3
.L869:
	leaq	16+_ZTVN5decaf12SecureBufferE(%rip), %rax
	movl	$56, %edi
	movq	$0, -984(%rbp)
	movq	$56, -976(%rbp)
	movq	%rax, -992(%rbp)
.LEHB131:
	call	_Znam@PLT
.LEHE131:
	leaq	8(%rax), %rdi
	movq	%rax, -984(%rbp)
	movq	$0, (%rax)
	movq	$0, 48(%rax)
	movl	%r12d, %r8d
	andq	$-8, %rdi
	subq	%rdi, %rax
	leal	56(%rax), %ecx
	xorl	%eax, %eax
	shrl	$3, %ecx
	rep stosq
	movl	$32, %ecx
	movq	-1040(%rbp), %rax
	movq	-1056(%rbp), %rdx
	movq	-1016(%rbp), %rdi
	movq	%r14, -1016(%rbp)
	movzbl	(%rax,%r12), %r9d
	movq	%r12, %rax
	salq	$8, %rax
	leaq	32(%rdx,%rax), %rsi
	movq	-1024(%rbp), %rdx
	rep movsq
	movq	-1032(%rbp), %rcx
	movq	-1072(%rbp), %rdi
	movq	%r14, %rsi
.LEHB132:
	call	_Z7decryptRN5decaf12SecureBufferENS_5Ed4485PointERKNS2_6ScalarES6_ih
.LEHE132:
	movq	%r14, %rdi
.LEHB133:
	call	decaf_448_point_destroy@PLT
.LEHE133:
	movq	-984(%rbp), %r13
	movq	-976(%rbp), %rbx
	movq	%r15, -336(%rbp)
	movq	%r13, %rax
	addq	%rbx, %rax
	je	.L860
	testq	%r13, %r13
	jne	.L860
	leaq	.LC19(%rip), %rdi
.LEHB134:
	call	_ZSt19__throw_logic_errorPKc@PLT
.LEHE134:
	.p2align 4,,10
	.p2align 3
.L860:
	cmpq	$15, %rbx
	movq	%rbx, -1000(%rbp)
	ja	.L990
	cmpq	$1, %rbx
	je	.L991
	testq	%rbx, %rbx
	movq	%r15, %rax
	jne	.L992
.L865:
	movq	%rbx, -328(%rbp)
	movq	-1064(%rbp), %rdi
	movb	$0, (%rax,%rbx)
	movq	-328(%rbp), %rdx
	movq	-336(%rbp), %rsi
.LEHB135:
	call	_ZNSt7__cxx1112basic_stringIcSt11char_traitsIcESaIcEE9_M_appendEPKcm@PLT
.LEHE135:
	movq	-336(%rbp), %rdi
	cmpq	%r15, %rdi
	je	.L866
	call	_ZdlPv@PLT
.L866:
	movq	-984(%rbp), %rdi
	leaq	16+_ZTVN5decaf12SecureBufferE(%rip), %rax
	movq	%rax, -992(%rbp)
	testq	%rdi, %rdi
	je	.L867
	movq	-976(%rbp), %rsi
.LEHB136:
	call	decaf_bzero@PLT
.LEHE136:
	movq	-984(%rbp), %rdi
	testq	%rdi, %rdi
	je	.L867
	call	_ZdaPv@PLT
.L867:
	addq	$1, %r12
	cmpl	%r12d, -1044(%rbp)
	jg	.L869
.L868:
	movq	_ZSt4cout@GOTPCREL(%rip), %rdi
	leaq	.LC58(%rip), %rsi
	movl	$14, %edx
.LEHB137:
	call	_ZSt16__ostream_insertIcSt11char_traitsIcEERSt13basic_ostreamIT_T0_ES6_PKS3_l@PLT
	movq	-696(%rbp), %rdx
	movq	-704(%rbp), %rsi
	movq	_ZSt4cout@GOTPCREL(%rip), %rdi
	call	_ZSt16__ostream_insertIcSt11char_traitsIcEERSt13basic_ostreamIT_T0_ES6_PKS3_l@PLT
	movq	%rax, %rdi
	call	_ZSt4endlIcSt11char_traitsIcEERSt13basic_ostreamIT_T0_ES6_@PLT
.LEHE137:
	movq	-1064(%rbp), %rax
	movq	-704(%rbp), %rdi
	addq	$16, %rax
	cmpq	%rax, %rdi
	je	.L872
	call	_ZdlPv@PLT
.L872:
	movq	-1120(%rbp), %rax
	movq	-736(%rbp), %rdi
	addq	$16, %rax
	cmpq	%rax, %rdi
	je	.L873
	call	_ZdlPv@PLT
.L873:
	movq	-1112(%rbp), %rax
	movq	-800(%rbp), %rdi
	addq	$16, %rax
	cmpq	%rax, %rdi
	je	.L874
	call	_ZdlPv@PLT
.L874:
	movq	-1136(%rbp), %rax
	movq	-832(%rbp), %rdi
	addq	$16, %rax
	cmpq	%rax, %rdi
	je	.L875
	call	_ZdlPv@PLT
.L875:
	movq	-1128(%rbp), %rax
	movq	-864(%rbp), %rdi
	addq	$16, %rax
	cmpq	%rax, %rdi
	je	.L876
	call	_ZdlPv@PLT
.L876:
	movq	-1032(%rbp), %rdi
	call	_ZN5decaf5Ed4486ScalarD1Ev
	movq	-1104(%rbp), %rax
	movq	-928(%rbp), %rdi
	addq	$16, %rax
	cmpq	%rax, %rdi
	je	.L877
	call	_ZdlPv@PLT
.L877:
	movq	-1088(%rbp), %rax
	movq	-960(%rbp), %rdi
	addq	$16, %rax
	cmpq	%rax, %rdi
	je	.L878
	call	_ZdlPv@PLT
.L878:
	movq	-1024(%rbp), %rdi
	call	_ZN5decaf5Ed4486ScalarD1Ev
	movq	-1096(%rbp), %rdi
	call	_ZN5decaf12KeccakSpongeD2Ev
	movq	-56(%rbp), %rsi
	xorq	%fs:40, %rsi
	movl	$1, %eax
	jne	.L993
	addq	$1088, %rsp
	popq	%rbx
	popq	%r10
	.cfi_remember_state
	.cfi_def_cfa 10, 0
	popq	%r12
	popq	%r13
	popq	%r14
	popq	%r15
	popq	%rbp
	leaq	-8(%r10), %rsp
	.cfi_def_cfa 7, 8
	ret
	.p2align 4,,10
	.p2align 3
.L990:
	.cfi_restore_state
	movq	-1080(%rbp), %rsi
	xorl	%edx, %edx
	movq	%r14, %rdi
.LEHB138:
	call	_ZNSt7__cxx1112basic_stringIcSt11char_traitsIcESaIcEE9_M_createERmm@PLT
.LEHE138:
	movq	%rax, %rdi
	movq	%rax, -336(%rbp)
	movq	-1000(%rbp), %rax
	movq	%rax, -320(%rbp)
.L863:
	movq	%rbx, %rdx
	movq	%r13, %rsi
	call	memcpy@PLT
	movq	-1000(%rbp), %rbx
	movq	-336(%rbp), %rax
	jmp	.L865
	.p2align 4,,10
	.p2align 3
.L991:
	movzbl	0(%r13), %eax
	movb	%al, -320(%rbp)
	movq	%r15, %rax
	jmp	.L865
	.p2align 4,,10
	.p2align 3
.L992:
	movq	%r15, %rdi
	jmp	.L863
.L984:
	movq	_ZSt4cout@GOTPCREL(%rip), %rax
	movq	_ZSt4cout@GOTPCREL(%rip), %rdi
	movq	(%rax), %rax
	addq	-24(%rax), %rdi
	movl	32(%rdi), %esi
	orl	$1, %esi
.LEHB139:
	call	_ZNSt9basic_iosIcSt11char_traitsIcEE5clearESt12_Ios_Iostate@PLT
	jmp	.L818
	.p2align 4,,10
	.p2align 3
.L929:
	cmpq	$-4, %rdx
	je	.L994
.L960:
	movq	%rax, %r12
	vzeroupper
.L844:
	movq	-1112(%rbp), %rax
	movq	-800(%rbp), %rdi
	addq	$16, %rax
	cmpq	%rax, %rdi
	je	.L893
	call	_ZdlPv@PLT
.L893:
	movq	-1136(%rbp), %rax
	movq	-832(%rbp), %rdi
	addq	$16, %rax
	cmpq	%rax, %rdi
	je	.L895
	call	_ZdlPv@PLT
.L895:
	movq	-1128(%rbp), %rax
	movq	-864(%rbp), %rdi
	addq	$16, %rax
	cmpq	%rax, %rdi
	je	.L897
	call	_ZdlPv@PLT
.L897:
	movq	-1032(%rbp), %rdi
	call	_ZN5decaf5Ed4486ScalarD1Ev
.L835:
	movq	-1104(%rbp), %rax
	movq	-928(%rbp), %rdi
	addq	$16, %rax
	cmpq	%rax, %rdi
	je	.L899
	call	_ZdlPv@PLT
.L899:
	movq	-1088(%rbp), %rax
	movq	-960(%rbp), %rdi
	addq	$16, %rax
	cmpq	%rax, %rdi
	je	.L900
	call	_ZdlPv@PLT
.L900:
	movq	%r12, %rbx
.L901:
	movq	-1024(%rbp), %rdi
	call	_ZN5decaf5Ed4486ScalarD1Ev
	movq	-1096(%rbp), %rdi
	call	_ZN5decaf12KeccakSpongeD2Ev
.L964:
	movq	%rbx, %rdi
	call	_Unwind_Resume@PLT
.LEHE139:
	.p2align 4,,10
	.p2align 3
.L921:
	movq	%rax, %rbx
	vzeroupper
.L885:
	leaq	16+_ZTVN5decaf12SecureBufferE(%rip), %rax
	movq	%rbx, %r12
	movq	%rax, -992(%rbp)
	movq	-1072(%rbp), %rax
	leaq	16(%rax), %rsi
	leaq	8(%rax), %rdi
	call	_ZN5decaf12SecureBuffer5clearEv.isra.15
.L888:
	movq	-1064(%rbp), %rax
	movq	-704(%rbp), %rdi
	addq	$16, %rax
	cmpq	%rax, %rdi
	je	.L890
	call	_ZdlPv@PLT
.L890:
	movq	-1120(%rbp), %rax
	movq	-736(%rbp), %rdi
	addq	$16, %rax
	cmpq	%rax, %rdi
	je	.L844
	call	_ZdlPv@PLT
	jmp	.L844
.L914:
	movq	%rax, %r12
	vzeroupper
	jmp	.L897
.L913:
.L971:
	movq	-896(%rbp), %rdi
	addq	$16, %rbx
	movq	%rax, %r12
	cmpq	%rbx, %rdi
	je	.L954
	vzeroupper
	call	_ZdlPv@PLT
	jmp	.L835
.L926:
	jmp	.L971
.L985:
	movl	$24, %edi
	call	__cxa_allocate_exception@PLT
	leaq	16+_ZTVN5decaf9SpongeRng12RngExceptionE(%rip), %rsi
	leaq	_ZN5decaf9SpongeRng12RngExceptionD1Ev(%rip), %rdx
	movl	%ebx, 16(%rax)
	movq	%rax, %rdi
	movq	%rsi, (%rax)
	leaq	.LC45(%rip), %rsi
	movq	%rsi, 8(%rax)
	leaq	_ZTIN5decaf9SpongeRng12RngExceptionE(%rip), %rsi
.LEHB140:
	call	__cxa_throw@PLT
.LEHE140:
.L986:
	leaq	.LC49(%rip), %rdi
.LEHB141:
	call	_ZSt20__throw_length_errorPKc@PLT
.LEHE141:
.L917:
	jmp	.L960
.L927:
.L967:
	cmpq	$-3, %rdx
	movq	%rax, %rdi
	je	.L871
	vzeroupper
.LEHB142:
	call	_Unwind_Resume@PLT
.L928:
.L973:
	movq	-768(%rbp), %rdi
	addq	$16, %rbx
	movq	%rax, %r12
	cmpq	%rbx, %rdi
	je	.L955
	vzeroupper
	call	_ZdlPv@PLT
	jmp	.L844
.L918:
	jmp	.L973
.L910:
	movq	%rax, %rbx
	vzeroupper
	jmp	.L901
.L871:
	vzeroupper
	call	__cxa_call_unexpected@PLT
.LEHE142:
.L954:
	vzeroupper
	jmp	.L835
.L955:
	vzeroupper
	jmp	.L844
.L994:
	movq	%rax, %rdi
	vzeroupper
.LEHB143:
	call	__cxa_call_unexpected@PLT
.LEHE143:
.L919:
	movq	%rax, %r12
	vzeroupper
	jmp	.L890
.L931:
	jmp	.L967
.L930:
	jmp	.L967
.L911:
	movq	%rax, %r12
	vzeroupper
	jmp	.L899
.L989:
	movl	$56, %edx
	jmp	.L851
.L922:
	movq	-336(%rbp), %rdi
	addq	$16, %r14
	movq	%rax, %rbx
	cmpq	%r14, %rdi
	je	.L956
	vzeroupper
	call	_ZdlPv@PLT
	jmp	.L885
.L993:
	call	__stack_chk_fail@PLT
.L956:
	vzeroupper
	jmp	.L885
.L916:
	movq	%rax, %r12
	vzeroupper
	jmp	.L893
.L915:
	movq	%rax, %r12
	vzeroupper
	jmp	.L895
.L924:
	movq	-1096(%rbp), %rdi
	movq	%rax, %rbx
	movq	%rdx, %r12
	vzeroupper
	call	_ZN5decaf12KeccakSpongeD2Ev
	cmpq	$-1, %r12
	je	.L995
.L826:
	movq	-1016(%rbp), %rax
	movq	-336(%rbp), %rdi
	addq	$16, %rax
	cmpq	%rax, %rdi
	je	.L964
	call	_ZdlPv@PLT
	jmp	.L964
.L987:
	leaq	.LC49(%rip), %rdi
.LEHB144:
	call	_ZSt20__throw_length_errorPKc@PLT
.LEHE144:
.L995:
	movq	%rbx, %rdi
.LEHB145:
	call	__cxa_call_unexpected@PLT
.LEHE145:
.L920:
	movq	%rax, %rbx
	movq	%r14, %rdi
	vzeroupper
	call	_ZN5decaf5Ed4485PointD1Ev
	jmp	.L885
.L912:
	movq	%rax, %r12
	vzeroupper
	jmp	.L835
.L925:
	jmp	.L967
.L923:
	movq	%rax, %r12
	vzeroupper
	jmp	.L888
.L909:
	movq	%rax, %rbx
	vzeroupper
	jmp	.L826
	.cfi_endproc
.LFE1829:
	.section	.gcc_except_table._Z11wwh_encryptPcS_,"a",@progbits
	.align 4
.LLSDA1829:
	.byte	0xff
	.byte	0x9b
	.uleb128 .LLSDATT1829-.LLSDATTD1829
.LLSDATTD1829:
	.byte	0x1
	.uleb128 .LLSDACSE1829-.LLSDACSB1829
.LLSDACSB1829:
	.uleb128 .LEHB109-.LFB1829
	.uleb128 .LEHE109-.LEHB109
	.uleb128 0
	.uleb128 0
	.uleb128 .LEHB110-.LFB1829
	.uleb128 .LEHE110-.LEHB110
	.uleb128 .L924-.LFB1829
	.uleb128 0x3
	.uleb128 .LEHB111-.LFB1829
	.uleb128 .LEHE111-.LEHB111
	.uleb128 .L910-.LFB1829
	.uleb128 0
	.uleb128 .LEHB112-.LFB1829
	.uleb128 .LEHE112-.LEHB112
	.uleb128 .L911-.LFB1829
	.uleb128 0
	.uleb128 .LEHB113-.LFB1829
	.uleb128 .LEHE113-.LEHB113
	.uleb128 .L925-.LFB1829
	.uleb128 0x5
	.uleb128 .LEHB114-.LFB1829
	.uleb128 .LEHE114-.LEHB114
	.uleb128 .L911-.LFB1829
	.uleb128 0
	.uleb128 .LEHB115-.LFB1829
	.uleb128 .LEHE115-.LEHB115
	.uleb128 .L912-.LFB1829
	.uleb128 0
	.uleb128 .LEHB116-.LFB1829
	.uleb128 .LEHE116-.LEHB116
	.uleb128 .L926-.LFB1829
	.uleb128 0
	.uleb128 .LEHB117-.LFB1829
	.uleb128 .LEHE117-.LEHB117
	.uleb128 .L913-.LFB1829
	.uleb128 0
	.uleb128 .LEHB118-.LFB1829
	.uleb128 .LEHE118-.LEHB118
	.uleb128 .L912-.LFB1829
	.uleb128 0
	.uleb128 .LEHB119-.LFB1829
	.uleb128 .LEHE119-.LEHB119
	.uleb128 .L914-.LFB1829
	.uleb128 0
	.uleb128 .LEHB120-.LFB1829
	.uleb128 .LEHE120-.LEHB120
	.uleb128 .L915-.LFB1829
	.uleb128 0
	.uleb128 .LEHB121-.LFB1829
	.uleb128 .LEHE121-.LEHB121
	.uleb128 .L916-.LFB1829
	.uleb128 0
	.uleb128 .LEHB122-.LFB1829
	.uleb128 .LEHE122-.LEHB122
	.uleb128 .L927-.LFB1829
	.uleb128 0x5
	.uleb128 .LEHB123-.LFB1829
	.uleb128 .LEHE123-.LEHB123
	.uleb128 .L916-.LFB1829
	.uleb128 0
	.uleb128 .LEHB124-.LFB1829
	.uleb128 .LEHE124-.LEHB124
	.uleb128 .L917-.LFB1829
	.uleb128 0
	.uleb128 .LEHB125-.LFB1829
	.uleb128 .LEHE125-.LEHB125
	.uleb128 .L928-.LFB1829
	.uleb128 0
	.uleb128 .LEHB126-.LFB1829
	.uleb128 .LEHE126-.LEHB126
	.uleb128 .L918-.LFB1829
	.uleb128 0
	.uleb128 .LEHB127-.LFB1829
	.uleb128 .LEHE127-.LEHB127
	.uleb128 .L917-.LFB1829
	.uleb128 0
	.uleb128 .LEHB128-.LFB1829
	.uleb128 .LEHE128-.LEHB128
	.uleb128 .L929-.LFB1829
	.uleb128 0x7
	.uleb128 .LEHB129-.LFB1829
	.uleb128 .LEHE129-.LEHB129
	.uleb128 .L917-.LFB1829
	.uleb128 0
	.uleb128 .LEHB130-.LFB1829
	.uleb128 .LEHE130-.LEHB130
	.uleb128 .L919-.LFB1829
	.uleb128 0
	.uleb128 .LEHB131-.LFB1829
	.uleb128 .LEHE131-.LEHB131
	.uleb128 .L923-.LFB1829
	.uleb128 0
	.uleb128 .LEHB132-.LFB1829
	.uleb128 .LEHE132-.LEHB132
	.uleb128 .L920-.LFB1829
	.uleb128 0
	.uleb128 .LEHB133-.LFB1829
	.uleb128 .LEHE133-.LEHB133
	.uleb128 .L930-.LFB1829
	.uleb128 0x5
	.uleb128 .LEHB134-.LFB1829
	.uleb128 .LEHE134-.LEHB134
	.uleb128 .L921-.LFB1829
	.uleb128 0
	.uleb128 .LEHB135-.LFB1829
	.uleb128 .LEHE135-.LEHB135
	.uleb128 .L922-.LFB1829
	.uleb128 0
	.uleb128 .LEHB136-.LFB1829
	.uleb128 .LEHE136-.LEHB136
	.uleb128 .L931-.LFB1829
	.uleb128 0x5
	.uleb128 .LEHB137-.LFB1829
	.uleb128 .LEHE137-.LEHB137
	.uleb128 .L923-.LFB1829
	.uleb128 0
	.uleb128 .LEHB138-.LFB1829
	.uleb128 .LEHE138-.LEHB138
	.uleb128 .L921-.LFB1829
	.uleb128 0
	.uleb128 .LEHB139-.LFB1829
	.uleb128 .LEHE139-.LEHB139
	.uleb128 0
	.uleb128 0
	.uleb128 .LEHB140-.LFB1829
	.uleb128 .LEHE140-.LEHB140
	.uleb128 .L924-.LFB1829
	.uleb128 0x3
	.uleb128 .LEHB141-.LFB1829
	.uleb128 .LEHE141-.LEHB141
	.uleb128 .L926-.LFB1829
	.uleb128 0
	.uleb128 .LEHB142-.LFB1829
	.uleb128 .LEHE142-.LEHB142
	.uleb128 0
	.uleb128 0
	.uleb128 .LEHB143-.LFB1829
	.uleb128 .LEHE143-.LEHB143
	.uleb128 .L917-.LFB1829
	.uleb128 0
	.uleb128 .LEHB144-.LFB1829
	.uleb128 .LEHE144-.LEHB144
	.uleb128 .L928-.LFB1829
	.uleb128 0
	.uleb128 .LEHB145-.LFB1829
	.uleb128 .LEHE145-.LEHB145
	.uleb128 .L909-.LFB1829
	.uleb128 0
.LLSDACSE1829:
	.byte	0
	.byte	0
	.byte	0x7f
	.byte	0x7d
	.byte	0x7d
	.byte	0
	.byte	0x7c
	.byte	0x79
	.align 4
	.long	DW.ref._ZTIN5decaf15LengthExceptionE-.
	.long	DW.ref._ZTIN5decaf9SpongeRng12RngExceptionE-.
.LLSDATT1829:
	.byte	0x1
	.byte	0
	.byte	0
	.byte	0x2
	.byte	0
	.section	.text._Z11wwh_encryptPcS_
	.size	_Z11wwh_encryptPcS_, .-_Z11wwh_encryptPcS_
	.section	.text.unlikely._Z11wwh_encryptPcS_
.LCOLDE59:
	.section	.text._Z11wwh_encryptPcS_
.LHOTE59:
	.section	.rodata.str1.1
.LC60:
	.string	"second_decrypt:"
	.section	.text.unlikely._Z10basic_testv,"ax",@progbits
.LCOLDB61:
	.section	.text._Z10basic_testv,"ax",@progbits
.LHOTB61:
	.p2align 4,,15
	.globl	_Z10basic_testv
	.hidden	_Z10basic_testv
	.type	_Z10basic_testv, @function
_Z10basic_testv:
.LFB1833:
	.cfi_startproc
	.cfi_personality 0x9b,DW.ref.__gxx_personality_v0
	.cfi_lsda 0x1b,.LLSDA1833
	leaq	8(%rsp), %r10
	.cfi_def_cfa 10, 0
	andq	$-32, %rsp
	xorl	%edi, %edi
	pushq	-8(%r10)
	pushq	%rbp
	.cfi_escape 0x10,0x6,0x2,0x76,0
	movq	%rsp, %rbp
	pushq	%r15
	pushq	%r14
	.cfi_escape 0x10,0xf,0x2,0x76,0x78
	.cfi_escape 0x10,0xe,0x2,0x76,0x70
	leaq	-160(%rbp), %r15
	pushq	%r13
	pushq	%r12
	pushq	%r10
	.cfi_escape 0xf,0x3,0x76,0x58,0x6
	.cfi_escape 0x10,0xd,0x2,0x76,0x68
	.cfi_escape 0x10,0xc,0x2,0x76,0x60
	pushq	%rbx
	leaq	_ZZ10gen_randomPciE8alphanum(%rip), %r14
	leaq	100(%r15), %r12
	movq	%r15, %r13
	.cfi_escape 0x10,0x3,0x2,0x76,0x50
	movabsq	$-8925843906633654007, %rbx
	subq	$1120, %rsp
	movq	%fs:40, %rax
	movq	%rax, -56(%rbp)
	xorl	%eax, %eax
	call	time@PLT
	movl	%eax, %edi
	call	srand@PLT
	.p2align 4,,10
	.p2align 3
.L997:
	call	rand@PLT
	movslq	%eax, %rcx
	addq	$1, %r13
	movq	%rcx, %rdx
	shrq	%rdx
	movq	%rdx, %rax
	mulq	%rbx
	shrq	$4, %rdx
	movq	%rdx, %rsi
	leaq	(%rcx,%rdx,2), %rax
	salq	$6, %rsi
	subq	%rsi, %rax
	movzbl	(%r14,%rax), %eax
	movb	%al, -1(%r13)
	cmpq	%r12, %r13
	jne	.L997
	movq	_ZSt4cout@GOTPCREL(%rip), %rdi
	leaq	.LC42(%rip), %rsi
	movl	$9, %edx
	movb	$0, -60(%rbp)
.LEHB146:
	call	_ZSt16__ostream_insertIcSt11char_traitsIcEERSt13basic_ostreamIT_T0_ES6_PKS3_l@PLT
	movq	%r15, %rdx
.L998:
	movl	(%rdx), %ecx
	addq	$4, %rdx
	leal	-16843009(%rcx), %eax
	notl	%ecx
	andl	%ecx, %eax
	andl	$-2139062144, %eax
	je	.L998
	movl	%eax, %ecx
	movq	_ZSt4cout@GOTPCREL(%rip), %rdi
	movq	%r15, %r14
	shrl	$16, %ecx
	testl	$32896, %eax
	cmove	%ecx, %eax
	leaq	2(%rdx), %rcx
	movl	%eax, %esi
	cmove	%rcx, %rdx
	addb	%al, %sil
	movq	%r15, %rsi
	sbbq	$3, %rdx
	subq	%r15, %rdx
	call	_ZSt16__ostream_insertIcSt11char_traitsIcEERSt13basic_ostreamIT_T0_ES6_PKS3_l@PLT
	movq	_ZSt4cout@GOTPCREL(%rip), %rdi
	call	_ZSt4endlIcSt11char_traitsIcEERSt13basic_ostreamIT_T0_ES6_@PLT
.L1000:
	movl	(%r14), %edx
	addq	$4, %r14
	leal	-16843009(%rdx), %eax
	notl	%edx
	andl	%edx, %eax
	andl	$-2139062144, %eax
	je	.L1000
	movl	%eax, %edx
	movq	_ZSt4cout@GOTPCREL(%rip), %rdi
	shrl	$16, %edx
	testl	$32896, %eax
	cmove	%edx, %eax
	leaq	2(%r14), %rdx
	movl	%eax, %esi
	cmove	%rdx, %r14
	addb	%al, %sil
	movabsq	$2635249153387078803, %rdx
	sbbq	$3, %r14
	leaq	.LC43(%rip), %rsi
	subq	%r15, %r14
	movq	%r14, %rax
	shrq	$3, %rax
	mulq	%rdx
	leal	1(%rdx), %eax
	movl	$11, %edx
	movl	%eax, %ebx
	movl	%eax, -1052(%rbp)
	call	_ZSt16__ostream_insertIcSt11char_traitsIcEERSt13basic_ostreamIT_T0_ES6_PKS3_l@PLT
	movq	_ZSt4cout@GOTPCREL(%rip), %rdi
	movl	%ebx, %esi
	call	_ZNSolsEi@PLT
	movq	%rax, %rdi
	call	_ZSt4endlIcSt11char_traitsIcEERSt13basic_ostreamIT_T0_ES6_@PLT
	movslq	%ebx, %rax
	movq	$-1, %rdi
	movq	%rax, %rsi
	movq	%rax, -1136(%rbp)
	movabsq	$35747322042253312, %rax
	cmpq	%rax, %rsi
	jbe	.L1177
.L1002:
	call	_Znam@PLT
	movq	-1136(%rbp), %rsi
	movq	%rax, -1088(%rbp)
	leaq	32(%rax), %r12
	movq	%rsi, 24(%rax)
	leaq	-1(%rsi), %rax
	cmpq	$-1, %rax
	movq	%rax, -1152(%rbp)
	je	.L1005
	movq	decaf_448_point_identity@GOTPCREL(%rip), %rax
	movq	-1088(%rbp), %r9
	movq	%rsi, %r8
	xorl	%edx, %edx
	.p2align 4,,10
	.p2align 3
.L1003:
	movq	%rdx, %rcx
	addq	$1, %rdx
	movq	%rax, %rsi
	salq	$8, %rcx
	cmpq	%rdx, %r8
	leaq	32(%r9,%rcx), %rdi
	movl	$32, %ecx
	rep movsq
	jne	.L1003
.L1005:
	movq	-1136(%rbp), %rdi
	call	_Znam@PLT
	movq	%rax, -1072(%rbp)
	leaq	-432(%rbp), %rax
	leaq	12+.LC44(%rip), %rdx
	leaq	.LC44(%rip), %rsi
	movq	%rax, %rdi
	movq	%rax, -1048(%rbp)
	addq	$16, %rax
	movq	%rax, -432(%rbp)
	call	_ZNSt7__cxx1112basic_stringIcSt11char_traitsIcESaIcEE12_M_constructIPKcEEvT_S8_St20forward_iterator_tag.isra.37
.LEHE146:
	leaq	-640(%rbp), %rax
	movq	-432(%rbp), %rsi
	xorl	%ecx, %ecx
	movl	$32, %edx
	movq	%rax, %rdi
	movq	%rax, -1144(%rbp)
.LEHB147:
	call	spongerng_init_from_file@PLT
.LEHE147:
	testl	%eax, %eax
	movl	%eax, %ebx
	jne	.L1178
	movq	-1048(%rbp), %rax
	movq	-432(%rbp), %rdi
	addq	$16, %rax
	cmpq	%rax, %rdi
	je	.L1010
	call	_ZdlPv@PLT
.L1010:
	movq	-1144(%rbp), %r13
	leaq	-896(%rbp), %rax
	movq	%rax, %rdi
	movq	%rax, %rbx
	movq	%rax, -1080(%rbp)
	movq	%r13, %rsi
	call	_ZN5decaf5Ed4486ScalarC1ERNS_9SpongeRngE
	leaq	-832(%rbp), %rax
	movq	%r13, %rsi
	movq	%rax, %rdi
	movq	%rax, %r13
	movq	%rax, -1104(%rbp)
	call	_ZN5decaf5Ed4486ScalarC1ERNS_9SpongeRngE
	leaq	-768(%rbp), %rax
	movq	%rbx, %rdx
	movq	%r13, %rsi
	movq	%rax, %rdi
	movq	%rax, -1128(%rbp)
.LEHB148:
	call	decaf_448_scalar_sub@PLT
.LEHE148:
	leaq	-704(%rbp), %rax
	movq	-1144(%rbp), %rsi
	xorl	%r13d, %r13d
	xorl	%ebx, %ebx
	movq	%rax, %rdi
	movq	%rax, -1064(%rbp)
	call	_ZN5decaf5Ed4486ScalarC1ERNS_9SpongeRngE
	movl	-1052(%rbp), %esi
	leaq	-1024(%rbp), %rax
	movq	%rax, -1096(%rbp)
	testl	%esi, %esi
	jg	.L1141
	jmp	.L1023
	.p2align 4,,10
	.p2align 3
.L1179:
	cmpq	%r14, %rax
	ja	.L1017
	movq	%r14, %rdx
	subq	%rax, %rdx
.L1019:
	leaq	16+_ZTVN5decaf5BlockE(%rip), %rsi
	movq	%rdx, -1008(%rbp)
	movq	-1064(%rbp), %rcx
	movq	-1080(%rbp), %rdx
	addq	%r15, %rax
	movq	%r12, %rdi
	movq	%rsi, -1024(%rbp)
	movq	-1096(%rbp), %rsi
	movq	%rax, -1016(%rbp)
.LEHB149:
	call	_Z7encryptRN5decaf5Ed4485PointERKNS_5BlockERKNS0_6ScalarES8_i
.LEHE149:
	movq	-1072(%rbp), %rsi
	addl	$56, %r13d
	addq	$256, %r12
	movb	%al, (%rsi,%rbx)
	addq	$1, %rbx
	cmpl	%ebx, -1052(%rbp)
	jle	.L1023
.L1141:
	movl	%r13d, %eax
	movl	%ebx, %r8d
	leaq	56(%rax), %rdx
	cmpq	%r14, %rdx
	jnb	.L1179
	cmpq	%r14, %rax
	ja	.L1017
	movq	%r14, %rdx
	subq	%rax, %rdx
	cmpq	$55, %rdx
	ja	.L1180
.L1017:
	movl	$8, %edi
	call	__cxa_allocate_exception@PLT
	leaq	16+_ZTVN5decaf15LengthExceptionE(%rip), %rdx
	leaq	_ZTIN5decaf15LengthExceptionE(%rip), %rsi
	movq	%rax, %rdi
	movq	%rdx, (%rax)
	leaq	_ZN5decaf15LengthExceptionD1Ev(%rip), %rdx
.LEHB150:
	call	__cxa_throw@PLT
.LEHE150:
.L1177:
	movq	%rsi, %rdi
	salq	$8, %rdi
	addq	$32, %rdi
	jmp	.L1002
	.p2align 4,,10
	.p2align 3
.L1023:
	leaq	-992(%rbp), %rax
	leaq	.LC46(%rip), %rdx
	movq	%rax, %rdi
	movq	%rax, -1096(%rbp)
	movq	%rdx, %rsi
	addq	$16, %rax
	movq	%rax, -992(%rbp)
.LEHB151:
	call	_ZNSt7__cxx1112basic_stringIcSt11char_traitsIcESaIcEE12_M_constructIPKcEEvT_S8_St20forward_iterator_tag.isra.37
.LEHE151:
	movl	-1052(%rbp), %ecx
	testl	%ecx, %ecx
	jle	.L1037
	leaq	-1024(%rbp), %rax
	leaq	-432(%rbp), %r14
	xorl	%r12d, %r12d
	movq	%rax, -1112(%rbp)
	leaq	-960(%rbp), %rax
	leaq	16(%rax), %r15
	movq	%rax, -1120(%rbp)
	.p2align 4,,10
	.p2align 3
.L1038:
	leaq	16+_ZTVN5decaf12SecureBufferE(%rip), %rax
	movl	$56, %edi
	movq	$0, -1016(%rbp)
	movq	$56, -1008(%rbp)
	movq	%rax, -1024(%rbp)
.LEHB152:
	call	_Znam@PLT
.LEHE152:
	leaq	8(%rax), %rdi
	movq	%rax, -1016(%rbp)
	movq	$0, (%rax)
	movq	$0, 48(%rax)
	movl	%r12d, %r8d
	andq	$-8, %rdi
	subq	%rdi, %rax
	leal	56(%rax), %ecx
	xorl	%eax, %eax
	shrl	$3, %ecx
	rep stosq
	movl	$32, %ecx
	movq	-1072(%rbp), %rax
	movq	-1088(%rbp), %rdx
	movq	-1048(%rbp), %rdi
	movq	%r14, -1048(%rbp)
	movzbl	(%rax,%r12), %r9d
	movq	%r12, %rax
	salq	$8, %rax
	leaq	32(%rdx,%rax), %rsi
	movq	-1080(%rbp), %rdx
	rep movsq
	movq	-1064(%rbp), %rcx
	movq	-1112(%rbp), %rdi
	movq	%r14, %rsi
.LEHB153:
	call	_Z7decryptRN5decaf12SecureBufferENS_5Ed4485PointERKNS2_6ScalarES6_ih
.LEHE153:
	movq	%r14, %rdi
.LEHB154:
	call	decaf_448_point_destroy@PLT
.LEHE154:
	movq	-1016(%rbp), %r13
	movq	-1008(%rbp), %rbx
	movq	%r15, -960(%rbp)
	movq	%r13, %rax
	addq	%rbx, %rax
	je	.L1029
	testq	%r13, %r13
	jne	.L1029
	leaq	.LC19(%rip), %rdi
.LEHB155:
	call	_ZSt19__throw_logic_errorPKc@PLT
.LEHE155:
	.p2align 4,,10
	.p2align 3
.L1029:
	cmpq	$15, %rbx
	movq	%rbx, -1040(%rbp)
	ja	.L1181
	cmpq	$1, %rbx
	je	.L1182
	testq	%rbx, %rbx
	movq	%r15, %rax
	jne	.L1183
.L1034:
	movq	%rbx, -952(%rbp)
	movq	-1096(%rbp), %rdi
	movb	$0, (%rax,%rbx)
	movq	-952(%rbp), %rdx
	movq	-960(%rbp), %rsi
.LEHB156:
	call	_ZNSt7__cxx1112basic_stringIcSt11char_traitsIcESaIcEE9_M_appendEPKcm@PLT
.LEHE156:
	movq	-960(%rbp), %rdi
	cmpq	%r15, %rdi
	je	.L1035
	call	_ZdlPv@PLT
.L1035:
	movq	-1016(%rbp), %rdi
	leaq	16+_ZTVN5decaf12SecureBufferE(%rip), %rax
	movq	%rax, -1024(%rbp)
	testq	%rdi, %rdi
	je	.L1036
	movq	-1008(%rbp), %rsi
.LEHB157:
	call	decaf_bzero@PLT
.LEHE157:
	movq	-1016(%rbp), %rdi
	testq	%rdi, %rdi
	je	.L1036
	call	_ZdaPv@PLT
.L1036:
	addq	$1, %r12
	cmpl	%r12d, -1052(%rbp)
	jg	.L1038
.L1037:
	movq	_ZSt4cout@GOTPCREL(%rip), %rdi
	leaq	.LC58(%rip), %rsi
	movl	$14, %edx
.LEHB158:
	call	_ZSt16__ostream_insertIcSt11char_traitsIcEERSt13basic_ostreamIT_T0_ES6_PKS3_l@PLT
	movq	-984(%rbp), %rdx
	movq	-992(%rbp), %rsi
	movq	_ZSt4cout@GOTPCREL(%rip), %rdi
	call	_ZSt16__ostream_insertIcSt11char_traitsIcEERSt13basic_ostreamIT_T0_ES6_PKS3_l@PLT
	movq	%rax, %rdi
	call	_ZSt4endlIcSt11char_traitsIcEERSt13basic_ostreamIT_T0_ES6_@PLT
	movq	-1136(%rbp), %rsi
	movabsq	$35747322042253312, %rax
	movq	$-1, %rdi
	cmpq	%rax, %rsi
	ja	.L1041
	movq	%rsi, %rdi
	salq	$8, %rdi
	addq	$32, %rdi
.L1041:
	call	_Znam@PLT
.LEHE158:
	cmpq	$-1, -1152(%rbp)
	movq	-1136(%rbp), %rsi
	leaq	32(%rax), %r12
	movq	%rax, -1112(%rbp)
	movq	%rsi, 24(%rax)
	je	.L1045
	movq	%rax, %r9
	movq	decaf_448_point_identity@GOTPCREL(%rip), %rax
	movq	%rsi, %r8
	xorl	%edx, %edx
	.p2align 4,,10
	.p2align 3
.L1042:
	movq	%rdx, %rcx
	addq	$1, %rdx
	movq	%rax, %rsi
	salq	$8, %rcx
	cmpq	%rdx, %r8
	leaq	32(%r9,%rcx), %rdi
	movl	$32, %ecx
	rep movsq
	jne	.L1042
.L1045:
	movl	-1052(%rbp), %edx
	xorl	%ebx, %ebx
	leaq	-432(%rbp), %r13
	testl	%edx, %edx
	jle	.L1043
	.p2align 4,,10
	.p2align 3
.L1046:
	movq	-1088(%rbp), %rdx
	movq	%rbx, %rax
	movq	-1048(%rbp), %rdi
	salq	$8, %rax
	movl	$32, %ecx
	movl	%ebx, %r8d
	movq	%r13, -1048(%rbp)
	leaq	32(%rdx,%rax), %rsi
	movq	-1128(%rbp), %rdx
	rep movsq
	movq	-1064(%rbp), %rcx
	movq	%r13, %rsi
	movq	%r12, %rdi
.LEHB159:
	call	_Z5rekeyRN5decaf5Ed4485PointES1_RKNS0_6ScalarES5_i
.LEHE159:
	movq	%r13, %rdi
.LEHB160:
	call	decaf_448_point_destroy@PLT
.LEHE160:
	addq	$1, %rbx
	addq	$256, %r12
	cmpl	%ebx, -1052(%rbp)
	jg	.L1046
.L1043:
	leaq	-928(%rbp), %rax
	leaq	.LC46(%rip), %rdx
	movq	%rax, %rdi
	movq	%rax, -1088(%rbp)
	movq	%rdx, %rsi
	addq	$16, %rax
	movq	%rax, -928(%rbp)
.LEHB161:
	call	_ZNSt7__cxx1112basic_stringIcSt11char_traitsIcESaIcEE12_M_constructIPKcEEvT_S8_St20forward_iterator_tag.isra.37
.LEHE161:
	movl	-1052(%rbp), %eax
	testl	%eax, %eax
	jle	.L1061
	leaq	-1024(%rbp), %rax
	leaq	-432(%rbp), %r14
	xorl	%r12d, %r12d
	movq	%rax, -1120(%rbp)
	leaq	-1032(%rbp), %rax
	leaq	16(%r14), %r15
	movq	%rax, -1136(%rbp)
	.p2align 4,,10
	.p2align 3
.L1062:
	leaq	16+_ZTVN5decaf12SecureBufferE(%rip), %rax
	movl	$56, %edi
	movq	$0, -1016(%rbp)
	movq	$56, -1008(%rbp)
	movq	%rax, -1024(%rbp)
.LEHB162:
	call	_Znam@PLT
.LEHE162:
	leaq	8(%rax), %rdi
	movq	%rax, -1016(%rbp)
	movq	$0, (%rax)
	movq	$0, 48(%rax)
	movl	%r12d, %r8d
	andq	$-8, %rdi
	subq	%rdi, %rax
	leal	56(%rax), %ecx
	xorl	%eax, %eax
	shrl	$3, %ecx
	rep stosq
	movl	$32, %ecx
	movq	-1072(%rbp), %rax
	movq	-1112(%rbp), %rdx
	movq	-1048(%rbp), %rdi
	movq	%r14, -1048(%rbp)
	movzbl	(%rax,%r12), %r9d
	movq	%r12, %rax
	salq	$8, %rax
	leaq	32(%rdx,%rax), %rsi
	movq	-1104(%rbp), %rdx
	rep movsq
	movq	-1064(%rbp), %rcx
	movq	-1120(%rbp), %rdi
	movq	%r14, %rsi
.LEHB163:
	call	_Z7decryptRN5decaf12SecureBufferENS_5Ed4485PointERKNS2_6ScalarES6_ih
.LEHE163:
	movq	%r14, %rdi
.LEHB164:
	call	decaf_448_point_destroy@PLT
.LEHE164:
	movq	-1016(%rbp), %r13
	movq	-1008(%rbp), %rbx
	movq	%r15, -432(%rbp)
	movq	%r13, %rax
	addq	%rbx, %rax
	je	.L1053
	testq	%r13, %r13
	jne	.L1053
	leaq	.LC19(%rip), %rdi
.LEHB165:
	call	_ZSt19__throw_logic_errorPKc@PLT
.LEHE165:
	.p2align 4,,10
	.p2align 3
.L1053:
	cmpq	$15, %rbx
	movq	%rbx, -1032(%rbp)
	ja	.L1184
	cmpq	$1, %rbx
	je	.L1185
	testq	%rbx, %rbx
	movq	%r15, %rax
	jne	.L1186
.L1058:
	movq	%rbx, -424(%rbp)
	movq	-1088(%rbp), %rdi
	movb	$0, (%rax,%rbx)
	movq	-424(%rbp), %rdx
	movq	-432(%rbp), %rsi
.LEHB166:
	call	_ZNSt7__cxx1112basic_stringIcSt11char_traitsIcESaIcEE9_M_appendEPKcm@PLT
.LEHE166:
	movq	-432(%rbp), %rdi
	cmpq	%r15, %rdi
	je	.L1059
	call	_ZdlPv@PLT
.L1059:
	movq	-1016(%rbp), %rdi
	leaq	16+_ZTVN5decaf12SecureBufferE(%rip), %rax
	movq	%rax, -1024(%rbp)
	testq	%rdi, %rdi
	je	.L1060
	movq	-1008(%rbp), %rsi
.LEHB167:
	call	decaf_bzero@PLT
.LEHE167:
	movq	-1016(%rbp), %rdi
	testq	%rdi, %rdi
	je	.L1060
	call	_ZdaPv@PLT
.L1060:
	addq	$1, %r12
	cmpl	%r12d, -1052(%rbp)
	jg	.L1062
.L1061:
	movq	_ZSt4cout@GOTPCREL(%rip), %rdi
	leaq	.LC60(%rip), %rsi
	movl	$15, %edx
.LEHB168:
	call	_ZSt16__ostream_insertIcSt11char_traitsIcEERSt13basic_ostreamIT_T0_ES6_PKS3_l@PLT
	movq	-920(%rbp), %rdx
	movq	-928(%rbp), %rsi
	movq	_ZSt4cout@GOTPCREL(%rip), %rdi
	call	_ZSt16__ostream_insertIcSt11char_traitsIcEERSt13basic_ostreamIT_T0_ES6_PKS3_l@PLT
	movq	%rax, %rdi
	call	_ZSt4endlIcSt11char_traitsIcEERSt13basic_ostreamIT_T0_ES6_@PLT
.LEHE168:
	movq	-984(%rbp), %rdx
	xorl	%ebx, %ebx
	cmpq	-920(%rbp), %rdx
	movq	-928(%rbp), %r12
	je	.L1187
.L1066:
	movq	-1088(%rbp), %rax
	addq	$16, %rax
	cmpq	%rax, %r12
	je	.L1067
	movq	%r12, %rdi
	call	_ZdlPv@PLT
.L1067:
	movq	-1096(%rbp), %rax
	movq	-992(%rbp), %rdi
	addq	$16, %rax
	cmpq	%rax, %rdi
	je	.L1068
	call	_ZdlPv@PLT
.L1068:
	movq	-1064(%rbp), %rdi
	call	_ZN5decaf5Ed4486ScalarD1Ev
	movq	-1128(%rbp), %rdi
	call	_ZN5decaf5Ed4486ScalarD1Ev
	movq	-1104(%rbp), %rdi
	call	_ZN5decaf5Ed4486ScalarD1Ev
	movq	-1080(%rbp), %rdi
	call	_ZN5decaf5Ed4486ScalarD1Ev
	movq	-1144(%rbp), %rdi
	call	_ZN5decaf12KeccakSpongeD2Ev
	movq	-56(%rbp), %rsi
	xorq	%fs:40, %rsi
	movl	%ebx, %eax
	jne	.L1188
	addq	$1120, %rsp
	popq	%rbx
	popq	%r10
	.cfi_remember_state
	.cfi_def_cfa 10, 0
	popq	%r12
	popq	%r13
	popq	%r14
	popq	%r15
	popq	%rbp
	leaq	-8(%r10), %rsp
	.cfi_def_cfa 7, 8
	ret
	.p2align 4,,10
	.p2align 3
.L1181:
	.cfi_restore_state
	movq	-1120(%rbp), %rdi
	leaq	-1040(%rbp), %rsi
	xorl	%edx, %edx
.LEHB169:
	call	_ZNSt7__cxx1112basic_stringIcSt11char_traitsIcESaIcEE9_M_createERmm@PLT
.LEHE169:
	movq	%rax, %rdi
	movq	%rax, -960(%rbp)
	movq	-1040(%rbp), %rax
	movq	%rax, -944(%rbp)
.L1032:
	movq	%rbx, %rdx
	movq	%r13, %rsi
	call	memcpy@PLT
	movq	-1040(%rbp), %rbx
	movq	-960(%rbp), %rax
	jmp	.L1034
	.p2align 4,,10
	.p2align 3
.L1184:
	movq	-1136(%rbp), %rsi
	xorl	%edx, %edx
	movq	%r14, %rdi
.LEHB170:
	call	_ZNSt7__cxx1112basic_stringIcSt11char_traitsIcESaIcEE9_M_createERmm@PLT
.LEHE170:
	movq	%rax, %rdi
	movq	%rax, -432(%rbp)
	movq	-1032(%rbp), %rax
	movq	%rax, -416(%rbp)
.L1056:
	movq	%rbx, %rdx
	movq	%r13, %rsi
	call	memcpy@PLT
	movq	-1032(%rbp), %rbx
	movq	-432(%rbp), %rax
	jmp	.L1058
	.p2align 4,,10
	.p2align 3
.L1182:
	movzbl	0(%r13), %eax
	movb	%al, -944(%rbp)
	movq	%r15, %rax
	jmp	.L1034
	.p2align 4,,10
	.p2align 3
.L1185:
	movzbl	0(%r13), %eax
	movb	%al, -416(%rbp)
	movq	%r15, %rax
	jmp	.L1058
	.p2align 4,,10
	.p2align 3
.L1183:
	movq	%r15, %rdi
	jmp	.L1032
	.p2align 4,,10
	.p2align 3
.L1186:
	movq	%r15, %rdi
	jmp	.L1056
.L1187:
	testq	%rdx, %rdx
	movl	$1, %ebx
	je	.L1066
	movq	-992(%rbp), %rdi
	movq	%r12, %rsi
	call	memcmp@PLT
	testl	%eax, %eax
	sete	%bl
	jmp	.L1066
	.p2align 4,,10
	.p2align 3
.L1109:
	cmpq	$-4, %rdx
	je	.L1189
.L1156:
	movq	%rax, %rbx
	vzeroupper
.L1022:
	movq	-1064(%rbp), %rdi
	call	_ZN5decaf5Ed4486ScalarD1Ev
	movq	-1128(%rbp), %rdi
	call	_ZN5decaf5Ed4486ScalarD1Ev
	movq	-1104(%rbp), %rdi
	call	_ZN5decaf5Ed4486ScalarD1Ev
	movq	-1080(%rbp), %rdi
	call	_ZN5decaf5Ed4486ScalarD1Ev
	movq	-1144(%rbp), %rdi
	call	_ZN5decaf12KeccakSpongeD2Ev
.L1160:
	movq	%rbx, %rdi
.L1161:
.LEHB171:
	call	_Unwind_Resume@PLT
.LEHE171:
	.p2align 4,,10
	.p2align 3
.L1099:
	movq	%rax, %rbx
	vzeroupper
.L1071:
	leaq	16+_ZTVN5decaf12SecureBufferE(%rip), %rax
	movq	%rax, -1024(%rbp)
	movq	-1112(%rbp), %rax
	leaq	16(%rax), %rsi
	leaq	8(%rax), %rdi
	call	_ZN5decaf12SecureBuffer5clearEv.isra.15
.L1074:
	movq	-1096(%rbp), %rax
	movq	-992(%rbp), %rdi
	addq	$16, %rax
	cmpq	%rax, %rdi
	je	.L1022
	call	_ZdlPv@PLT
	jmp	.L1022
	.p2align 4,,10
	.p2align 3
.L1104:
	movq	%rax, %rbx
	vzeroupper
.L1077:
	leaq	16+_ZTVN5decaf12SecureBufferE(%rip), %rax
	movq	%rax, -1024(%rbp)
	movq	-1120(%rbp), %rax
	leaq	16(%rax), %rsi
	leaq	8(%rax), %rdi
	call	_ZN5decaf12SecureBuffer5clearEv.isra.15
.L1080:
	movq	-1088(%rbp), %rax
	movq	-928(%rbp), %rdi
	addq	$16, %rax
	cmpq	%rax, %rdi
	je	.L1074
	call	_ZdlPv@PLT
	jmp	.L1074
.L1189:
	movq	%rax, %rdi
	vzeroupper
.LEHB172:
	call	__cxa_call_unexpected@PLT
.LEHE172:
.L1106:
	movq	%rax, %rbx
	vzeroupper
	jmp	.L1080
.L1103:
	movq	%rax, %rbx
	movq	%r14, %rdi
	vzeroupper
	call	_ZN5decaf5Ed4485PointD1Ev
	jmp	.L1077
.L1100:
	movq	%rax, %rbx
	movq	-1120(%rbp), %rax
	movq	-960(%rbp), %rdi
	addq	$16, %rax
	cmpq	%rax, %rdi
	je	.L1152
	vzeroupper
	call	_ZdlPv@PLT
	jmp	.L1071
.L1111:
.L1167:
	cmpq	$-3, %rdx
	movq	%rax, %rdi
	je	.L1031
	vzeroupper
	jmp	.L1161
.L1152:
	vzeroupper
	jmp	.L1071
.L1031:
	vzeroupper
.L1158:
.LEHB173:
	call	__cxa_call_unexpected@PLT
.L1102:
	movq	%rax, %rbx
	movq	%r13, %rdi
	vzeroupper
	call	_ZN5decaf5Ed4485PointD1Ev
	jmp	.L1074
.L1112:
.L1164:
	cmpq	$-3, %rdx
	movq	%rax, %rdi
	je	.L1031
	vzeroupper
	call	_Unwind_Resume@PLT
.LEHE173:
.L1105:
	movq	-432(%rbp), %rdi
	addq	$16, %r14
	movq	%rax, %rbx
	cmpq	%r14, %rdi
	je	.L1153
	vzeroupper
	call	_ZdlPv@PLT
	jmp	.L1077
.L1114:
	jmp	.L1164
.L1153:
	vzeroupper
	jmp	.L1077
.L1188:
	call	__stack_chk_fail@PLT
.L1113:
	jmp	.L1164
.L1101:
	movq	%rax, %rbx
	vzeroupper
	jmp	.L1074
.L1098:
	movq	%rax, %rbx
	movq	%r14, %rdi
	vzeroupper
	call	_ZN5decaf5Ed4485PointD1Ev
	jmp	.L1071
.L1110:
	jmp	.L1167
.L1180:
	movl	$56, %edx
	jmp	.L1019
.L1107:
	movq	-1144(%rbp), %rdi
	movq	%rax, %rbx
	movq	%rdx, %r12
	vzeroupper
	call	_ZN5decaf12KeccakSpongeD2Ev
	cmpq	$-1, %r12
	je	.L1190
.L1009:
	movq	-1048(%rbp), %rax
	movq	-432(%rbp), %rdi
	addq	$16, %rax
	cmpq	%rax, %rdi
	je	.L1160
	call	_ZdlPv@PLT
	jmp	.L1160
.L1178:
	movl	$24, %edi
	call	__cxa_allocate_exception@PLT
	leaq	16+_ZTVN5decaf9SpongeRng12RngExceptionE(%rip), %rsi
	leaq	_ZN5decaf9SpongeRng12RngExceptionD1Ev(%rip), %rdx
	movl	%ebx, 16(%rax)
	movq	%rax, %rdi
	movq	%rsi, (%rax)
	leaq	.LC45(%rip), %rsi
	movq	%rsi, 8(%rax)
	leaq	_ZTIN5decaf9SpongeRng12RngExceptionE(%rip), %rsi
.LEHB174:
	call	__cxa_throw@PLT
.LEHE174:
.L1190:
	movq	%rbx, %rdi
.LEHB175:
	call	__cxa_call_unexpected@PLT
.LEHE175:
.L1108:
	movq	-1128(%rbp), %rdi
	movq	%rax, %rbx
	movq	%rdx, %r12
	vzeroupper
	call	_ZN5decaf5Ed4486ScalarD1Ev
	cmpq	$-3, %r12
	movq	%rbx, %rdi
	jne	.L1161
	jmp	.L1158
.L1097:
	jmp	.L1156
.L1096:
	movq	%rax, %rbx
	vzeroupper
	jmp	.L1009
	.cfi_endproc
.LFE1833:
	.section	.gcc_except_table._Z10basic_testv,"a",@progbits
	.align 4
.LLSDA1833:
	.byte	0xff
	.byte	0x9b
	.uleb128 .LLSDATT1833-.LLSDATTD1833
.LLSDATTD1833:
	.byte	0x1
	.uleb128 .LLSDACSE1833-.LLSDACSB1833
.LLSDACSB1833:
	.uleb128 .LEHB146-.LFB1833
	.uleb128 .LEHE146-.LEHB146
	.uleb128 0
	.uleb128 0
	.uleb128 .LEHB147-.LFB1833
	.uleb128 .LEHE147-.LEHB147
	.uleb128 .L1107-.LFB1833
	.uleb128 0x3
	.uleb128 .LEHB148-.LFB1833
	.uleb128 .LEHE148-.LEHB148
	.uleb128 .L1108-.LFB1833
	.uleb128 0x7
	.uleb128 .LEHB149-.LFB1833
	.uleb128 .LEHE149-.LEHB149
	.uleb128 .L1097-.LFB1833
	.uleb128 0
	.uleb128 .LEHB150-.LFB1833
	.uleb128 .LEHE150-.LEHB150
	.uleb128 .L1109-.LFB1833
	.uleb128 0x9
	.uleb128 .LEHB151-.LFB1833
	.uleb128 .LEHE151-.LEHB151
	.uleb128 .L1097-.LFB1833
	.uleb128 0
	.uleb128 .LEHB152-.LFB1833
	.uleb128 .LEHE152-.LEHB152
	.uleb128 .L1101-.LFB1833
	.uleb128 0
	.uleb128 .LEHB153-.LFB1833
	.uleb128 .LEHE153-.LEHB153
	.uleb128 .L1098-.LFB1833
	.uleb128 0
	.uleb128 .LEHB154-.LFB1833
	.uleb128 .LEHE154-.LEHB154
	.uleb128 .L1110-.LFB1833
	.uleb128 0x5
	.uleb128 .LEHB155-.LFB1833
	.uleb128 .LEHE155-.LEHB155
	.uleb128 .L1099-.LFB1833
	.uleb128 0
	.uleb128 .LEHB156-.LFB1833
	.uleb128 .LEHE156-.LEHB156
	.uleb128 .L1100-.LFB1833
	.uleb128 0
	.uleb128 .LEHB157-.LFB1833
	.uleb128 .LEHE157-.LEHB157
	.uleb128 .L1111-.LFB1833
	.uleb128 0x5
	.uleb128 .LEHB158-.LFB1833
	.uleb128 .LEHE158-.LEHB158
	.uleb128 .L1101-.LFB1833
	.uleb128 0
	.uleb128 .LEHB159-.LFB1833
	.uleb128 .LEHE159-.LEHB159
	.uleb128 .L1102-.LFB1833
	.uleb128 0
	.uleb128 .LEHB160-.LFB1833
	.uleb128 .LEHE160-.LEHB160
	.uleb128 .L1112-.LFB1833
	.uleb128 0x5
	.uleb128 .LEHB161-.LFB1833
	.uleb128 .LEHE161-.LEHB161
	.uleb128 .L1101-.LFB1833
	.uleb128 0
	.uleb128 .LEHB162-.LFB1833
	.uleb128 .LEHE162-.LEHB162
	.uleb128 .L1106-.LFB1833
	.uleb128 0
	.uleb128 .LEHB163-.LFB1833
	.uleb128 .LEHE163-.LEHB163
	.uleb128 .L1103-.LFB1833
	.uleb128 0
	.uleb128 .LEHB164-.LFB1833
	.uleb128 .LEHE164-.LEHB164
	.uleb128 .L1113-.LFB1833
	.uleb128 0x5
	.uleb128 .LEHB165-.LFB1833
	.uleb128 .LEHE165-.LEHB165
	.uleb128 .L1104-.LFB1833
	.uleb128 0
	.uleb128 .LEHB166-.LFB1833
	.uleb128 .LEHE166-.LEHB166
	.uleb128 .L1105-.LFB1833
	.uleb128 0
	.uleb128 .LEHB167-.LFB1833
	.uleb128 .LEHE167-.LEHB167
	.uleb128 .L1114-.LFB1833
	.uleb128 0x5
	.uleb128 .LEHB168-.LFB1833
	.uleb128 .LEHE168-.LEHB168
	.uleb128 .L1106-.LFB1833
	.uleb128 0
	.uleb128 .LEHB169-.LFB1833
	.uleb128 .LEHE169-.LEHB169
	.uleb128 .L1099-.LFB1833
	.uleb128 0
	.uleb128 .LEHB170-.LFB1833
	.uleb128 .LEHE170-.LEHB170
	.uleb128 .L1104-.LFB1833
	.uleb128 0
	.uleb128 .LEHB171-.LFB1833
	.uleb128 .LEHE171-.LEHB171
	.uleb128 0
	.uleb128 0
	.uleb128 .LEHB172-.LFB1833
	.uleb128 .LEHE172-.LEHB172
	.uleb128 .L1097-.LFB1833
	.uleb128 0
	.uleb128 .LEHB173-.LFB1833
	.uleb128 .LEHE173-.LEHB173
	.uleb128 0
	.uleb128 0
	.uleb128 .LEHB174-.LFB1833
	.uleb128 .LEHE174-.LEHB174
	.uleb128 .L1107-.LFB1833
	.uleb128 0x3
	.uleb128 .LEHB175-.LFB1833
	.uleb128 .LEHE175-.LEHB175
	.uleb128 .L1096-.LFB1833
	.uleb128 0
.LLSDACSE1833:
	.byte	0
	.byte	0
	.byte	0x7f
	.byte	0x7d
	.byte	0x7d
	.byte	0
	.byte	0
	.byte	0x7d
	.byte	0x7c
	.byte	0x77
	.align 4
	.long	DW.ref._ZTIN5decaf15LengthExceptionE-.
	.long	DW.ref._ZTIN5decaf9SpongeRng12RngExceptionE-.
.LLSDATT1833:
	.byte	0x1
	.byte	0
	.byte	0
	.byte	0x2
	.byte	0
	.section	.text._Z10basic_testv
	.size	_Z10basic_testv, .-_Z10basic_testv
	.section	.text.unlikely._Z10basic_testv
.LCOLDE61:
	.section	.text._Z10basic_testv
.LHOTE61:
	.section	.rodata.str1.1
.LC64:
	.string	"Encrypt time: "
.LC65:
	.string	"Decrypt time: "
.LC66:
	.string	"Rekey time: "
	.section	.text.unlikely._Z14run_benchmarksPKc,"ax",@progbits
.LCOLDB67:
	.section	.text._Z14run_benchmarksPKc,"ax",@progbits
.LHOTB67:
	.p2align 4,,15
	.globl	_Z14run_benchmarksPKc
	.hidden	_Z14run_benchmarksPKc
	.type	_Z14run_benchmarksPKc, @function
_Z14run_benchmarksPKc:
.LFB1834:
	.cfi_startproc
	.cfi_personality 0x9b,DW.ref.__gxx_personality_v0
	.cfi_lsda 0x1b,.LLSDA1834
	leaq	8(%rsp), %r10
	.cfi_def_cfa 10, 0
	andq	$-32, %rsp
	pushq	-8(%r10)
	pushq	%rbp
	.cfi_escape 0x10,0x6,0x2,0x76,0
	movq	%rsp, %rbp
	pushq	%r15
	pushq	%r14
	pushq	%r13
	pushq	%r12
	pushq	%r10
	.cfi_escape 0xf,0x3,0x76,0x58,0x6
	.cfi_escape 0x10,0xf,0x2,0x76,0x78
	.cfi_escape 0x10,0xe,0x2,0x76,0x70
	.cfi_escape 0x10,0xd,0x2,0x76,0x68
	.cfi_escape 0x10,0xc,0x2,0x76,0x60
	pushq	%rbx
	subq	$896, %rsp
	.cfi_escape 0x10,0x3,0x2,0x76,0x50
	movq	%rdi, -920(%rbp)
	movq	%fs:40, %rax
	movq	%rax, -56(%rbp)
	xorl	%eax, %eax
	call	strlen@PLT
	movq	%rax, %r12
	movq	%rax, -896(%rbp)
	movabsq	$2635249153387078803, %rdx
	shrq	$3, %r12
	movq	$-1, %rdi
	movq	%r12, %rax
	mulq	%rdx
	leal	1(%rdx), %eax
	movq	%rdx, %r12
	movl	%eax, -836(%rbp)
	cltq
	movq	%rax, %rdx
	movq	%rax, -880(%rbp)
	movabsq	$35747322042253312, %rax
	cmpq	%rax, %rdx
	ja	.L1192
	movq	%rdx, %rax
	salq	$8, %rax
	movq	%rax, %rdi
	addq	$32, %rdi
.L1192:
.LEHB176:
	call	_Znam@PLT
	movq	%rax, %r15
	movq	-880(%rbp), %rax
	leaq	32(%r15), %rdx
	movq	%rax, 24(%r15)
	subq	$1, %rax
	movq	%rdx, -888(%rbp)
	cmpq	$-1, %rax
	movq	%rax, -904(%rbp)
	je	.L1195
	movq	decaf_448_point_identity@GOTPCREL(%rip), %r8
	movq	-880(%rbp), %r9
	xorl	%eax, %eax
.L1193:
	movq	%rax, %rdx
	addq	$1, %rax
	movl	$32, %ecx
	salq	$8, %rdx
	cmpq	%rax, %r9
	movq	%r8, %rsi
	leaq	32(%r15,%rdx), %rdi
	rep movsq
	jne	.L1193
.L1195:
	movq	-880(%rbp), %rdi
	leaq	-336(%rbp), %rbx
	call	_Znam@PLT
	leaq	12+.LC44(%rip), %rdx
	leaq	.LC44(%rip), %rsi
	movq	%rax, %r14
	leaq	16(%rbx), %rax
	movq	%rbx, %rdi
	movq	%rax, -336(%rbp)
	call	_ZNSt7__cxx1112basic_stringIcSt11char_traitsIcESaIcEE12_M_constructIPKcEEvT_S8_St20forward_iterator_tag.isra.37
.LEHE176:
	leaq	-544(%rbp), %rax
	movq	-336(%rbp), %rsi
	xorl	%ecx, %ecx
	movl	$32, %edx
	movq	%rax, %rdi
	movq	%rax, -928(%rbp)
.LEHB177:
	call	spongerng_init_from_file@PLT
.LEHE177:
	testl	%eax, %eax
	movl	%eax, %r13d
	jne	.L1283
	movq	-336(%rbp), %rdi
	leaq	16(%rbx), %rax
	cmpq	%rax, %rdi
	je	.L1200
	call	_ZdlPv@PLT
.L1200:
	leaq	-800(%rbp), %rax
	movq	-928(%rbp), %rsi
	movq	%rax, %rdi
	movq	%rax, %r13
	movq	%rax, -864(%rbp)
	call	_ZN5decaf5Ed4486ScalarC1ERNS_9SpongeRngE
	leaq	-736(%rbp), %rax
	movq	-928(%rbp), %rsi
	movq	%rax, %rdi
	movq	%rax, -936(%rbp)
	call	_ZN5decaf5Ed4486ScalarC1ERNS_9SpongeRngE
	leaq	-672(%rbp), %rdx
	movq	-936(%rbp), %rsi
	movq	%rdx, %rdi
	movq	%rdx, -872(%rbp)
	movq	%r13, %rdx
.LEHB178:
	call	decaf_448_scalar_sub@PLT
.LEHE178:
	leaq	-608(%rbp), %rax
	movq	-928(%rbp), %rsi
	movq	%rax, %rdi
	movq	%rax, -848(%rbp)
	call	_ZN5decaf5Ed4486ScalarC1ERNS_9SpongeRngE
	leaq	-832(%rbp), %rax
	xorl	%esi, %esi
	movq	%rax, %rdi
	movq	%rax, -856(%rbp)
	call	gettimeofday@PLT
	vxorpd	%xmm0, %xmm0, %xmm0
	movl	-836(%rbp), %ecx
	vxorpd	%xmm1, %xmm1, %xmm1
	vcvtsi2sdq	-824(%rbp), %xmm0, %xmm0
	vdivsd	.LC62(%rip), %xmm0, %xmm0
	testl	%ecx, %ecx
	vcvtsi2sdq	-832(%rbp), %xmm1, %xmm1
	vaddsd	%xmm1, %xmm0, %xmm3
	vmovsd	%xmm3, -944(%rbp)
	jle	.L1213
	movl	%r12d, %eax
	movq	-888(%rbp), %r13
	xorl	%r12d, %r12d
	salq	$8, %rax
	movl	$0, -888(%rbp)
	leaq	288(%r15,%rax), %rax
	movq	%rax, -912(%rbp)
	jmp	.L1214
	.p2align 4,,10
	.p2align 3
.L1284:
	cmpq	%rsi, %rax
	ja	.L1207
	movq	%rsi, %rdx
	subq	%rax, %rdx
.L1209:
	leaq	16+_ZTVN5decaf5BlockE(%rip), %rsi
	addq	-920(%rbp), %rax
	movq	%rdx, -816(%rbp)
	movq	-848(%rbp), %rcx
	movq	-864(%rbp), %rdx
	movq	%r13, %rdi
	movq	%rsi, -832(%rbp)
	movq	-856(%rbp), %rsi
	movq	%rax, -824(%rbp)
.LEHB179:
	call	_Z7encryptRN5decaf5Ed4485PointERKNS_5BlockERKNS0_6ScalarES8_i
.LEHE179:
	movb	%al, (%r14,%r12)
	addl	$56, -888(%rbp)
	addq	$1, %r12
	addq	$256, %r13
	cmpq	-912(%rbp), %r13
	je	.L1213
.L1214:
	movl	-888(%rbp), %eax
	movq	-896(%rbp), %rsi
	movl	%r12d, %r8d
	leaq	56(%rax), %rdx
	cmpq	%rsi, %rdx
	jnb	.L1284
	cmpq	%rsi, %rax
	movq	%rsi, %rdx
	ja	.L1207
	subq	%rax, %rdx
	cmpq	$55, %rdx
	ja	.L1285
.L1207:
	movl	$8, %edi
	call	__cxa_allocate_exception@PLT
	leaq	16+_ZTVN5decaf15LengthExceptionE(%rip), %rdx
	leaq	_ZTIN5decaf15LengthExceptionE(%rip), %rsi
	movq	%rax, %rdi
	movq	%rdx, (%rax)
	leaq	_ZN5decaf15LengthExceptionD1Ev(%rip), %rdx
.LEHB180:
	call	__cxa_throw@PLT
.LEHE180:
.L1213:
	movq	-856(%rbp), %rdi
	xorl	%esi, %esi
	call	gettimeofday@PLT
	vxorpd	%xmm0, %xmm0, %xmm0
	movq	_ZSt4cout@GOTPCREL(%rip), %rdi
	vxorpd	%xmm1, %xmm1, %xmm1
	leaq	.LC64(%rip), %rsi
	vxorpd	%xmm6, %xmm6, %xmm6
	movl	$14, %edx
	vcvtsi2sdq	-824(%rbp), %xmm0, %xmm0
	vdivsd	.LC62(%rip), %xmm0, %xmm0
	vcvtsi2sdq	-832(%rbp), %xmm1, %xmm1
	vaddsd	%xmm1, %xmm0, %xmm0
	vsubsd	-944(%rbp), %xmm0, %xmm0
	vaddsd	%xmm6, %xmm0, %xmm5
	vmovsd	%xmm5, -888(%rbp)
.LEHB181:
	call	_ZSt16__ostream_insertIcSt11char_traitsIcEERSt13basic_ostreamIT_T0_ES6_PKS3_l@PLT
	movq	_ZSt4cout@GOTPCREL(%rip), %rdi
	vmovsd	-888(%rbp), %xmm0
	call	_ZNSo9_M_insertIdEERSoT_@PLT
	movq	%rax, %rdi
	call	_ZSt4endlIcSt11char_traitsIcEERSt13basic_ostreamIT_T0_ES6_@PLT
	movq	-856(%rbp), %rdi
	xorl	%esi, %esi
	xorl	%r12d, %r12d
	leaq	-336(%rbp), %r13
	call	gettimeofday@PLT
	movq	-832(%rbp), %rax
	movl	-836(%rbp), %edx
	movq	%rax, -888(%rbp)
	movq	-824(%rbp), %rax
	testl	%edx, %edx
	movq	%rax, -896(%rbp)
	jle	.L1221
	.p2align 4,,10
	.p2align 3
.L1258:
	leaq	16+_ZTVN5decaf12SecureBufferE(%rip), %rax
	movl	$56, %edi
	movq	$0, -824(%rbp)
	movq	$56, -816(%rbp)
	movq	%rax, -832(%rbp)
	call	_Znam@PLT
.LEHE181:
	leaq	8(%rax), %rdi
	movq	%rax, -824(%rbp)
	movq	$0, (%rax)
	movq	$0, 48(%rax)
	movl	%r12d, %r8d
	andq	$-8, %rdi
	subq	%rdi, %rax
	leal	56(%rax), %ecx
	xorl	%eax, %eax
	shrl	$3, %ecx
	rep stosq
	movq	%r12, %rax
	movq	%rbx, %rdi
	movl	$32, %ecx
	salq	$8, %rax
	movq	%r13, %rbx
	leaq	32(%r15,%rax), %rsi
	movzbl	(%r14,%r12), %r9d
	movq	-864(%rbp), %rdx
	rep movsq
	movq	-848(%rbp), %rcx
	movq	-856(%rbp), %rdi
	movq	%r13, %rsi
.LEHB182:
	call	_Z7decryptRN5decaf12SecureBufferENS_5Ed4485PointERKNS2_6ScalarES6_ih
.LEHE182:
	movq	%r13, %rdi
.LEHB183:
	call	decaf_448_point_destroy@PLT
.LEHE183:
	movq	-824(%rbp), %rdi
	leaq	16+_ZTVN5decaf12SecureBufferE(%rip), %rax
	movq	%rax, -832(%rbp)
	testq	%rdi, %rdi
	je	.L1217
	movq	-816(%rbp), %rsi
.LEHB184:
	call	decaf_bzero@PLT
.LEHE184:
	movq	-824(%rbp), %rdi
	testq	%rdi, %rdi
	je	.L1217
	call	_ZdaPv@PLT
.L1217:
	addq	$1, %r12
	cmpl	%r12d, -836(%rbp)
	jg	.L1258
.L1221:
	movq	-856(%rbp), %rdi
	xorl	%esi, %esi
	call	gettimeofday@PLT
	movq	_ZSt4cout@GOTPCREL(%rip), %rdi
	leaq	.LC65(%rip), %rsi
	movl	$14, %edx
	movq	-832(%rbp), %r13
	movq	-824(%rbp), %r12
.LEHB185:
	call	_ZSt16__ostream_insertIcSt11char_traitsIcEERSt13basic_ostreamIT_T0_ES6_PKS3_l@PLT
	vxorpd	%xmm0, %xmm0, %xmm0
	movq	_ZSt4cout@GOTPCREL(%rip), %rdi
	vxorpd	%xmm1, %xmm1, %xmm1
	vxorpd	%xmm2, %xmm2, %xmm2
	vcvtsi2sdq	%r12, %xmm0, %xmm0
	vdivsd	.LC62(%rip), %xmm0, %xmm0
	vcvtsi2sdq	%r13, %xmm1, %xmm1
	vcvtsi2sdq	-888(%rbp), %xmm2, %xmm2
	vxorpd	%xmm7, %xmm7, %xmm7
	vaddsd	%xmm1, %xmm0, %xmm0
	vxorpd	%xmm1, %xmm1, %xmm1
	vcvtsi2sdq	-896(%rbp), %xmm1, %xmm1
	vdivsd	.LC62(%rip), %xmm1, %xmm1
	vaddsd	%xmm2, %xmm1, %xmm1
	vsubsd	%xmm1, %xmm0, %xmm0
	vaddsd	%xmm7, %xmm0, %xmm0
	call	_ZNSo9_M_insertIdEERSoT_@PLT
	movq	%rax, %rdi
	call	_ZSt4endlIcSt11char_traitsIcEERSt13basic_ostreamIT_T0_ES6_@PLT
	movq	-856(%rbp), %rdi
	xorl	%esi, %esi
	call	gettimeofday@PLT
	movq	-832(%rbp), %rax
	movq	-880(%rbp), %rdx
	movq	$-1, %rdi
	movq	%rax, -888(%rbp)
	movq	-824(%rbp), %rax
	movq	%rax, -896(%rbp)
	movabsq	$35747322042253312, %rax
	cmpq	%rax, %rdx
	ja	.L1225
	movq	%rdx, %rdi
	salq	$8, %rdi
	addq	$32, %rdi
.L1225:
	call	_Znam@PLT
.LEHE185:
	cmpq	$-1, -904(%rbp)
	movq	-880(%rbp), %rdx
	leaq	32(%rax), %r13
	movq	%rdx, 24(%rax)
	je	.L1229
	movq	decaf_448_point_identity@GOTPCREL(%rip), %r8
	movq	%rdx, %r9
	xorl	%edx, %edx
	.p2align 4,,10
	.p2align 3
.L1226:
	movq	%rdx, %rcx
	addq	$1, %rdx
	movq	%r8, %rsi
	salq	$8, %rcx
	cmpq	%rdx, %r9
	leaq	32(%rax,%rcx), %rdi
	movl	$32, %ecx
	rep movsq
	jne	.L1226
.L1229:
	movl	-836(%rbp), %eax
	xorl	%r12d, %r12d
	leaq	-336(%rbp), %r14
	testl	%eax, %eax
	jle	.L1227
	.p2align 4,,10
	.p2align 3
.L1230:
	movq	%r12, %rax
	movq	%rbx, %rdi
	movl	$32, %ecx
	salq	$8, %rax
	movq	-872(%rbp), %rdx
	movl	%r12d, %r8d
	leaq	32(%r15,%rax), %rsi
	movq	%r14, %rbx
	rep movsq
	movq	-848(%rbp), %rcx
	movq	%r14, %rsi
	movq	%r13, %rdi
.LEHB186:
	call	_Z5rekeyRN5decaf5Ed4485PointES1_RKNS0_6ScalarES5_i
.LEHE186:
	movq	%r14, %rdi
.LEHB187:
	call	decaf_448_point_destroy@PLT
.LEHE187:
	addq	$1, %r12
	addq	$256, %r13
	cmpl	%r12d, -836(%rbp)
	jg	.L1230
.L1227:
	movq	-856(%rbp), %rdi
	xorl	%esi, %esi
	call	gettimeofday@PLT
	movq	_ZSt4cout@GOTPCREL(%rip), %rdi
	leaq	.LC66(%rip), %rsi
	movl	$12, %edx
	movq	-832(%rbp), %r12
	movq	-824(%rbp), %rbx
.LEHB188:
	call	_ZSt16__ostream_insertIcSt11char_traitsIcEERSt13basic_ostreamIT_T0_ES6_PKS3_l@PLT
	vxorpd	%xmm0, %xmm0, %xmm0
	movq	_ZSt4cout@GOTPCREL(%rip), %rdi
	vxorpd	%xmm1, %xmm1, %xmm1
	vxorpd	%xmm2, %xmm2, %xmm2
	vcvtsi2sdq	%rbx, %xmm0, %xmm0
	vdivsd	.LC62(%rip), %xmm0, %xmm0
	vcvtsi2sdq	%r12, %xmm1, %xmm1
	vcvtsi2sdq	-888(%rbp), %xmm2, %xmm2
	vxorpd	%xmm3, %xmm3, %xmm3
	vaddsd	%xmm1, %xmm0, %xmm0
	vxorpd	%xmm1, %xmm1, %xmm1
	vcvtsi2sdq	-896(%rbp), %xmm1, %xmm1
	vdivsd	.LC62(%rip), %xmm1, %xmm1
	vaddsd	%xmm2, %xmm1, %xmm1
	vsubsd	%xmm1, %xmm0, %xmm0
	vaddsd	%xmm3, %xmm0, %xmm0
	call	_ZNSo9_M_insertIdEERSoT_@PLT
	movq	%rax, %rdi
	call	_ZSt4endlIcSt11char_traitsIcEERSt13basic_ostreamIT_T0_ES6_@PLT
.LEHE188:
	movq	-848(%rbp), %rdi
	call	_ZN5decaf5Ed4486ScalarD1Ev
	movq	-872(%rbp), %rdi
	call	_ZN5decaf5Ed4486ScalarD1Ev
	movq	-936(%rbp), %rdi
	call	_ZN5decaf5Ed4486ScalarD1Ev
	movq	-864(%rbp), %rdi
	call	_ZN5decaf5Ed4486ScalarD1Ev
	movq	-928(%rbp), %rdi
	call	_ZN5decaf12KeccakSpongeD2Ev
	movq	-56(%rbp), %rax
	xorq	%fs:40, %rax
	jne	.L1286
	addq	$896, %rsp
	popq	%rbx
	popq	%r10
	.cfi_remember_state
	.cfi_def_cfa 10, 0
	popq	%r12
	popq	%r13
	popq	%r14
	popq	%r15
	popq	%rbp
	leaq	-8(%r10), %rsp
	.cfi_def_cfa 7, 8
	ret
	.p2align 4,,10
	.p2align 3
.L1248:
	.cfi_restore_state
	cmpq	$-4, %rdx
	je	.L1287
.L1270:
	movq	%rax, %rbx
	vzeroupper
.L1212:
	movq	-848(%rbp), %rdi
	call	_ZN5decaf5Ed4486ScalarD1Ev
	movq	-872(%rbp), %rdi
	call	_ZN5decaf5Ed4486ScalarD1Ev
	movq	-936(%rbp), %rdi
	call	_ZN5decaf5Ed4486ScalarD1Ev
	movq	-864(%rbp), %rdi
	call	_ZN5decaf5Ed4486ScalarD1Ev
	movq	-928(%rbp), %rdi
	call	_ZN5decaf12KeccakSpongeD2Ev
	movq	%rbx, %rdi
.LEHB189:
	call	_Unwind_Resume@PLT
.LEHE189:
.L1244:
	movq	%rax, %rbx
	movq	%r13, %rdi
	vzeroupper
	call	_ZN5decaf5Ed4485PointD1Ev
	leaq	16+_ZTVN5decaf12SecureBufferE(%rip), %rax
	movq	%rax, -832(%rbp)
	movq	-856(%rbp), %rax
	leaq	16(%rax), %rsi
	leaq	8(%rax), %rdi
	call	_ZN5decaf12SecureBuffer5clearEv.isra.15
	jmp	.L1212
.L1287:
	movq	%rax, %rdi
	vzeroupper
.LEHB190:
	call	__cxa_call_unexpected@PLT
.LEHE190:
.L1250:
.L1275:
	cmpq	$-3, %rdx
	movq	%rax, %rdi
	je	.L1220
	vzeroupper
.L1271:
.LEHB191:
	call	_Unwind_Resume@PLT
.L1249:
	jmp	.L1275
.L1220:
	vzeroupper
.L1272:
	call	__cxa_call_unexpected@PLT
.L1245:
	movq	%rax, %rbx
	movq	%r14, %rdi
	vzeroupper
	call	_ZN5decaf5Ed4485PointD1Ev
	jmp	.L1212
.L1251:
	jmp	.L1275
.L1286:
	call	__stack_chk_fail@PLT
.L1246:
	movq	-928(%rbp), %rdi
	movq	%rax, %r12
	movq	%rdx, %r13
	vzeroupper
	call	_ZN5decaf12KeccakSpongeD2Ev
	cmpq	$-1, %r13
	je	.L1288
.L1199:
	movq	-336(%rbp), %rdi
	addq	$16, %rbx
	cmpq	%rbx, %rdi
	je	.L1233
	call	_ZdlPv@PLT
.L1233:
	movq	%r12, %rdi
	call	_Unwind_Resume@PLT
.LEHE191:
.L1288:
	movq	%r12, %rdi
.LEHB192:
	call	__cxa_call_unexpected@PLT
.LEHE192:
.L1283:
	movl	$24, %edi
	call	__cxa_allocate_exception@PLT
	leaq	16+_ZTVN5decaf9SpongeRng12RngExceptionE(%rip), %rdx
	leaq	_ZTIN5decaf9SpongeRng12RngExceptionE(%rip), %rsi
	movl	%r13d, 16(%rax)
	movq	%rax, %rdi
	movq	%rdx, (%rax)
	leaq	.LC45(%rip), %rdx
	movq	%rdx, 8(%rax)
	leaq	_ZN5decaf9SpongeRng12RngExceptionD1Ev(%rip), %rdx
.LEHB193:
	call	__cxa_throw@PLT
.LEHE193:
.L1243:
	jmp	.L1270
.L1285:
	movl	$56, %edx
	jmp	.L1209
.L1247:
	movq	-872(%rbp), %rdi
	movq	%rax, %rbx
	movq	%rdx, %r12
	vzeroupper
	call	_ZN5decaf5Ed4486ScalarD1Ev
	cmpq	$-3, %r12
	movq	%rbx, %rdi
	jne	.L1271
	jmp	.L1272
.L1242:
	movq	%rax, %r12
	vzeroupper
	jmp	.L1199
	.cfi_endproc
.LFE1834:
	.section	.gcc_except_table._Z14run_benchmarksPKc,"a",@progbits
	.align 4
.LLSDA1834:
	.byte	0xff
	.byte	0x9b
	.uleb128 .LLSDATT1834-.LLSDATTD1834
.LLSDATTD1834:
	.byte	0x1
	.uleb128 .LLSDACSE1834-.LLSDACSB1834
.LLSDACSB1834:
	.uleb128 .LEHB176-.LFB1834
	.uleb128 .LEHE176-.LEHB176
	.uleb128 0
	.uleb128 0
	.uleb128 .LEHB177-.LFB1834
	.uleb128 .LEHE177-.LEHB177
	.uleb128 .L1246-.LFB1834
	.uleb128 0x3
	.uleb128 .LEHB178-.LFB1834
	.uleb128 .LEHE178-.LEHB178
	.uleb128 .L1247-.LFB1834
	.uleb128 0x7
	.uleb128 .LEHB179-.LFB1834
	.uleb128 .LEHE179-.LEHB179
	.uleb128 .L1243-.LFB1834
	.uleb128 0
	.uleb128 .LEHB180-.LFB1834
	.uleb128 .LEHE180-.LEHB180
	.uleb128 .L1248-.LFB1834
	.uleb128 0x9
	.uleb128 .LEHB181-.LFB1834
	.uleb128 .LEHE181-.LEHB181
	.uleb128 .L1243-.LFB1834
	.uleb128 0
	.uleb128 .LEHB182-.LFB1834
	.uleb128 .LEHE182-.LEHB182
	.uleb128 .L1244-.LFB1834
	.uleb128 0
	.uleb128 .LEHB183-.LFB1834
	.uleb128 .LEHE183-.LEHB183
	.uleb128 .L1250-.LFB1834
	.uleb128 0x5
	.uleb128 .LEHB184-.LFB1834
	.uleb128 .LEHE184-.LEHB184
	.uleb128 .L1249-.LFB1834
	.uleb128 0x5
	.uleb128 .LEHB185-.LFB1834
	.uleb128 .LEHE185-.LEHB185
	.uleb128 .L1243-.LFB1834
	.uleb128 0
	.uleb128 .LEHB186-.LFB1834
	.uleb128 .LEHE186-.LEHB186
	.uleb128 .L1245-.LFB1834
	.uleb128 0
	.uleb128 .LEHB187-.LFB1834
	.uleb128 .LEHE187-.LEHB187
	.uleb128 .L1251-.LFB1834
	.uleb128 0x5
	.uleb128 .LEHB188-.LFB1834
	.uleb128 .LEHE188-.LEHB188
	.uleb128 .L1243-.LFB1834
	.uleb128 0
	.uleb128 .LEHB189-.LFB1834
	.uleb128 .LEHE189-.LEHB189
	.uleb128 0
	.uleb128 0
	.uleb128 .LEHB190-.LFB1834
	.uleb128 .LEHE190-.LEHB190
	.uleb128 .L1243-.LFB1834
	.uleb128 0
	.uleb128 .LEHB191-.LFB1834
	.uleb128 .LEHE191-.LEHB191
	.uleb128 0
	.uleb128 0
	.uleb128 .LEHB192-.LFB1834
	.uleb128 .LEHE192-.LEHB192
	.uleb128 .L1242-.LFB1834
	.uleb128 0
	.uleb128 .LEHB193-.LFB1834
	.uleb128 .LEHE193-.LEHB193
	.uleb128 .L1246-.LFB1834
	.uleb128 0x3
.LLSDACSE1834:
	.byte	0
	.byte	0
	.byte	0x7f
	.byte	0x7d
	.byte	0x7d
	.byte	0
	.byte	0
	.byte	0x7d
	.byte	0x7c
	.byte	0x77
	.align 4
	.long	DW.ref._ZTIN5decaf15LengthExceptionE-.
	.long	DW.ref._ZTIN5decaf9SpongeRng12RngExceptionE-.
.LLSDATT1834:
	.byte	0x1
	.byte	0
	.byte	0
	.byte	0x2
	.byte	0
	.section	.text._Z14run_benchmarksPKc
	.size	_Z14run_benchmarksPKc, .-_Z14run_benchmarksPKc
	.section	.text.unlikely._Z14run_benchmarksPKc
.LCOLDE67:
	.section	.text._Z14run_benchmarksPKc
.LHOTE67:
	.section	.text.unlikely._Z11aes_decryptPhiS_S_S_,"ax",@progbits
.LCOLDB68:
	.section	.text._Z11aes_decryptPhiS_S_S_,"ax",@progbits
.LHOTB68:
	.p2align 4,,15
	.globl	_Z11aes_decryptPhiS_S_S_
	.hidden	_Z11aes_decryptPhiS_S_S_
	.type	_Z11aes_decryptPhiS_S_S_, @function
_Z11aes_decryptPhiS_S_S_:
.LFB1835:
	.cfi_startproc
	pushq	%r15
	.cfi_def_cfa_offset 16
	.cfi_offset 15, -16
	pushq	%r14
	.cfi_def_cfa_offset 24
	.cfi_offset 14, -24
	movq	%rcx, %r15
	pushq	%r13
	.cfi_def_cfa_offset 32
	.cfi_offset 13, -32
	pushq	%r12
	.cfi_def_cfa_offset 40
	.cfi_offset 12, -40
	movq	%rdx, %r12
	pushq	%rbp
	.cfi_def_cfa_offset 48
	.cfi_offset 6, -48
	pushq	%rbx
	.cfi_def_cfa_offset 56
	.cfi_offset 3, -56
	movq	%r8, %r13
	movq	%rdi, %rbx
	movl	%esi, %r14d
	subq	$24, %rsp
	.cfi_def_cfa_offset 80
	movq	%fs:40, %rax
	movq	%rax, 8(%rsp)
	xorl	%eax, %eax
	call	EVP_CIPHER_CTX_new@PLT
	movq	%rax, %rbp
	call	EVP_aes_256_cbc@PLT
	movq	%r12, %rcx
	leaq	4(%rsp), %r12
	xorl	%edx, %edx
	movq	%r15, %r8
	movq	%rax, %rsi
	movq	%rbp, %rdi
	call	EVP_DecryptInit_ex@PLT
	movq	%rbx, %rcx
	movl	%r14d, %r8d
	movq	%r12, %rdx
	movq	%r13, %rsi
	movq	%rbp, %rdi
	call	EVP_DecryptUpdate@PLT
	movslq	4(%rsp), %rsi
	movq	%r12, %rdx
	movq	%rbp, %rdi
	movq	%rsi, %rbx
	addq	%r13, %rsi
	call	EVP_DecryptFinal_ex@PLT
	movq	%rbp, %rdi
	addl	4(%rsp), %ebx
	call	EVP_CIPHER_CTX_free@PLT
	movq	8(%rsp), %rcx
	xorq	%fs:40, %rcx
	jne	.L1293
	addq	$24, %rsp
	.cfi_remember_state
	.cfi_def_cfa_offset 56
	movl	%ebx, %eax
	popq	%rbx
	.cfi_def_cfa_offset 48
	popq	%rbp
	.cfi_def_cfa_offset 40
	popq	%r12
	.cfi_def_cfa_offset 32
	popq	%r13
	.cfi_def_cfa_offset 24
	popq	%r14
	.cfi_def_cfa_offset 16
	popq	%r15
	.cfi_def_cfa_offset 8
	ret
.L1293:
	.cfi_restore_state
	call	__stack_chk_fail@PLT
	.cfi_endproc
.LFE1835:
	.size	_Z11aes_decryptPhiS_S_S_, .-_Z11aes_decryptPhiS_S_S_
	.section	.text.unlikely._Z11aes_decryptPhiS_S_S_
.LCOLDE68:
	.section	.text._Z11aes_decryptPhiS_S_S_
.LHOTE68:
	.section	.text.unlikely._Z11aes_encryptPhiS_S_S_,"ax",@progbits
.LCOLDB69:
	.section	.text._Z11aes_encryptPhiS_S_S_,"ax",@progbits
.LHOTB69:
	.p2align 4,,15
	.globl	_Z11aes_encryptPhiS_S_S_
	.hidden	_Z11aes_encryptPhiS_S_S_
	.type	_Z11aes_encryptPhiS_S_S_, @function
_Z11aes_encryptPhiS_S_S_:
.LFB1836:
	.cfi_startproc
	pushq	%r15
	.cfi_def_cfa_offset 16
	.cfi_offset 15, -16
	pushq	%r14
	.cfi_def_cfa_offset 24
	.cfi_offset 14, -24
	movq	%rcx, %r15
	pushq	%r13
	.cfi_def_cfa_offset 32
	.cfi_offset 13, -32
	pushq	%r12
	.cfi_def_cfa_offset 40
	.cfi_offset 12, -40
	movq	%rdx, %r12
	pushq	%rbp
	.cfi_def_cfa_offset 48
	.cfi_offset 6, -48
	pushq	%rbx
	.cfi_def_cfa_offset 56
	.cfi_offset 3, -56
	movq	%r8, %r13
	movq	%rdi, %rbx
	movl	%esi, %r14d
	subq	$24, %rsp
	.cfi_def_cfa_offset 80
	movq	%fs:40, %rax
	movq	%rax, 8(%rsp)
	xorl	%eax, %eax
	call	EVP_CIPHER_CTX_new@PLT
	movq	%rax, %rbp
	call	EVP_aes_256_cbc@PLT
	movq	%r12, %rcx
	leaq	4(%rsp), %r12
	xorl	%edx, %edx
	movq	%r15, %r8
	movq	%rax, %rsi
	movq	%rbp, %rdi
	call	EVP_EncryptInit_ex@PLT
	movq	%rbx, %rcx
	movl	%r14d, %r8d
	movq	%r12, %rdx
	movq	%r13, %rsi
	movq	%rbp, %rdi
	call	EVP_EncryptUpdate@PLT
	movslq	4(%rsp), %rsi
	movq	%r12, %rdx
	movq	%rbp, %rdi
	movq	%rsi, %rbx
	addq	%r13, %rsi
	call	EVP_EncryptFinal_ex@PLT
	movq	%rbp, %rdi
	addl	4(%rsp), %ebx
	call	EVP_CIPHER_CTX_free@PLT
	movq	8(%rsp), %rcx
	xorq	%fs:40, %rcx
	jne	.L1298
	addq	$24, %rsp
	.cfi_remember_state
	.cfi_def_cfa_offset 56
	movl	%ebx, %eax
	popq	%rbx
	.cfi_def_cfa_offset 48
	popq	%rbp
	.cfi_def_cfa_offset 40
	popq	%r12
	.cfi_def_cfa_offset 32
	popq	%r13
	.cfi_def_cfa_offset 24
	popq	%r14
	.cfi_def_cfa_offset 16
	popq	%r15
	.cfi_def_cfa_offset 8
	ret
.L1298:
	.cfi_restore_state
	call	__stack_chk_fail@PLT
	.cfi_endproc
.LFE1836:
	.size	_Z11aes_encryptPhiS_S_S_, .-_Z11aes_encryptPhiS_S_S_
	.section	.text.unlikely._Z11aes_encryptPhiS_S_S_
.LCOLDE69:
	.section	.text._Z11aes_encryptPhiS_S_S_
.LHOTE69:
	.section	.rodata.str1.1
.LC70:
	.string	"Encryption time: "
.LC71:
	.string	"Decryption time: "
	.section	.text.unlikely._Z13aes_benchmarkPh,"ax",@progbits
.LCOLDB72:
	.section	.text._Z13aes_benchmarkPh,"ax",@progbits
.LHOTB72:
	.p2align 4,,15
	.globl	_Z13aes_benchmarkPh
	.hidden	_Z13aes_benchmarkPh
	.type	_Z13aes_benchmarkPh, @function
_Z13aes_benchmarkPh:
.LFB1837:
	.cfi_startproc
	pushq	%r15
	.cfi_def_cfa_offset 16
	.cfi_offset 15, -16
	pushq	%r14
	.cfi_def_cfa_offset 24
	.cfi_offset 14, -24
	pushq	%r13
	.cfi_def_cfa_offset 32
	.cfi_offset 13, -32
	pushq	%r12
	.cfi_def_cfa_offset 40
	.cfi_offset 12, -40
	pushq	%rbp
	.cfi_def_cfa_offset 48
	.cfi_offset 6, -48
	pushq	%rbx
	.cfi_def_cfa_offset 56
	.cfi_offset 3, -56
	leaq	_ZZ10gen_randomPciE8alphanum(%rip), %rbx
	movabsq	$-8925843906633654007, %rbp
	subq	$20952, %rsp
	.cfi_def_cfa_offset 21008
	leaq	160(%rsp), %r13
	movq	%rdi, 8(%rsp)
	xorl	%edi, %edi
	movq	%fs:40, %rax
	movq	%rax, 20936(%rsp)
	xorl	%eax, %eax
	leaq	255(%r13), %r14
	movq	%r13, %r15
	call	time@PLT
	movl	%eax, %edi
	call	srand@PLT
	.p2align 4,,10
	.p2align 3
.L1300:
	call	rand@PLT
	movslq	%eax, %rcx
	addq	$1, %r15
	movq	%rcx, %rdx
	shrq	%rdx
	movq	%rdx, %rax
	mulq	%rbp
	shrq	$4, %rdx
	movq	%rdx, %rsi
	leaq	(%rcx,%rdx,2), %rax
	salq	$6, %rsi
	subq	%rsi, %rax
	movzbl	(%rbx,%rax), %eax
	movb	%al, -1(%r15)
	cmpq	%r14, %r15
	jne	.L1300
	leaq	32(%rsp), %r14
	xorl	%edi, %edi
	movb	$0, 415(%rsp)
	movabsq	$-8925843906633654007, %rbp
	leaq	127(%r14), %r15
	movq	%r14, %r12
	call	time@PLT
	movl	%eax, %edi
	call	srand@PLT
	.p2align 4,,10
	.p2align 3
.L1301:
	call	rand@PLT
	movslq	%eax, %rcx
	addq	$1, %r12
	movq	%rcx, %rdx
	shrq	%rdx
	movq	%rdx, %rax
	mulq	%rbp
	shrq	$4, %rdx
	movq	%rdx, %rdi
	leaq	(%rcx,%rdx,2), %rax
	salq	$6, %rdi
	subq	%rdi, %rax
	movzbl	(%rbx,%rax), %eax
	movb	%al, -1(%r12)
	cmpq	%r12, %r15
	jne	.L1301
	leaq	16(%rsp), %rbx
	movb	$0, 159(%rsp)
	leaq	10672(%rsp), %r15
	call	ERR_load_crypto_strings@PLT
	call	OPENSSL_add_all_algorithms_noconf@PLT
	xorl	%edi, %edi
	call	OPENSSL_config@PLT
	xorl	%esi, %esi
	movq	%rbx, %rdi
	call	gettimeofday@PLT
	vxorpd	%xmm0, %xmm0, %xmm0
	vxorpd	%xmm1, %xmm1, %xmm1
	vcvtsi2sdq	24(%rsp), %xmm0, %xmm0
	vdivsd	.LC62(%rip), %xmm0, %xmm0
	vcvtsi2sdq	16(%rsp), %xmm1, %xmm1
	vaddsd	%xmm1, %xmm0, %xmm2
	vmovsd	%xmm2, (%rsp)
	call	EVP_CIPHER_CTX_new@PLT
	movq	%rax, %rbp
	call	EVP_aes_256_cbc@PLT
	xorl	%edx, %edx
	movq	%rbp, %rdi
	movq	%r14, %r8
	movq	%r13, %rcx
	movq	%rax, %rsi
	call	EVP_EncryptInit_ex@PLT
	movq	8(%rsp), %rcx
	movl	$10240, %r8d
	movq	%rbp, %rdi
	movq	%rbx, %rdx
	movq	%r15, %rsi
	call	EVP_EncryptUpdate@PLT
	movslq	16(%rsp), %rsi
	movq	%rbx, %rdx
	movq	%rbp, %rdi
	movq	%rsi, %r12
	addq	%r15, %rsi
	call	EVP_EncryptFinal_ex@PLT
	movq	%rbp, %rdi
	addl	16(%rsp), %r12d
	call	EVP_CIPHER_CTX_free@PLT
	xorl	%esi, %esi
	movq	%rbx, %rdi
	call	gettimeofday@PLT
	vxorpd	%xmm0, %xmm0, %xmm0
	movq	_ZSt4cout@GOTPCREL(%rip), %rdi
	vxorpd	%xmm1, %xmm1, %xmm1
	leaq	.LC70(%rip), %rsi
	movl	$17, %edx
	vcvtsi2sdq	24(%rsp), %xmm0, %xmm0
	vdivsd	.LC62(%rip), %xmm0, %xmm0
	vcvtsi2sdq	16(%rsp), %xmm1, %xmm1
	vaddsd	%xmm1, %xmm0, %xmm0
	vsubsd	(%rsp), %xmm0, %xmm0
	vmovsd	%xmm0, (%rsp)
	call	_ZSt16__ostream_insertIcSt11char_traitsIcEERSt13basic_ostreamIT_T0_ES6_PKS3_l@PLT
	movq	_ZSt4cout@GOTPCREL(%rip), %rdi
	vmovsd	(%rsp), %xmm0
	call	_ZNSo9_M_insertIdEERSoT_@PLT
	movq	%rax, %rdx
	movq	(%rax), %rax
	movq	-24(%rax), %rax
	movq	240(%rdx,%rax), %rbp
	testq	%rbp, %rbp
	je	.L1305
	cmpb	$0, 56(%rbp)
	je	.L1303
	movsbl	67(%rbp), %esi
.L1304:
	movq	%rdx, %rdi
	call	_ZNSo3putEc@PLT
	movq	%rax, %rdi
	call	_ZNSo5flushEv@PLT
	xorl	%esi, %esi
	movq	%rbx, %rdi
	call	gettimeofday@PLT
	vxorpd	%xmm0, %xmm0, %xmm0
	vxorpd	%xmm1, %xmm1, %xmm1
	vcvtsi2sdq	24(%rsp), %xmm0, %xmm0
	vdivsd	.LC62(%rip), %xmm0, %xmm0
	vcvtsi2sdq	16(%rsp), %xmm1, %xmm1
	vaddsd	%xmm1, %xmm0, %xmm3
	vmovsd	%xmm3, (%rsp)
	call	EVP_CIPHER_CTX_new@PLT
	movq	%rax, %rbp
	call	EVP_aes_256_cbc@PLT
	movq	%r13, %rcx
	leaq	416(%rsp), %r13
	xorl	%edx, %edx
	movq	%rbp, %rdi
	movq	%r14, %r8
	movq	%rax, %rsi
	call	EVP_DecryptInit_ex@PLT
	movl	%r12d, %r8d
	movq	%r15, %rcx
	movq	%rbx, %rdx
	movq	%rbp, %rdi
	movq	%r13, %rsi
	call	EVP_DecryptUpdate@PLT
	movslq	16(%rsp), %rsi
	movq	%rbx, %rdx
	movq	%rbp, %rdi
	movq	%rsi, %r12
	addq	%r13, %rsi
	call	EVP_DecryptFinal_ex@PLT
	movq	%rbp, %rdi
	addl	16(%rsp), %r12d
	call	EVP_CIPHER_CTX_free@PLT
	xorl	%esi, %esi
	movq	%rbx, %rdi
	call	gettimeofday@PLT
	vxorpd	%xmm0, %xmm0, %xmm0
	movq	_ZSt4cout@GOTPCREL(%rip), %rdi
	vxorpd	%xmm1, %xmm1, %xmm1
	leaq	.LC71(%rip), %rsi
	movl	$17, %edx
	vcvtsi2sdq	24(%rsp), %xmm0, %xmm0
	vdivsd	.LC62(%rip), %xmm0, %xmm0
	vcvtsi2sdq	16(%rsp), %xmm1, %xmm1
	vaddsd	%xmm1, %xmm0, %xmm0
	vsubsd	(%rsp), %xmm0, %xmm0
	vmovsd	%xmm0, (%rsp)
	call	_ZSt16__ostream_insertIcSt11char_traitsIcEERSt13basic_ostreamIT_T0_ES6_PKS3_l@PLT
	movq	_ZSt4cout@GOTPCREL(%rip), %rdi
	vmovsd	(%rsp), %xmm0
	call	_ZNSo9_M_insertIdEERSoT_@PLT
	movq	%rax, %rbp
	movq	(%rax), %rax
	movq	-24(%rax), %rax
	movq	240(%rbp,%rax), %rbx
	testq	%rbx, %rbx
	je	.L1305
	cmpb	$0, 56(%rbx)
	je	.L1306
	movsbl	67(%rbx), %esi
.L1307:
	movq	%rbp, %rdi
	call	_ZNSo3putEc@PLT
	movq	%rax, %rdi
	call	_ZNSo5flushEv@PLT
	movslq	%r12d, %rax
	movb	$0, 416(%rsp,%rax)
	call	EVP_cleanup@PLT
	call	ERR_free_strings@PLT
	movq	20936(%rsp), %rax
	xorq	%fs:40, %rax
	jne	.L1318
	addq	$20952, %rsp
	.cfi_remember_state
	.cfi_def_cfa_offset 56
	popq	%rbx
	.cfi_def_cfa_offset 48
	popq	%rbp
	.cfi_def_cfa_offset 40
	popq	%r12
	.cfi_def_cfa_offset 32
	popq	%r13
	.cfi_def_cfa_offset 24
	popq	%r14
	.cfi_def_cfa_offset 16
	popq	%r15
	.cfi_def_cfa_offset 8
	ret
	.p2align 4,,10
	.p2align 3
.L1303:
	.cfi_restore_state
	movq	%rbp, %rdi
	movq	%rdx, (%rsp)
	call	_ZNKSt5ctypeIcE13_M_widen_initEv@PLT
	movq	0(%rbp), %rax
	movl	$10, %esi
	movq	(%rsp), %rdx
	movq	48(%rax), %rax
	cmpq	_ZNKSt5ctypeIcE8do_widenEc@GOTPCREL(%rip), %rax
	je	.L1304
	movq	%rbp, %rdi
	call	*%rax
	movq	(%rsp), %rdx
	movsbl	%al, %esi
	jmp	.L1304
	.p2align 4,,10
	.p2align 3
.L1306:
	movq	%rbx, %rdi
	call	_ZNKSt5ctypeIcE13_M_widen_initEv@PLT
	movq	(%rbx), %rax
	movl	$10, %esi
	movq	48(%rax), %rax
	cmpq	_ZNKSt5ctypeIcE8do_widenEc@GOTPCREL(%rip), %rax
	je	.L1307
	movq	%rbx, %rdi
	call	*%rax
	movsbl	%al, %esi
	jmp	.L1307
.L1318:
	call	__stack_chk_fail@PLT
.L1305:
	call	_ZSt16__throw_bad_castv@PLT
	.cfi_endproc
.LFE1837:
	.size	_Z13aes_benchmarkPh, .-_Z13aes_benchmarkPh
	.section	.text.unlikely._Z13aes_benchmarkPh
.LCOLDE72:
	.section	.text._Z13aes_benchmarkPh
.LHOTE72:
	.section	.text.unlikely._Z9full_testv,"ax",@progbits
.LCOLDB73:
	.section	.text._Z9full_testv,"ax",@progbits
.LHOTB73:
	.p2align 4,,15
	.globl	_Z9full_testv
	.hidden	_Z9full_testv
	.type	_Z9full_testv, @function
_Z9full_testv:
.LFB1840:
	.cfi_startproc
	movl	$1, %eax
	ret
	.cfi_endproc
.LFE1840:
	.size	_Z9full_testv, .-_Z9full_testv
	.section	.text.unlikely._Z9full_testv
.LCOLDE73:
	.section	.text._Z9full_testv
.LHOTE73:
	.section	.rodata.str1.1
.LC74:
	.string	"[FAIL]"
.LC75:
	.string	"  due to uncaught exception."
.LC76:
	.string	"[PASS]"
	.section	.text.unlikely._ZN4TestD2Ev,"axG",@progbits,_ZN4TestD5Ev,comdat
	.align 2
.LCOLDB77:
	.section	.text._ZN4TestD2Ev,"axG",@progbits,_ZN4TestD5Ev,comdat
.LHOTB77:
	.align 2
	.p2align 4,,15
	.weak	_ZN4TestD2Ev
	.hidden	_ZN4TestD2Ev
	.type	_ZN4TestD2Ev, @function
_ZN4TestD2Ev:
.LFB1845:
	.cfi_startproc
	pushq	%rbx
	.cfi_def_cfa_offset 16
	.cfi_offset 3, -16
	movq	%rdi, %rbx
	call	_ZSt18uncaught_exceptionv@PLT
	testb	%al, %al
	je	.L1321
	cmpb	$0, (%rbx)
	jne	.L1329
.L1322:
	leaq	.LC75(%rip), %rdi
	call	puts@PLT
.L1321:
	cmpb	$0, (%rbx)
	jne	.L1330
	popq	%rbx
	.cfi_remember_state
	.cfi_def_cfa_offset 8
	ret
	.p2align 4,,10
	.p2align 3
.L1330:
	.cfi_restore_state
	popq	%rbx
	.cfi_remember_state
	.cfi_def_cfa_offset 8
	leaq	.LC76(%rip), %rdi
	jmp	puts@PLT
	.p2align 4,,10
	.p2align 3
.L1329:
	.cfi_restore_state
	leaq	.LC74(%rip), %rdi
	movb	$0, (%rbx)
	movb	$0, _ZL7passing(%rip)
	call	puts@PLT
	jmp	.L1322
	.cfi_endproc
.LFE1845:
	.size	_ZN4TestD2Ev, .-_ZN4TestD2Ev
	.section	.text.unlikely._ZN4TestD2Ev,"axG",@progbits,_ZN4TestD5Ev,comdat
.LCOLDE77:
	.section	.text._ZN4TestD2Ev,"axG",@progbits,_ZN4TestD5Ev,comdat
.LHOTE77:
	.weak	_ZN4TestD1Ev
	.hidden	_ZN4TestD1Ev
	.set	_ZN4TestD1Ev,_ZN4TestD2Ev
	.section	.rodata.str1.1
.LC78:
	.string	"Sample crypto"
.LC79:
	.string	"%s..."
.LC80:
	.string	"%*s"
.LC81:
	.string	"test_decaf"
.LC82:
	.string	"Fail ss12"
.LC83:
	.string	"Fail ss21"
.LC84:
	.string	"Fail ss21 == ss12"
.LC85:
	.string	"Hello, world!"
.LC86:
	.string	"Fail sig ver"
	.section	.text.unlikely._ZL10test_decafv,"ax",@progbits
.LCOLDB87:
	.section	.text._ZL10test_decafv,"ax",@progbits
.LHOTB87:
	.p2align 4,,15
	.type	_ZL10test_decafv, @function
_ZL10test_decafv:
.LFB1856:
	.cfi_startproc
	.cfi_personality 0x9b,DW.ref.__gxx_personality_v0
	.cfi_lsda 0x1b,.LLSDA1856
	pushq	%r15
	.cfi_def_cfa_offset 16
	.cfi_offset 15, -16
	pushq	%r14
	.cfi_def_cfa_offset 24
	.cfi_offset 14, -24
	leaq	.LC78(%rip), %rdx
	pushq	%r13
	.cfi_def_cfa_offset 32
	.cfi_offset 13, -32
	pushq	%r12
	.cfi_def_cfa_offset 40
	.cfi_offset 12, -40
	leaq	.LC79(%rip), %rsi
	pushq	%rbp
	.cfi_def_cfa_offset 48
	.cfi_offset 6, -48
	pushq	%rbx
	.cfi_def_cfa_offset 56
	.cfi_offset 3, -56
	movl	$1, %edi
	subq	$3352, %rsp
	.cfi_def_cfa_offset 3408
	movq	%fs:40, %rax
	movq	%rax, 3336(%rsp)
	xorl	%eax, %eax
	movb	$1, 15(%rsp)
	leaq	336(%rsp), %rbx
.LEHB194:
	call	__printf_chk@PLT
	leaq	.LC46(%rip), %rcx
	leaq	.LC80(%rip), %rsi
	movl	$14, %edx
	movl	$1, %edi
	xorl	%eax, %eax
	call	__printf_chk@PLT
	movq	stdout@GOTPCREL(%rip), %rax
	movq	(%rax), %rdi
	call	fflush@PLT
.LEHE194:
	leaq	.LC81(%rip), %rsi
	movl	$1, %ecx
	movl	$10, %edx
	movq	%rbx, %rdi
.LEHB195:
	call	spongerng_init_from_buffer@PLT
.LEHE195:
	cmpb	$0, 15(%rsp)
	je	.L1335
	leaq	16(%rsp), %rbp
	leaq	16+_ZTVN5decaf9TmpBufferE(%rip), %rax
	leaq	544(%rsp), %r12
	movq	%rbx, %rdi
	movq	$32, 32(%rsp)
	leaq	576(%rsp), %r14
	movq	%rbp, %rsi
	movq	%rax, 16(%rsp)
	movq	%r12, 24(%rsp)
	call	_ZN5decaf9SpongeRng4readERNS_6BufferE
	movq	%rbp, %rsi
	leaq	16+_ZTVN5decaf9TmpBufferE(%rip), %rax
	leaq	48(%rsp), %rbp
	movq	%rbx, %rdi
	movq	%r14, 24(%rsp)
	movq	$32, 32(%rsp)
	movq	%rax, 16(%rsp)
	call	_ZN5decaf9SpongeRng4readERNS_6BufferE
	movq	%r12, %rsi
	movq	%rbp, %rdi
.LEHB196:
	call	decaf_448_derive_private_key@PLT
	leaq	608(%rsp), %r12
	movq	%rbp, %rsi
	movq	%r12, %rdi
	call	decaf_448_private_to_public@PLT
	leaq	192(%rsp), %r13
	movq	%r14, %rsi
	movq	%r13, %rdi
	call	decaf_448_derive_private_key@PLT
	leaq	672(%rsp), %r15
	movq	%r13, %rsi
	movq	%r15, %rdi
	call	decaf_448_private_to_public@PLT
	leaq	848(%rsp), %r14
	movq	%r15, %rcx
	movq	%rbp, %rdx
	movl	$1234, %esi
	movq	%r14, %rdi
	call	decaf_448_shared_secret@PLT
	testq	%rax, %rax
	jne	.L1336
	cmpb	$0, 15(%rsp)
	jne	.L1337
.L1338:
	leaq	.LC82(%rip), %rdi
	call	puts@PLT
.L1336:
	leaq	2096(%rsp), %r15
	movq	%r12, %rcx
	movq	%r13, %rdx
	movl	$1234, %esi
	movq	%r15, %rdi
	call	decaf_448_shared_secret@PLT
	testq	%rax, %rax
	jne	.L1339
	cmpb	$0, 15(%rsp)
	je	.L1341
	leaq	.LC74(%rip), %rdi
	movb	$0, _ZL7passing(%rip)
	movb	$0, 15(%rsp)
	call	puts@PLT
.L1341:
	leaq	.LC83(%rip), %rdi
	call	puts@PLT
.L1339:
	movl	$1234, %edx
	movq	%r15, %rsi
	movq	%r14, %rdi
	call	memcmp@PLT
	testl	%eax, %eax
	je	.L1342
	cmpb	$0, 15(%rsp)
	jne	.L1343
.L1344:
	leaq	.LC84(%rip), %rdi
	call	puts@PLT
.L1342:
	leaq	736(%rsp), %r13
	leaq	.LC85(%rip), %rdx
	movl	$13, %ecx
	movq	%rbp, %rsi
	movq	%r13, %rdi
	call	decaf_448_sign@PLT
	leaq	.LC85(%rip), %rdx
	movl	$13, %ecx
	movq	%r12, %rsi
	movq	%r13, %rdi
	call	decaf_448_verify@PLT
	testq	%rax, %rax
	jne	.L1335
	cmpb	$0, 15(%rsp)
	je	.L1347
	leaq	.LC74(%rip), %rdi
	movb	$0, _ZL7passing(%rip)
	movb	$0, 15(%rsp)
	call	puts@PLT
.L1347:
	leaq	.LC86(%rip), %rdi
	call	puts@PLT
.LEHE196:
.L1335:
	movq	%rbx, %rdi
	call	_ZN5decaf12KeccakSpongeD2Ev
	leaq	15(%rsp), %rdi
.LEHB197:
	call	_ZN4TestD1Ev
.LEHE197:
	movq	3336(%rsp), %rax
	xorq	%fs:40, %rax
	jne	.L1362
	addq	$3352, %rsp
	.cfi_remember_state
	.cfi_def_cfa_offset 56
	popq	%rbx
	.cfi_def_cfa_offset 48
	popq	%rbp
	.cfi_def_cfa_offset 40
	popq	%r12
	.cfi_def_cfa_offset 32
	popq	%r13
	.cfi_def_cfa_offset 24
	popq	%r14
	.cfi_def_cfa_offset 16
	popq	%r15
	.cfi_def_cfa_offset 8
	ret
.L1343:
	.cfi_restore_state
	leaq	.LC74(%rip), %rdi
	movb	$0, _ZL7passing(%rip)
	movb	$0, 15(%rsp)
.LEHB198:
	call	puts@PLT
	jmp	.L1344
.L1337:
	leaq	.LC74(%rip), %rdi
	movb	$0, _ZL7passing(%rip)
	movb	$0, 15(%rsp)
	call	puts@PLT
.LEHE198:
	jmp	.L1338
.L1362:
	call	__stack_chk_fail@PLT
.L1350:
.L1359:
	movq	%rax, %rbp
	movq	%rbx, %rdi
	vzeroupper
	call	_ZN5decaf12KeccakSpongeD2Ev
	leaq	15(%rsp), %rdi
	call	_ZN4TestD1Ev
	movq	%rbp, %rdi
.LEHB199:
	call	_Unwind_Resume@PLT
.LEHE199:
.L1351:
	jmp	.L1359
	.cfi_endproc
.LFE1856:
	.section	.gcc_except_table._ZL10test_decafv,"a",@progbits
.LLSDA1856:
	.byte	0xff
	.byte	0xff
	.byte	0x1
	.uleb128 .LLSDACSE1856-.LLSDACSB1856
.LLSDACSB1856:
	.uleb128 .LEHB194-.LFB1856
	.uleb128 .LEHE194-.LEHB194
	.uleb128 0
	.uleb128 0
	.uleb128 .LEHB195-.LFB1856
	.uleb128 .LEHE195-.LEHB195
	.uleb128 .L1351-.LFB1856
	.uleb128 0
	.uleb128 .LEHB196-.LFB1856
	.uleb128 .LEHE196-.LEHB196
	.uleb128 .L1350-.LFB1856
	.uleb128 0
	.uleb128 .LEHB197-.LFB1856
	.uleb128 .LEHE197-.LEHB197
	.uleb128 0
	.uleb128 0
	.uleb128 .LEHB198-.LFB1856
	.uleb128 .LEHE198-.LEHB198
	.uleb128 .L1350-.LFB1856
	.uleb128 0
	.uleb128 .LEHB199-.LFB1856
	.uleb128 .LEHE199-.LEHB199
	.uleb128 0
	.uleb128 0
.LLSDACSE1856:
	.section	.text._ZL10test_decafv
	.size	_ZL10test_decafv, .-_ZL10test_decafv
	.section	.text.unlikely._ZL10test_decafv
.LCOLDE87:
	.section	.text._ZL10test_decafv
.LHOTE87:
	.section	.text.unlikely._ZNSt6vectorINSt7__cxx1112basic_stringIcSt11char_traitsIcESaIcEEESaIS5_EED2Ev,"axG",@progbits,_ZNSt6vectorINSt7__cxx1112basic_stringIcSt11char_traitsIcESaIcEEESaIS5_EED5Ev,comdat
	.align 2
.LCOLDB88:
	.section	.text._ZNSt6vectorINSt7__cxx1112basic_stringIcSt11char_traitsIcESaIcEEESaIS5_EED2Ev,"axG",@progbits,_ZNSt6vectorINSt7__cxx1112basic_stringIcSt11char_traitsIcESaIcEEESaIS5_EED5Ev,comdat
.LHOTB88:
	.align 2
	.p2align 4,,15
	.weak	_ZNSt6vectorINSt7__cxx1112basic_stringIcSt11char_traitsIcESaIcEEESaIS5_EED2Ev
	.type	_ZNSt6vectorINSt7__cxx1112basic_stringIcSt11char_traitsIcESaIcEEESaIS5_EED2Ev, @function
_ZNSt6vectorINSt7__cxx1112basic_stringIcSt11char_traitsIcESaIcEEESaIS5_EED2Ev:
.LFB1904:
	.cfi_startproc
	pushq	%r12
	.cfi_def_cfa_offset 16
	.cfi_offset 12, -16
	pushq	%rbp
	.cfi_def_cfa_offset 24
	.cfi_offset 6, -24
	pushq	%rbx
	.cfi_def_cfa_offset 32
	.cfi_offset 3, -32
	movq	8(%rdi), %rbp
	movq	(%rdi), %rbx
	cmpq	%rbx, %rbp
	je	.L1364
	movq	%rdi, %r12
	.p2align 4,,10
	.p2align 3
.L1366:
	movq	(%rbx), %rdi
	leaq	16(%rbx), %rax
	cmpq	%rax, %rdi
	je	.L1365
	call	_ZdlPv@PLT
.L1365:
	addq	$32, %rbx
	cmpq	%rbx, %rbp
	jne	.L1366
	movq	(%r12), %rbp
.L1364:
	testq	%rbp, %rbp
	je	.L1369
	popq	%rbx
	.cfi_remember_state
	.cfi_def_cfa_offset 24
	movq	%rbp, %rdi
	popq	%rbp
	.cfi_def_cfa_offset 16
	popq	%r12
	.cfi_def_cfa_offset 8
	jmp	_ZdlPv@PLT
	.p2align 4,,10
	.p2align 3
.L1369:
	.cfi_restore_state
	popq	%rbx
	.cfi_def_cfa_offset 24
	popq	%rbp
	.cfi_def_cfa_offset 16
	popq	%r12
	.cfi_def_cfa_offset 8
	ret
	.cfi_endproc
.LFE1904:
	.size	_ZNSt6vectorINSt7__cxx1112basic_stringIcSt11char_traitsIcESaIcEEESaIS5_EED2Ev, .-_ZNSt6vectorINSt7__cxx1112basic_stringIcSt11char_traitsIcESaIcEEESaIS5_EED2Ev
	.section	.text.unlikely._ZNSt6vectorINSt7__cxx1112basic_stringIcSt11char_traitsIcESaIcEEESaIS5_EED2Ev,"axG",@progbits,_ZNSt6vectorINSt7__cxx1112basic_stringIcSt11char_traitsIcESaIcEEESaIS5_EED5Ev,comdat
.LCOLDE88:
	.section	.text._ZNSt6vectorINSt7__cxx1112basic_stringIcSt11char_traitsIcESaIcEEESaIS5_EED2Ev,"axG",@progbits,_ZNSt6vectorINSt7__cxx1112basic_stringIcSt11char_traitsIcESaIcEEESaIS5_EED5Ev,comdat
.LHOTE88:
	.weak	_ZNSt6vectorINSt7__cxx1112basic_stringIcSt11char_traitsIcESaIcEEESaIS5_EED1Ev
	.set	_ZNSt6vectorINSt7__cxx1112basic_stringIcSt11char_traitsIcESaIcEEESaIS5_EED1Ev,_ZNSt6vectorINSt7__cxx1112basic_stringIcSt11char_traitsIcESaIcEEESaIS5_EED2Ev
	.section	.rodata.str1.1
.LC89:
	.string	"  %s"
.LC90:
	.string	"x"
.LC91:
	.string	"  %s = 0x"
.LC92:
	.string	"%02x"
.LC93:
	.string	"y"
.LC94:
	.string	"z"
.LC95:
	.string	"lhs"
.LC96:
	.string	"rhs"
	.section	.text.unlikely._ZN5TestsIN5decaf5Ed448EE11arith_checkER4TestRKNS1_6ScalarES7_S7_S7_S7_PKc,"axG",@progbits,_ZN5TestsIN5decaf5Ed448EE11arith_checkER4TestRKNS1_6ScalarES7_S7_S7_S7_PKc,comdat
.LCOLDB97:
	.section	.text._ZN5TestsIN5decaf5Ed448EE11arith_checkER4TestRKNS1_6ScalarES7_S7_S7_S7_PKc,"axG",@progbits,_ZN5TestsIN5decaf5Ed448EE11arith_checkER4TestRKNS1_6ScalarES7_S7_S7_S7_PKc,comdat
.LHOTB97:
	.p2align 4,,15
	.weak	_ZN5TestsIN5decaf5Ed448EE11arith_checkER4TestRKNS1_6ScalarES7_S7_S7_S7_PKc
	.hidden	_ZN5TestsIN5decaf5Ed448EE11arith_checkER4TestRKNS1_6ScalarES7_S7_S7_S7_PKc
	.type	_ZN5TestsIN5decaf5Ed448EE11arith_checkER4TestRKNS1_6ScalarES7_S7_S7_S7_PKc, @function
_ZN5TestsIN5decaf5Ed448EE11arith_checkER4TestRKNS1_6ScalarES7_S7_S7_S7_PKc:
.LFB2003:
	.cfi_startproc
	.cfi_personality 0x9b,DW.ref.__gxx_personality_v0
	.cfi_lsda 0x1b,.LLSDA2003
	pushq	%r15
	.cfi_def_cfa_offset 16
	.cfi_offset 15, -16
	pushq	%r14
	.cfi_def_cfa_offset 24
	.cfi_offset 14, -24
	movq	%rsi, %r14
	pushq	%r13
	.cfi_def_cfa_offset 32
	.cfi_offset 13, -32
	pushq	%r12
	.cfi_def_cfa_offset 40
	.cfi_offset 12, -40
	movq	%r8, %rsi
	pushq	%rbp
	.cfi_def_cfa_offset 48
	.cfi_offset 6, -48
	pushq	%rbx
	.cfi_def_cfa_offset 56
	.cfi_offset 3, -56
	movq	%rdi, %r12
	movq	%r9, %rdi
	movq	%rdx, %r13
	movq	%r8, %rbp
	subq	$88, %rsp
	.cfi_def_cfa_offset 144
	movq	%r9, %rbx
	movq	%rcx, 8(%rsp)
	movq	144(%rsp), %r15
	movq	%fs:40, %rax
	movq	%rax, 72(%rsp)
	xorl	%eax, %eax
.LEHB200:
	call	decaf_448_scalar_eq@PLT
.LEHE200:
	testq	%rax, %rax
	jne	.L1433
	cmpb	$0, (%r12)
	jne	.L1434
.L1376:
	leaq	.LC89(%rip), %rsi
	leaq	16(%rsp), %r12
	movl	$1, %edi
	movq	%r15, %rdx
	xorl	%eax, %eax
.LEHB201:
	call	__printf_chk@PLT
.LEHE201:
	movq	%r14, %rsi
	movq	%r12, %rdi
.LEHB202:
	call	decaf_448_scalar_encode@PLT
.LEHE202:
	leaq	.LC90(%rip), %rdx
	leaq	.LC91(%rip), %rsi
	leaq	55(%r12), %r15
	leaq	15(%rsp), %r14
	movl	$1, %edi
	xorl	%eax, %eax
.LEHB203:
	call	__printf_chk@PLT
	.p2align 4,,10
	.p2align 3
.L1380:
	movzbl	(%r15), %edx
	leaq	.LC92(%rip), %rsi
	xorl	%eax, %eax
	movl	$1, %edi
	subq	$1, %r15
	call	__printf_chk@PLT
	cmpq	%r14, %r15
	jne	.L1380
	movl	$10, %edi
	call	putchar@PLT
.LEHE203:
	movq	%r13, %rsi
	movq	%r12, %rdi
.LEHB204:
	call	decaf_448_scalar_encode@PLT
.LEHE204:
	leaq	.LC93(%rip), %rdx
	leaq	.LC91(%rip), %rsi
	leaq	55(%r12), %r13
	movl	$1, %edi
	xorl	%eax, %eax
.LEHB205:
	call	__printf_chk@PLT
	.p2align 4,,10
	.p2align 3
.L1384:
	movzbl	0(%r13), %edx
	leaq	.LC92(%rip), %rsi
	xorl	%eax, %eax
	movl	$1, %edi
	subq	$1, %r13
	call	__printf_chk@PLT
	cmpq	%r14, %r13
	jne	.L1384
	movl	$10, %edi
	call	putchar@PLT
.LEHE205:
	movq	8(%rsp), %rsi
	movq	%r12, %rdi
.LEHB206:
	call	decaf_448_scalar_encode@PLT
.LEHE206:
	leaq	.LC94(%rip), %rdx
	leaq	.LC91(%rip), %rsi
	leaq	55(%r12), %r13
	movl	$1, %edi
	xorl	%eax, %eax
.LEHB207:
	call	__printf_chk@PLT
	.p2align 4,,10
	.p2align 3
.L1388:
	movzbl	0(%r13), %edx
	leaq	.LC92(%rip), %rsi
	xorl	%eax, %eax
	movl	$1, %edi
	subq	$1, %r13
	call	__printf_chk@PLT
	cmpq	%r14, %r13
	jne	.L1388
	movl	$10, %edi
	call	putchar@PLT
.LEHE207:
	movq	%rbp, %rsi
	movq	%r12, %rdi
.LEHB208:
	call	decaf_448_scalar_encode@PLT
.LEHE208:
	leaq	.LC95(%rip), %rdx
	leaq	.LC91(%rip), %rsi
	leaq	55(%r12), %rbp
	movl	$1, %edi
	xorl	%eax, %eax
.LEHB209:
	call	__printf_chk@PLT
	.p2align 4,,10
	.p2align 3
.L1392:
	movzbl	0(%rbp), %edx
	leaq	.LC92(%rip), %rsi
	xorl	%eax, %eax
	movl	$1, %edi
	subq	$1, %rbp
	call	__printf_chk@PLT
	cmpq	%rbp, %r14
	jne	.L1392
	movl	$10, %edi
	call	putchar@PLT
.LEHE209:
	movq	%rbx, %rsi
	movq	%r12, %rdi
.LEHB210:
	call	decaf_448_scalar_encode@PLT
.LEHE210:
	leaq	.LC96(%rip), %rdx
	leaq	.LC91(%rip), %rsi
	movl	$1, %edi
	xorl	%eax, %eax
	addq	$55, %r12
.LEHB211:
	call	__printf_chk@PLT
	.p2align 4,,10
	.p2align 3
.L1396:
	movzbl	(%r12), %edx
	leaq	.LC92(%rip), %rsi
	xorl	%eax, %eax
	movl	$1, %edi
	subq	$1, %r12
	call	__printf_chk@PLT
	cmpq	%r12, %r14
	jne	.L1396
	movl	$10, %edi
	call	putchar@PLT
	xorl	%eax, %eax
.L1372:
	movq	72(%rsp), %rcx
	xorq	%fs:40, %rcx
	jne	.L1435
	addq	$88, %rsp
	.cfi_remember_state
	.cfi_def_cfa_offset 56
	popq	%rbx
	.cfi_def_cfa_offset 48
	popq	%rbp
	.cfi_def_cfa_offset 40
	popq	%r12
	.cfi_def_cfa_offset 32
	popq	%r13
	.cfi_def_cfa_offset 24
	popq	%r14
	.cfi_def_cfa_offset 16
	popq	%r15
	.cfi_def_cfa_offset 8
	ret
	.p2align 4,,10
	.p2align 3
.L1433:
	.cfi_restore_state
	movl	$1, %eax
	jmp	.L1372
.L1434:
	leaq	.LC74(%rip), %rdi
	movb	$0, (%r12)
	movb	$0, _ZL7passing(%rip)
	call	puts@PLT
	jmp	.L1376
.L1400:
.L1426:
	movq	%rax, %rdi
	jmp	.L1394
.L1399:
	jmp	.L1426
.L1435:
	call	__stack_chk_fail@PLT
.L1394:
	cmpq	$-1, %rdx
	je	.L1395
	vzeroupper
	call	_Unwind_Resume@PLT
.L1404:
	jmp	.L1426
.L1402:
	jmp	.L1426
.L1401:
	jmp	.L1426
.L1403:
	jmp	.L1426
.L1395:
	vzeroupper
	call	__cxa_call_unexpected@PLT
.LEHE211:
	.cfi_endproc
.LFE2003:
	.section	.gcc_except_table._ZN5TestsIN5decaf5Ed448EE11arith_checkER4TestRKNS1_6ScalarES7_S7_S7_S7_PKc,"aG",@progbits,_ZN5TestsIN5decaf5Ed448EE11arith_checkER4TestRKNS1_6ScalarES7_S7_S7_S7_PKc,comdat
	.align 4
.LLSDA2003:
	.byte	0xff
	.byte	0x9b
	.uleb128 .LLSDATT2003-.LLSDATTD2003
.LLSDATTD2003:
	.byte	0x1
	.uleb128 .LLSDACSE2003-.LLSDACSB2003
.LLSDACSB2003:
	.uleb128 .LEHB200-.LFB2003
	.uleb128 .LEHE200-.LEHB200
	.uleb128 .L1399-.LFB2003
	.uleb128 0x1
	.uleb128 .LEHB201-.LFB2003
	.uleb128 .LEHE201-.LEHB201
	.uleb128 0
	.uleb128 0
	.uleb128 .LEHB202-.LFB2003
	.uleb128 .LEHE202-.LEHB202
	.uleb128 .L1400-.LFB2003
	.uleb128 0x1
	.uleb128 .LEHB203-.LFB2003
	.uleb128 .LEHE203-.LEHB203
	.uleb128 0
	.uleb128 0
	.uleb128 .LEHB204-.LFB2003
	.uleb128 .LEHE204-.LEHB204
	.uleb128 .L1401-.LFB2003
	.uleb128 0x1
	.uleb128 .LEHB205-.LFB2003
	.uleb128 .LEHE205-.LEHB205
	.uleb128 0
	.uleb128 0
	.uleb128 .LEHB206-.LFB2003
	.uleb128 .LEHE206-.LEHB206
	.uleb128 .L1402-.LFB2003
	.uleb128 0x1
	.uleb128 .LEHB207-.LFB2003
	.uleb128 .LEHE207-.LEHB207
	.uleb128 0
	.uleb128 0
	.uleb128 .LEHB208-.LFB2003
	.uleb128 .LEHE208-.LEHB208
	.uleb128 .L1403-.LFB2003
	.uleb128 0x1
	.uleb128 .LEHB209-.LFB2003
	.uleb128 .LEHE209-.LEHB209
	.uleb128 0
	.uleb128 0
	.uleb128 .LEHB210-.LFB2003
	.uleb128 .LEHE210-.LEHB210
	.uleb128 .L1404-.LFB2003
	.uleb128 0x1
	.uleb128 .LEHB211-.LFB2003
	.uleb128 .LEHE211-.LEHB211
	.uleb128 0
	.uleb128 0
.LLSDACSE2003:
	.byte	0x7f
	.byte	0
	.align 4
.LLSDATT2003:
	.byte	0
	.section	.text._ZN5TestsIN5decaf5Ed448EE11arith_checkER4TestRKNS1_6ScalarES7_S7_S7_S7_PKc,"axG",@progbits,_ZN5TestsIN5decaf5Ed448EE11arith_checkER4TestRKNS1_6ScalarES7_S7_S7_S7_PKc,comdat
	.size	_ZN5TestsIN5decaf5Ed448EE11arith_checkER4TestRKNS1_6ScalarES7_S7_S7_S7_PKc, .-_ZN5TestsIN5decaf5Ed448EE11arith_checkER4TestRKNS1_6ScalarES7_S7_S7_S7_PKc
	.section	.text.unlikely._ZN5TestsIN5decaf5Ed448EE11arith_checkER4TestRKNS1_6ScalarES7_S7_S7_S7_PKc,"axG",@progbits,_ZN5TestsIN5decaf5Ed448EE11arith_checkER4TestRKNS1_6ScalarES7_S7_S7_S7_PKc,comdat
.LCOLDE97:
	.section	.text._ZN5TestsIN5decaf5Ed448EE11arith_checkER4TestRKNS1_6ScalarES7_S7_S7_S7_PKc,"axG",@progbits,_ZN5TestsIN5decaf5Ed448EE11arith_checkER4TestRKNS1_6ScalarES7_S7_S7_S7_PKc,comdat
.LHOTE97:
	.section	.rodata.str1.1
.LC98:
	.string	"test_arithmetic"
.LC99:
	.string	"Arithmetic"
.LC100:
	.string	"cast from max"
.LC101:
	.string	"cast from min"
.LC102:
	.string	"commute add"
.LC103:
	.string	"ident add"
.LC104:
	.string	"ident sub"
.LC105:
	.string	"assoc add"
.LC106:
	.string	"distributive mul/add"
.LC107:
	.string	"assoc mul"
.LC108:
	.string	"commute mul"
.LC109:
	.string	"ident mul"
.LC110:
	.string	"mul by 0"
.LC111:
	.string	"mul by -1"
.LC112:
	.string	"mul by 2"
.LC113:
	.string	"invert"
.LC114:
	.string	"invert0"
	.section	.text.unlikely._ZN5TestsIN5decaf5Ed448EE15test_arithmeticEv,"axG",@progbits,_ZN5TestsIN5decaf5Ed448EE15test_arithmeticEv,comdat
.LCOLDB115:
	.section	.text._ZN5TestsIN5decaf5Ed448EE15test_arithmeticEv,"axG",@progbits,_ZN5TestsIN5decaf5Ed448EE15test_arithmeticEv,comdat
.LHOTB115:
	.p2align 4,,15
	.weak	_ZN5TestsIN5decaf5Ed448EE15test_arithmeticEv
	.hidden	_ZN5TestsIN5decaf5Ed448EE15test_arithmeticEv
	.type	_ZN5TestsIN5decaf5Ed448EE15test_arithmeticEv, @function
_ZN5TestsIN5decaf5Ed448EE15test_arithmeticEv:
.LFB1930:
	.cfi_startproc
	.cfi_personality 0x9b,DW.ref.__gxx_personality_v0
	.cfi_lsda 0x1b,.LLSDA1930
	pushq	%rbp
	.cfi_def_cfa_offset 16
	.cfi_offset 6, -16
	leaq	.LC98(%rip), %rsi
	movl	$1, %ecx
	movl	$15, %edx
	movq	%rsp, %rbp
	.cfi_def_cfa_register 6
	pushq	%r15
	pushq	%r14
	pushq	%r13
	pushq	%r12
	pushq	%rbx
	subq	$1048, %rsp
	.cfi_offset 15, -24
	.cfi_offset 14, -32
	.cfi_offset 13, -40
	.cfi_offset 12, -48
	.cfi_offset 3, -56
	movq	%fs:40, %rax
	movq	%rax, -56(%rbp)
	xorl	%eax, %eax
	leaq	-272(%rbp), %rax
	movq	%rax, %rdi
	movq	%rax, -1040(%rbp)
.LEHB212:
	call	spongerng_init_from_buffer@PLT
.LEHE212:
	leaq	.LC99(%rip), %rdx
	leaq	.LC79(%rip), %rsi
	movl	$1, %edi
	xorl	%eax, %eax
	movb	$1, -977(%rbp)
.LEHB213:
	call	__printf_chk@PLT
	leaq	.LC46(%rip), %rcx
	leaq	.LC80(%rip), %rsi
	movl	$17, %edx
	movl	$1, %edi
	xorl	%eax, %eax
	call	__printf_chk@PLT
	movq	stdout@GOTPCREL(%rip), %rax
	movq	(%rax), %rdi
	call	fflush@PLT
.LEHE213:
	leaq	-976(%rbp), %rax
	leaq	-336(%rbp), %rbx
	movq	%rax, %rdi
	movq	%rax, %r14
	movq	%rax, -1072(%rbp)
	call	_ZN5decaf5Ed4486ScalaraSEi.constprop.78
	leaq	-912(%rbp), %rax
	movq	%rax, %rdi
	movq	%rax, %r13
	movq	%rax, -1080(%rbp)
	call	_ZN5decaf5Ed4486ScalaraSEi.constprop.78
	leaq	-848(%rbp), %rax
	movq	%rax, %rdi
	movq	%rax, %r12
	movq	%rax, -1088(%rbp)
	call	_ZN5decaf5Ed4486ScalaraSEi.constprop.78
	movl	$2147483647, %esi
	movq	%rbx, %rdi
.LEHB214:
	call	decaf_448_scalar_set@PLT
.LEHE214:
	leaq	-400(%rbp), %rax
	movl	$2147483647, %esi
	movq	%rax, %rdi
	movq	%rax, %r15
	movq	%rax, -1000(%rbp)
	call	_ZN5decaf5Ed4486ScalaraSEi
	leaq	.LC100(%rip), %rcx
	leaq	-977(%rbp), %rax
	subq	$8, %rsp
	movq	%rbx, %r9
	movq	%r15, %r8
	movq	%r13, %rdx
	pushq	%rcx
	movq	%r14, %rsi
	movq	%r12, %rcx
	movq	%rax, %rdi
	movq	%rax, -1024(%rbp)
.LEHB215:
	.cfi_escape 0x2e,0x10
	call	_ZN5TestsIN5decaf5Ed448EE11arith_checkER4TestRKNS1_6ScalarES7_S7_S7_S7_PKc
.LEHE215:
	popq	%r9
	popq	%r10
	movq	%r15, %rdi
	call	_ZN5decaf5Ed4486ScalarD1Ev
	movq	%rbx, %rdi
	call	_ZN5decaf5Ed4486ScalarD1Ev
	leaq	-464(%rbp), %rax
	movl	$2147483648, %esi
	movq	%rax, %rdi
	movq	%rax, -1016(%rbp)
.LEHB216:
	.cfi_escape 0x2e,0
	call	decaf_448_scalar_set@PLT
.LEHE216:
	movq	-1016(%rbp), %rdx
	movq	decaf_448_scalar_zero@GOTPCREL(%rip), %rsi
	movq	-1000(%rbp), %rdi
.LEHB217:
	call	decaf_448_scalar_sub@PLT
.LEHE217:
	movl	$-2147483648, %esi
	movq	%rbx, %rdi
	call	_ZN5decaf5Ed4486ScalaraSEi
	leaq	.LC101(%rip), %rax
	movq	-1000(%rbp), %r15
	subq	$8, %rsp
	movq	-1088(%rbp), %rcx
	movq	-1080(%rbp), %rdx
	movq	%rbx, %r8
	movq	-1072(%rbp), %rsi
	movq	-1024(%rbp), %rdi
	pushq	%rax
	movq	%r15, %r9
.LEHB218:
	.cfi_escape 0x2e,0x10
	call	_ZN5TestsIN5decaf5Ed448EE11arith_checkER4TestRKNS1_6ScalarES7_S7_S7_S7_PKc
.LEHE218:
	popq	%rdi
	popq	%r8
	movq	%rbx, %rdi
	leaq	-784(%rbp), %r12
	call	_ZN5decaf5Ed4486ScalarD1Ev
	movq	%r15, %rdi
	leaq	-720(%rbp), %r15
	call	_ZN5decaf5Ed4486ScalarD1Ev
	movq	-1016(%rbp), %rdi
	call	_ZN5decaf5Ed4486ScalarD1Ev
	leaq	-656(%rbp), %rax
	movl	$1, -1060(%rbp)
	movq	$0, -1048(%rbp)
	movq	%rax, -1008(%rbp)
	leaq	-528(%rbp), %rax
	movq	%rax, -1032(%rbp)
	jmp	.L1447
	.p2align 4,,10
	.p2align 3
.L1705:
	movq	-1008(%rbp), %rdi
	call	_ZN5decaf5Ed4486ScalarD1Ev
	movq	%r15, %rdi
	call	_ZN5decaf5Ed4486ScalarD1Ev
	movq	%r12, %rdi
	call	_ZN5decaf5Ed4486ScalarD1Ev
	cmpl	$10, -1060(%rbp)
	je	.L1723
.L1722:
	addq	$1, -1048(%rbp)
	addl	$1, -1060(%rbp)
.L1447:
	cmpb	$0, -977(%rbp)
	je	.L1723
	movl	$64, %r13d
	subq	-1048(%rbp), %r13
	movq	%r13, %rdi
.LEHB219:
	.cfi_escape 0x2e,0
	call	_Znam@PLT
.LEHE219:
	movq	%rax, %r14
	movq	$0, (%rax)
	movl	%r13d, %eax
	leaq	8(%r14), %rdi
	movq	%r14, %rcx
	movq	%rax, -1056(%rbp)
	movq	$0, -8(%r14,%rax)
	xorl	%eax, %eax
	movq	%r13, %rdx
	andq	$-8, %rdi
	movq	%r14, %rsi
	subq	%rdi, %rcx
	addl	%r13d, %ecx
	shrl	$3, %ecx
	rep stosq
	movq	-1040(%rbp), %rdi
.LEHB220:
	call	spongerng_next@PLT
.LEHE220:
	movq	%r13, %rdx
	movq	%r14, %rsi
	movq	%r12, %rdi
.LEHB221:
	call	decaf_448_scalar_decode_long@PLT
.LEHE221:
	movq	%r13, %rsi
	movq	%r14, %rdi
.LEHB222:
	call	decaf_bzero@PLT
.LEHE222:
	movq	%r14, %rdi
	call	_ZdaPv@PLT
	movq	%r13, %rdi
.LEHB223:
	call	_Znam@PLT
.LEHE223:
	movq	%rax, %r14
	movq	$0, (%rax)
	movq	-1056(%rbp), %rax
	leaq	8(%r14), %rdi
	movq	%r14, %rcx
	movq	%r13, %rdx
	movq	%r14, %rsi
	andq	$-8, %rdi
	movq	$0, -8(%r14,%rax)
	xorl	%eax, %eax
	subq	%rdi, %rcx
	addl	%r13d, %ecx
	shrl	$3, %ecx
	rep stosq
	movq	-1040(%rbp), %rdi
.LEHB224:
	call	spongerng_next@PLT
.LEHE224:
	movq	%r13, %rdx
	movq	%r14, %rsi
	movq	%r15, %rdi
.LEHB225:
	call	decaf_448_scalar_decode_long@PLT
.LEHE225:
	movq	%r13, %rsi
	movq	%r14, %rdi
.LEHB226:
	call	decaf_bzero@PLT
.LEHE226:
	movq	%r14, %rdi
	call	_ZdaPv@PLT
	movq	%r13, %rdi
.LEHB227:
	call	_Znam@PLT
.LEHE227:
	movq	%rax, %r14
	movq	$0, (%rax)
	movq	-1056(%rbp), %rax
	leaq	8(%r14), %rdi
	movq	%r14, %rcx
	movq	%r13, %rdx
	movq	%r14, %rsi
	andq	$-8, %rdi
	movq	$0, -8(%r14,%rax)
	xorl	%eax, %eax
	subq	%rdi, %rcx
	addl	%r13d, %ecx
	shrl	$3, %ecx
	rep stosq
	movq	-1040(%rbp), %rdi
.LEHB228:
	call	spongerng_next@PLT
.LEHE228:
	movq	-1008(%rbp), %rdi
	movq	%r13, %rdx
	movq	%r14, %rsi
.LEHB229:
	call	decaf_448_scalar_decode_long@PLT
.LEHE229:
	movq	%r13, %rsi
	movq	%r14, %rdi
.LEHB230:
	call	decaf_bzero@PLT
.LEHE230:
	movq	%r14, %rdi
	call	_ZdaPv@PLT
	movq	%r12, %rdx
	movq	%r15, %rsi
	movq	%rbx, %rdi
.LEHB231:
	call	decaf_448_scalar_add@PLT
.LEHE231:
	movq	-1000(%rbp), %rdi
	movq	%r15, %rdx
	movq	%r12, %rsi
.LEHB232:
	call	decaf_448_scalar_add@PLT
.LEHE232:
	leaq	.LC102(%rip), %rax
	movq	-1000(%rbp), %r14
	subq	$8, %rsp
	movq	-1008(%rbp), %rcx
	movq	-1024(%rbp), %rdi
	movq	%rbx, %r9
	pushq	%rax
	movq	%r15, %rdx
	movq	%r12, %rsi
	movq	%r14, %r8
.LEHB233:
	.cfi_escape 0x2e,0x10
	call	_ZN5TestsIN5decaf5Ed448EE11arith_checkER4TestRKNS1_6ScalarES7_S7_S7_S7_PKc
.LEHE233:
	popq	%rcx
	popq	%rsi
	movq	%r14, %rdi
.LEHB234:
	.cfi_escape 0x2e,0
	call	decaf_448_scalar_destroy@PLT
.LEHE234:
	movq	%rbx, %rdi
.LEHB235:
	call	decaf_448_scalar_destroy@PLT
.LEHE235:
	movq	-1000(%rbp), %r14
	movq	%r14, %rdi
	call	_ZN5decaf5Ed4486ScalaraSEi.constprop.78
	movq	%r14, %rdx
	movq	%r12, %rsi
	movq	%rbx, %rdi
.LEHB236:
	call	decaf_448_scalar_add@PLT
.LEHE236:
	leaq	.LC103(%rip), %rax
	subq	$8, %rsp
	movq	-1008(%rbp), %rcx
	movq	-1024(%rbp), %rdi
	movq	%rbx, %r9
	movq	%r12, %r8
	pushq	%rax
	movq	%r15, %rdx
	movq	%r12, %rsi
.LEHB237:
	.cfi_escape 0x2e,0x10
	call	_ZN5TestsIN5decaf5Ed448EE11arith_checkER4TestRKNS1_6ScalarES7_S7_S7_S7_PKc
.LEHE237:
	popq	%rax
	popq	%rdx
	movq	%rbx, %rdi
.LEHB238:
	.cfi_escape 0x2e,0
	call	decaf_448_scalar_destroy@PLT
.LEHE238:
	movq	-1000(%rbp), %rdi
.LEHB239:
	call	decaf_448_scalar_destroy@PLT
.LEHE239:
	movq	-1000(%rbp), %r14
	movq	%r14, %rdi
	call	_ZN5decaf5Ed4486ScalaraSEi.constprop.78
	movq	%r14, %rdx
	movq	%r12, %rsi
	movq	%rbx, %rdi
.LEHB240:
	call	decaf_448_scalar_sub@PLT
.LEHE240:
	leaq	.LC104(%rip), %rax
	subq	$8, %rsp
	movq	-1008(%rbp), %rcx
	movq	-1024(%rbp), %rdi
	movq	%rbx, %r9
	movq	%r12, %r8
	pushq	%rax
	movq	%r15, %rdx
	movq	%r12, %rsi
.LEHB241:
	.cfi_escape 0x2e,0x10
	call	_ZN5TestsIN5decaf5Ed448EE11arith_checkER4TestRKNS1_6ScalarES7_S7_S7_S7_PKc
.LEHE241:
	popq	%r14
	popq	%rax
	movq	%rbx, %rdi
.LEHB242:
	.cfi_escape 0x2e,0
	call	decaf_448_scalar_destroy@PLT
.LEHE242:
	movq	-1000(%rbp), %rdi
.LEHB243:
	call	decaf_448_scalar_destroy@PLT
.LEHE243:
	movq	-1000(%rbp), %rdi
	movq	%r15, %rdx
	movq	%r12, %rsi
.LEHB244:
	call	decaf_448_scalar_add@PLT
.LEHE244:
	movq	-1008(%rbp), %rdx
	movq	-1000(%rbp), %rsi
	movq	%rbx, %rdi
.LEHB245:
	call	decaf_448_scalar_add@PLT
.LEHE245:
	movq	-1008(%rbp), %rdx
	movq	-1032(%rbp), %rdi
	movq	%r15, %rsi
.LEHB246:
	call	decaf_448_scalar_add@PLT
.LEHE246:
	movq	-1032(%rbp), %rdx
	movq	-1016(%rbp), %rdi
	movq	%r12, %rsi
.LEHB247:
	call	decaf_448_scalar_add@PLT
.LEHE247:
	leaq	.LC105(%rip), %rax
	movq	-1016(%rbp), %r14
	subq	$8, %rsp
	movq	-1008(%rbp), %rcx
	movq	-1024(%rbp), %rdi
	movq	%rbx, %r9
	pushq	%rax
	movq	%r15, %rdx
	movq	%r12, %rsi
	movq	%r14, %r8
.LEHB248:
	.cfi_escape 0x2e,0x10
	call	_ZN5TestsIN5decaf5Ed448EE11arith_checkER4TestRKNS1_6ScalarES7_S7_S7_S7_PKc
.LEHE248:
	popq	%r11
	popq	%r13
	movq	%r14, %rdi
.LEHB249:
	.cfi_escape 0x2e,0
	call	decaf_448_scalar_destroy@PLT
.LEHE249:
	movq	-1032(%rbp), %rdi
.LEHB250:
	call	decaf_448_scalar_destroy@PLT
.LEHE250:
	movq	%rbx, %rdi
.LEHB251:
	call	decaf_448_scalar_destroy@PLT
.LEHE251:
	movq	-1000(%rbp), %rdi
.LEHB252:
	call	decaf_448_scalar_destroy@PLT
.LEHE252:
	movq	-1008(%rbp), %rdx
	movq	-1000(%rbp), %rdi
	movq	%r12, %rsi
.LEHB253:
	call	decaf_448_scalar_mul@PLT
.LEHE253:
	movq	-1016(%rbp), %rdi
	movq	%r15, %rdx
	movq	%r12, %rsi
.LEHB254:
	call	decaf_448_scalar_mul@PLT
.LEHE254:
	movq	-1000(%rbp), %rdx
	movq	-1016(%rbp), %rsi
	movq	%rbx, %rdi
.LEHB255:
	call	decaf_448_scalar_add@PLT
.LEHE255:
	leaq	-592(%rbp), %r13
	movq	-1008(%rbp), %rdx
	movq	%r15, %rsi
	movq	%r13, %rdi
.LEHB256:
	call	decaf_448_scalar_add@PLT
.LEHE256:
	movq	-1032(%rbp), %rdi
	movq	%r13, %rdx
	movq	%r12, %rsi
.LEHB257:
	call	decaf_448_scalar_mul@PLT
.LEHE257:
	leaq	.LC106(%rip), %rax
	movq	-1032(%rbp), %r14
	subq	$8, %rsp
	movq	-1008(%rbp), %rcx
	movq	-1024(%rbp), %rdi
	movq	%rbx, %r9
	pushq	%rax
	movq	%r15, %rdx
	movq	%r12, %rsi
	movq	%r14, %r8
.LEHB258:
	.cfi_escape 0x2e,0x10
	call	_ZN5TestsIN5decaf5Ed448EE11arith_checkER4TestRKNS1_6ScalarES7_S7_S7_S7_PKc
.LEHE258:
	popq	%r9
	popq	%r10
	movq	%r14, %rdi
.LEHB259:
	.cfi_escape 0x2e,0
	call	decaf_448_scalar_destroy@PLT
.LEHE259:
	movq	%r13, %rdi
.LEHB260:
	call	decaf_448_scalar_destroy@PLT
.LEHE260:
	movq	%rbx, %rdi
.LEHB261:
	call	decaf_448_scalar_destroy@PLT
.LEHE261:
	movq	-1016(%rbp), %rdi
.LEHB262:
	call	decaf_448_scalar_destroy@PLT
.LEHE262:
	movq	-1000(%rbp), %rdi
.LEHB263:
	call	decaf_448_scalar_destroy@PLT
.LEHE263:
	movq	-1008(%rbp), %rdx
	movq	-1000(%rbp), %rdi
	movq	%r12, %rsi
.LEHB264:
	call	decaf_448_scalar_mul@PLT
.LEHE264:
	movq	-1016(%rbp), %rdi
	movq	%r15, %rdx
	movq	%r12, %rsi
.LEHB265:
	call	decaf_448_scalar_mul@PLT
.LEHE265:
	movq	-1000(%rbp), %rdx
	movq	-1016(%rbp), %rsi
	movq	%rbx, %rdi
.LEHB266:
	call	decaf_448_scalar_sub@PLT
.LEHE266:
	movq	-1008(%rbp), %rdx
	movq	%r15, %rsi
	movq	%r13, %rdi
.LEHB267:
	call	decaf_448_scalar_sub@PLT
.LEHE267:
	movq	-1032(%rbp), %rdi
	movq	%r13, %rdx
	movq	%r12, %rsi
.LEHB268:
	call	decaf_448_scalar_mul@PLT
.LEHE268:
	leaq	.LC106(%rip), %rax
	movq	-1032(%rbp), %r14
	subq	$8, %rsp
	movq	-1008(%rbp), %rcx
	movq	-1024(%rbp), %rdi
	movq	%rbx, %r9
	pushq	%rax
	movq	%r15, %rdx
	movq	%r12, %rsi
	movq	%r14, %r8
.LEHB269:
	.cfi_escape 0x2e,0x10
	call	_ZN5TestsIN5decaf5Ed448EE11arith_checkER4TestRKNS1_6ScalarES7_S7_S7_S7_PKc
.LEHE269:
	popq	%rdi
	popq	%r8
	movq	%r14, %rdi
.LEHB270:
	.cfi_escape 0x2e,0
	call	decaf_448_scalar_destroy@PLT
.LEHE270:
	movq	%r13, %rdi
.LEHB271:
	call	decaf_448_scalar_destroy@PLT
.LEHE271:
	movq	%rbx, %rdi
.LEHB272:
	call	decaf_448_scalar_destroy@PLT
.LEHE272:
	movq	-1016(%rbp), %rdi
.LEHB273:
	call	decaf_448_scalar_destroy@PLT
.LEHE273:
	movq	-1000(%rbp), %rdi
.LEHB274:
	call	decaf_448_scalar_destroy@PLT
.LEHE274:
	movq	-1000(%rbp), %rdi
	movq	%r15, %rdx
	movq	%r12, %rsi
.LEHB275:
	call	decaf_448_scalar_mul@PLT
.LEHE275:
	movq	-1008(%rbp), %rdx
	movq	-1000(%rbp), %rsi
	movq	%rbx, %rdi
.LEHB276:
	call	decaf_448_scalar_mul@PLT
.LEHE276:
	movq	-1008(%rbp), %rdx
	movq	-1032(%rbp), %rdi
	movq	%r15, %rsi
.LEHB277:
	call	decaf_448_scalar_mul@PLT
.LEHE277:
	movq	-1032(%rbp), %rdx
	movq	-1016(%rbp), %rdi
	movq	%r12, %rsi
.LEHB278:
	call	decaf_448_scalar_mul@PLT
.LEHE278:
	leaq	.LC107(%rip), %rax
	movq	-1016(%rbp), %r14
	subq	$8, %rsp
	movq	-1008(%rbp), %rcx
	movq	-1024(%rbp), %rdi
	movq	%rbx, %r9
	pushq	%rax
	movq	%r15, %rdx
	movq	%r12, %rsi
	movq	%r14, %r8
.LEHB279:
	.cfi_escape 0x2e,0x10
	call	_ZN5TestsIN5decaf5Ed448EE11arith_checkER4TestRKNS1_6ScalarES7_S7_S7_S7_PKc
.LEHE279:
	popq	%rcx
	popq	%rsi
	movq	%r14, %rdi
.LEHB280:
	.cfi_escape 0x2e,0
	call	decaf_448_scalar_destroy@PLT
.LEHE280:
	movq	-1032(%rbp), %rdi
.LEHB281:
	call	decaf_448_scalar_destroy@PLT
.LEHE281:
	movq	%rbx, %rdi
.LEHB282:
	call	decaf_448_scalar_destroy@PLT
.LEHE282:
	movq	-1000(%rbp), %rdi
.LEHB283:
	call	decaf_448_scalar_destroy@PLT
.LEHE283:
	movq	%r12, %rdx
	movq	%r15, %rsi
	movq	%rbx, %rdi
.LEHB284:
	call	decaf_448_scalar_mul@PLT
.LEHE284:
	movq	-1000(%rbp), %rdi
	movq	%r15, %rdx
	movq	%r12, %rsi
.LEHB285:
	call	decaf_448_scalar_mul@PLT
.LEHE285:
	leaq	.LC108(%rip), %rax
	movq	-1000(%rbp), %r14
	subq	$8, %rsp
	movq	-1008(%rbp), %rcx
	movq	-1024(%rbp), %rdi
	movq	%rbx, %r9
	pushq	%rax
	movq	%r15, %rdx
	movq	%r12, %rsi
	movq	%r14, %r8
.LEHB286:
	.cfi_escape 0x2e,0x10
	call	_ZN5TestsIN5decaf5Ed448EE11arith_checkER4TestRKNS1_6ScalarES7_S7_S7_S7_PKc
.LEHE286:
	popq	%rax
	popq	%rdx
	movq	%r14, %rdi
.LEHB287:
	.cfi_escape 0x2e,0
	call	decaf_448_scalar_destroy@PLT
.LEHE287:
	movq	%rbx, %rdi
.LEHB288:
	call	decaf_448_scalar_destroy@PLT
.LEHE288:
	movl	$2147483648, %esi
	movq	%rbx, %rdi
.LEHB289:
	call	decaf_448_scalar_set@PLT
.LEHE289:
	movq	-1000(%rbp), %rdi
	movl	$2147483649, %esi
.LEHB290:
	call	decaf_448_scalar_set@PLT
.LEHE290:
	movq	-1000(%rbp), %rdi
	movq	%rbx, %rdx
	movq	%rdi, %rsi
.LEHB291:
	call	decaf_448_scalar_sub@PLT
.LEHE291:
	movq	%rbx, %rdi
.LEHB292:
	call	decaf_448_scalar_destroy@PLT
.LEHE292:
	movq	-1000(%rbp), %rdx
	movq	%r12, %rsi
	movq	%rbx, %rdi
.LEHB293:
	call	decaf_448_scalar_mul@PLT
.LEHE293:
	leaq	.LC109(%rip), %rax
	subq	$8, %rsp
	movq	-1008(%rbp), %rcx
	movq	-1024(%rbp), %rdi
	movq	%rbx, %r9
	movq	%r12, %r8
	pushq	%rax
	movq	%r15, %rdx
	movq	%r12, %rsi
.LEHB294:
	.cfi_escape 0x2e,0x10
	call	_ZN5TestsIN5decaf5Ed448EE11arith_checkER4TestRKNS1_6ScalarES7_S7_S7_S7_PKc
.LEHE294:
	popq	%r14
	popq	%rax
	movq	%rbx, %rdi
.LEHB295:
	.cfi_escape 0x2e,0
	call	decaf_448_scalar_destroy@PLT
.LEHE295:
	movq	-1000(%rbp), %rdi
.LEHB296:
	call	decaf_448_scalar_destroy@PLT
.LEHE296:
	movq	-1016(%rbp), %r14
	movq	%r14, %rdi
	call	_ZN5decaf5Ed4486ScalaraSEi.constprop.78
	movq	-1000(%rbp), %rdi
	movq	%r14, %rdx
	movq	%r12, %rsi
.LEHB297:
	call	decaf_448_scalar_mul@PLT
.LEHE297:
	movq	%rbx, %rdi
	call	_ZN5decaf5Ed4486ScalaraSEi.constprop.78
	leaq	.LC110(%rip), %rax
	movq	-1000(%rbp), %r14
	subq	$8, %rsp
	movq	-1008(%rbp), %rcx
	movq	-1024(%rbp), %rdi
	movq	%rbx, %r8
	pushq	%rax
	movq	%r15, %rdx
	movq	%r12, %rsi
	movq	%r14, %r9
.LEHB298:
	.cfi_escape 0x2e,0x10
	call	_ZN5TestsIN5decaf5Ed448EE11arith_checkER4TestRKNS1_6ScalarES7_S7_S7_S7_PKc
.LEHE298:
	popq	%r11
	popq	%r13
	movq	%rbx, %rdi
.LEHB299:
	.cfi_escape 0x2e,0
	call	decaf_448_scalar_destroy@PLT
.LEHE299:
	movq	%r14, %rdi
.LEHB300:
	call	decaf_448_scalar_destroy@PLT
.LEHE300:
	movq	-1016(%rbp), %rdi
.LEHB301:
	call	decaf_448_scalar_destroy@PLT
.LEHE301:
	movl	$2147483648, %esi
	movq	%rbx, %rdi
.LEHB302:
	call	decaf_448_scalar_set@PLT
.LEHE302:
	movq	-1000(%rbp), %rdi
	movl	$2147483647, %esi
.LEHB303:
	call	decaf_448_scalar_set@PLT
.LEHE303:
	movq	-1000(%rbp), %rdi
	movq	%rbx, %rdx
	movq	%rdi, %rsi
.LEHB304:
	call	decaf_448_scalar_sub@PLT
.LEHE304:
	movq	%rbx, %rdi
.LEHB305:
	call	decaf_448_scalar_destroy@PLT
.LEHE305:
	movq	-1000(%rbp), %rdx
	movq	%r12, %rsi
	movq	%rbx, %rdi
.LEHB306:
	call	decaf_448_scalar_mul@PLT
.LEHE306:
	movq	decaf_448_scalar_zero@GOTPCREL(%rip), %rsi
	movq	-1016(%rbp), %rdi
	movq	%r12, %rdx
.LEHB307:
	call	decaf_448_scalar_sub@PLT
.LEHE307:
	leaq	.LC111(%rip), %rax
	movq	-1016(%rbp), %r14
	subq	$8, %rsp
	movq	-1008(%rbp), %rcx
	movq	-1024(%rbp), %rdi
	movq	%rbx, %r9
	pushq	%rax
	movq	%r15, %rdx
	movq	%r12, %rsi
	movq	%r14, %r8
.LEHB308:
	.cfi_escape 0x2e,0x10
	call	_ZN5TestsIN5decaf5Ed448EE11arith_checkER4TestRKNS1_6ScalarES7_S7_S7_S7_PKc
.LEHE308:
	popq	%r9
	popq	%r10
	movq	%r14, %rdi
.LEHB309:
	.cfi_escape 0x2e,0
	call	decaf_448_scalar_destroy@PLT
.LEHE309:
	movq	%rbx, %rdi
.LEHB310:
	call	decaf_448_scalar_destroy@PLT
.LEHE310:
	movq	-1000(%rbp), %rdi
.LEHB311:
	call	decaf_448_scalar_destroy@PLT
.LEHE311:
	movl	$2147483648, %esi
	movq	%rbx, %rdi
.LEHB312:
	call	decaf_448_scalar_set@PLT
.LEHE312:
	movq	-1000(%rbp), %rdi
	movl	$2147483650, %esi
.LEHB313:
	call	decaf_448_scalar_set@PLT
.LEHE313:
	movq	-1000(%rbp), %rdi
	movq	%rbx, %rdx
	movq	%rdi, %rsi
.LEHB314:
	call	decaf_448_scalar_sub@PLT
.LEHE314:
	movq	%rbx, %rdi
.LEHB315:
	call	decaf_448_scalar_destroy@PLT
.LEHE315:
	movq	-1000(%rbp), %rdx
	movq	%r12, %rsi
	movq	%rbx, %rdi
.LEHB316:
	call	decaf_448_scalar_mul@PLT
.LEHE316:
	movq	-1016(%rbp), %rdi
	movq	%r12, %rdx
	movq	%r12, %rsi
.LEHB317:
	call	decaf_448_scalar_add@PLT
.LEHE317:
	leaq	.LC112(%rip), %rax
	movq	-1016(%rbp), %r14
	subq	$8, %rsp
	movq	-1008(%rbp), %rcx
	movq	-1024(%rbp), %rdi
	movq	%rbx, %r9
	pushq	%rax
	movq	%r15, %rdx
	movq	%r12, %rsi
	movq	%r14, %r8
.LEHB318:
	.cfi_escape 0x2e,0x10
	call	_ZN5TestsIN5decaf5Ed448EE11arith_checkER4TestRKNS1_6ScalarES7_S7_S7_S7_PKc
.LEHE318:
	popq	%rdi
	popq	%r8
	movq	%r14, %rdi
.LEHB319:
	.cfi_escape 0x2e,0
	call	decaf_448_scalar_destroy@PLT
.LEHE319:
	movq	%rbx, %rdi
.LEHB320:
	call	decaf_448_scalar_destroy@PLT
.LEHE320:
	movq	-1000(%rbp), %rdi
.LEHB321:
	call	decaf_448_scalar_destroy@PLT
.LEHE321:
	cmpq	$0, -1048(%rbp)
	jne	.L1705
	movq	%rbx, %rdi
	call	_ZN5decaf5Ed4486ScalaraSEi.constprop.78
	movq	%rbx, %rsi
	movq	%r15, %rdi
.LEHB322:
	call	decaf_448_scalar_eq@PLT
.LEHE322:
	movq	%rax, %r13
	movq	%rbx, %rdi
	call	_ZN5decaf5Ed4486ScalarD1Ev
	testq	%r13, %r13
	jne	.L1710
	movq	-1016(%rbp), %rdi
	movq	%r12, %rsi
	movq	%r15, %rdx
	call	_ZNK5decaf5Ed4486ScalarmlERKS1_
	movq	decaf_448_scalar_zero@GOTPCREL(%rip), %rax
	movq	%r15, %rsi
	movq	%rbx, %rdi
	movq	(%rax), %rax
	movq	%rax, -336(%rbp)
	movq	decaf_448_scalar_zero@GOTPCREL(%rip), %rax
	movq	8(%rax), %rax
	movq	%rax, -328(%rbp)
	movq	decaf_448_scalar_zero@GOTPCREL(%rip), %rax
	movq	16(%rax), %rax
	movq	%rax, -320(%rbp)
	movq	decaf_448_scalar_zero@GOTPCREL(%rip), %rax
	movq	24(%rax), %rax
	movq	%rax, -312(%rbp)
	movq	decaf_448_scalar_zero@GOTPCREL(%rip), %rax
	movq	32(%rax), %rax
	movq	%rax, -304(%rbp)
	movq	decaf_448_scalar_zero@GOTPCREL(%rip), %rax
	movq	40(%rax), %rax
	movq	%rax, -296(%rbp)
	movq	decaf_448_scalar_zero@GOTPCREL(%rip), %rax
	movq	48(%rax), %rax
	movq	%rax, -288(%rbp)
.LEHB323:
	call	decaf_448_scalar_invert@PLT
.LEHE323:
	movq	-1000(%rbp), %r14
	movq	-1016(%rbp), %r13
	movq	%rbx, %rdx
	movq	%r13, %rsi
	movq	%r14, %rdi
	call	_ZNK5decaf5Ed4486ScalarmlERKS1_
	movq	%rbx, %rdi
	call	_ZN5decaf5Ed4486ScalarD1Ev
	leaq	.LC113(%rip), %rax
	subq	$8, %rsp
	movq	-1008(%rbp), %rcx
	movq	-1024(%rbp), %rdi
	movq	%r12, %r9
	movq	%r14, %r8
	pushq	%rax
	movq	%r15, %rdx
	movq	%r12, %rsi
.LEHB324:
	.cfi_escape 0x2e,0x10
	call	_ZN5TestsIN5decaf5Ed448EE11arith_checkER4TestRKNS1_6ScalarES7_S7_S7_S7_PKc
.LEHE324:
	popq	%rcx
	popq	%rsi
	movq	%r14, %rdi
	call	_ZN5decaf5Ed4486ScalarD1Ev
	movq	%r13, %rdi
	call	_ZN5decaf5Ed4486ScalarD1Ev
.L1710:
	movq	-1000(%rbp), %rdi
	call	_ZN5decaf5Ed4486ScalaraSEi.constprop.78
	movq	-1032(%rbp), %r14
	movq	%r14, %rdi
	call	_ZN5decaf5Ed4486ScalaraSEi.constprop.78
	movq	decaf_448_scalar_zero@GOTPCREL(%rip), %rax
	movq	%r14, %rsi
	movq	%rbx, %rdi
	movq	(%rax), %rax
	movq	%rax, -336(%rbp)
	movq	decaf_448_scalar_zero@GOTPCREL(%rip), %rax
	movq	8(%rax), %rax
	movq	%rax, -328(%rbp)
	movq	decaf_448_scalar_zero@GOTPCREL(%rip), %rax
	movq	16(%rax), %rax
	movq	%rax, -320(%rbp)
	movq	decaf_448_scalar_zero@GOTPCREL(%rip), %rax
	movq	24(%rax), %rax
	movq	%rax, -312(%rbp)
	movq	decaf_448_scalar_zero@GOTPCREL(%rip), %rax
	movq	32(%rax), %rax
	movq	%rax, -304(%rbp)
	movq	decaf_448_scalar_zero@GOTPCREL(%rip), %rax
	movq	40(%rax), %rax
	movq	%rax, -296(%rbp)
	movq	decaf_448_scalar_zero@GOTPCREL(%rip), %rax
	movq	48(%rax), %rax
	movq	%rax, -288(%rbp)
.LEHB325:
	.cfi_escape 0x2e,0
	call	decaf_448_scalar_invert@PLT
.LEHE325:
	movq	-1016(%rbp), %rdi
	movq	%rbx, %rdx
	movq	%r12, %rsi
.LEHB326:
	call	decaf_448_scalar_mul@PLT
.LEHE326:
	movq	%rbx, %rdi
	call	_ZN5decaf5Ed4486ScalarD1Ev
	leaq	.LC114(%rip), %rax
	movq	-1016(%rbp), %r13
	movq	-1008(%rbp), %r14
	subq	$8, %rsp
	movq	-1000(%rbp), %r9
	movq	-1024(%rbp), %rdi
	pushq	%rax
	movq	%r15, %rdx
	movq	%r12, %rsi
	movq	%r13, %r8
	movq	%r14, %rcx
.LEHB327:
	.cfi_escape 0x2e,0x10
	call	_ZN5TestsIN5decaf5Ed448EE11arith_checkER4TestRKNS1_6ScalarES7_S7_S7_S7_PKc
.LEHE327:
	popq	%rax
	popq	%rdx
	movq	%r13, %rdi
	call	_ZN5decaf5Ed4486ScalarD1Ev
	movq	-1032(%rbp), %rdi
	call	_ZN5decaf5Ed4486ScalarD1Ev
	movq	-1000(%rbp), %rdi
	call	_ZN5decaf5Ed4486ScalarD1Ev
	movq	%r14, %rdi
	call	_ZN5decaf5Ed4486ScalarD1Ev
	movq	%r15, %rdi
	call	_ZN5decaf5Ed4486ScalarD1Ev
	movq	%r12, %rdi
	call	_ZN5decaf5Ed4486ScalarD1Ev
	jmp	.L1722
	.p2align 4,,10
	.p2align 3
.L1723:
	movq	-1088(%rbp), %rdi
	call	_ZN5decaf5Ed4486ScalarD1Ev
	movq	-1080(%rbp), %rdi
	call	_ZN5decaf5Ed4486ScalarD1Ev
	movq	-1072(%rbp), %rdi
	call	_ZN5decaf5Ed4486ScalarD1Ev
	movq	-1024(%rbp), %rdi
.LEHB328:
	.cfi_escape 0x2e,0
	call	_ZN4TestD1Ev
.LEHE328:
	movq	-1040(%rbp), %rdi
	call	_ZN5decaf12KeccakSpongeD2Ev
	movq	-56(%rbp), %rax
	xorq	%fs:40, %rax
	jne	.L2031
	leaq	-40(%rbp), %rsp
	popq	%rbx
	popq	%r12
	popq	%r13
	popq	%r14
	popq	%r15
	popq	%rbp
	.cfi_remember_state
	.cfi_def_cfa 7, 8
	ret
.L1763:
	.cfi_restore_state
	movq	%rax, %rbx
	jmp	.L1438
.L2031:
	call	__stack_chk_fail@PLT
.L1860:
	movq	%rax, %rbx
	movq	%rdx, %r15
	jmp	.L1720
.L1861:
	movq	%rax, %r15
	movq	%rdx, %r12
	jmp	.L1717
.L1720:
	movq	-1016(%rbp), %rdi
	vzeroupper
	call	_ZN5decaf5Ed4486ScalarD1Ev
	movq	%r15, %rax
	movq	%rbx, %rdi
	addq	$1, %rax
	je	.L1721
.LEHB329:
	call	_Unwind_Resume@PLT
.L1717:
	movq	%rbx, %rdi
	vzeroupper
	call	_ZN5decaf5Ed4486ScalarD1Ev
	addq	$1, %r12
	movq	%r15, %rdi
	je	.L1718
	call	_Unwind_Resume@PLT
.L1721:
	call	__cxa_call_unexpected@PLT
.L1718:
	call	__cxa_call_unexpected@PLT
.L1762:
	movq	%rax, %rbx
	jmp	.L1740
.L1438:
	movq	-1040(%rbp), %rdi
	vzeroupper
	call	_ZN5decaf12KeccakSpongeD2Ev
	movq	%rbx, %rdi
	call	_Unwind_Resume@PLT
.LEHE329:
.L1740:
	movq	-1016(%rbp), %rdi
	vzeroupper
	call	_ZN5decaf5Ed4486ScalarD1Ev
	movq	-1032(%rbp), %rdi
	call	_ZN5decaf5Ed4486ScalarD1Ev
	movq	-1000(%rbp), %rdi
	call	_ZN5decaf5Ed4486ScalarD1Ev
.L1727:
	movq	-1008(%rbp), %rdi
	call	_ZN5decaf5Ed4486ScalarD1Ev
.L1479:
	movq	%r15, %rdi
	vzeroupper
	call	_ZN5decaf5Ed4486ScalarD1Ev
.L1467:
	movq	%r12, %rdi
	vzeroupper
	call	_ZN5decaf5Ed4486ScalarD1Ev
.L1455:
	movq	-1088(%rbp), %rdi
	vzeroupper
	call	_ZN5decaf5Ed4486ScalarD1Ev
	movq	-1080(%rbp), %rdi
	call	_ZN5decaf5Ed4486ScalarD1Ev
	movq	-1072(%rbp), %rdi
	call	_ZN5decaf5Ed4486ScalarD1Ev
	movq	-1024(%rbp), %rdi
	call	_ZN4TestD1Ev
.L1741:
	movq	-1040(%rbp), %rdi
	vzeroupper
	call	_ZN5decaf12KeccakSpongeD2Ev
	movq	%rbx, %rdi
.LEHB330:
	call	_Unwind_Resume@PLT
.L1761:
	movq	%rax, %rbx
	jmp	.L1739
.L1859:
	movq	%rax, %r15
	movq	%rdx, %r12
	jmp	.L1714
.L1739:
	movq	-1000(%rbp), %rdi
	vzeroupper
	call	_ZN5decaf5Ed4486ScalarD1Ev
	movq	-1016(%rbp), %rdi
	call	_ZN5decaf5Ed4486ScalarD1Ev
	jmp	.L1727
.L1714:
	movq	%rbx, %rdi
	vzeroupper
	call	_ZN5decaf5Ed4486ScalarD1Ev
	addq	$1, %r12
	movq	%r15, %rdi
	je	.L1715
	call	_Unwind_Resume@PLT
.L1858:
	movq	%rax, %rdi
	jmp	.L1711
.L1855:
	movq	%rax, %rdi
	jmp	.L1707
.L1715:
	call	__cxa_call_unexpected@PLT
.L1711:
	addq	$1, %rdx
	je	.L1712
	vzeroupper
	call	_Unwind_Resume@PLT
.L1707:
	addq	$1, %rdx
	je	.L1708
	vzeroupper
	call	_Unwind_Resume@PLT
.L1712:
	vzeroupper
	call	__cxa_call_unexpected@PLT
.L1708:
	vzeroupper
	call	__cxa_call_unexpected@PLT
.L1856:
	movq	%rax, %rdi
	jmp	.L1703
.L1857:
	movq	%rax, %rdi
	jmp	.L1700
.L1703:
	addq	$1, %rdx
	je	.L1704
	vzeroupper
	call	_Unwind_Resume@PLT
.L1700:
	addq	$1, %rdx
	je	.L1701
	vzeroupper
	call	_Unwind_Resume@PLT
.L1704:
	vzeroupper
	call	__cxa_call_unexpected@PLT
.L1701:
	vzeroupper
	call	__cxa_call_unexpected@PLT
.L1760:
.L1950:
	movq	%rax, %r13
	jmp	.L1738
.L1846:
	movq	%rax, %rbx
	movq	%rdx, %r15
	jmp	.L1697
.L1738:
	movq	-1016(%rbp), %rdi
	vzeroupper
.L1946:
	call	_ZN5decaf5Ed4486ScalarD1Ev
	movq	%rbx, %rdi
	movq	%r13, %rbx
	call	_ZN5decaf5Ed4486ScalarD1Ev
	movq	-1000(%rbp), %rdi
	call	_ZN5decaf5Ed4486ScalarD1Ev
	jmp	.L1727
.L1697:
	movq	-1016(%rbp), %rdi
	vzeroupper
	call	_ZN5decaf5Ed4486ScalarD1Ev
	movq	%r15, %rax
	movq	%rbx, %rdi
	addq	$1, %rax
	je	.L1698
	call	_Unwind_Resume@PLT
.L1847:
	movq	%rax, %r15
	movq	%rdx, %r12
	jmp	.L1694
.L1852:
	movq	%rax, %rdi
	jmp	.L1684
.L1854:
	movq	%rax, %rdi
	jmp	.L1687
.L1850:
	movq	%rax, %rdi
	jmp	.L1678
.L1853:
	movq	%rax, %rdi
	jmp	.L1690
.L1849:
	movq	%rax, %rdi
	jmp	.L1681
.L1848:
	movq	%rax, %r15
	movq	%rdx, %r12
	jmp	.L1692
.L1851:
	movq	%rax, %rdi
	jmp	.L1675
.L1698:
	call	__cxa_call_unexpected@PLT
.L1694:
	movq	%rbx, %rdi
	vzeroupper
	call	_ZN5decaf5Ed4486ScalarD1Ev
	addq	$1, %r12
	movq	%r15, %rdi
	je	.L1695
	call	_Unwind_Resume@PLT
.L1690:
	addq	$1, %rdx
	je	.L1691
	vzeroupper
	call	_Unwind_Resume@PLT
.L1695:
	call	__cxa_call_unexpected@PLT
.L1691:
	vzeroupper
	call	__cxa_call_unexpected@PLT
.L1687:
	addq	$1, %rdx
	je	.L1688
	vzeroupper
	call	_Unwind_Resume@PLT
.L1692:
	movq	%rbx, %rdi
	vzeroupper
	call	_ZN5decaf5Ed4486ScalarD1Ev
	addq	$1, %r12
	movq	%r15, %rdi
	je	.L1693
	call	_Unwind_Resume@PLT
.L1688:
	vzeroupper
	call	__cxa_call_unexpected@PLT
.L1693:
	call	__cxa_call_unexpected@PLT
.L1684:
	addq	$1, %rdx
	je	.L1685
	vzeroupper
	call	_Unwind_Resume@PLT
.L1681:
	addq	$1, %rdx
	je	.L1682
	vzeroupper
	call	_Unwind_Resume@PLT
.L1685:
	vzeroupper
	call	__cxa_call_unexpected@PLT
.L1682:
	vzeroupper
	call	__cxa_call_unexpected@PLT
.L1678:
	addq	$1, %rdx
	je	.L1679
	vzeroupper
	call	_Unwind_Resume@PLT
.L1675:
	addq	$1, %rdx
	je	.L1676
	vzeroupper
	call	_Unwind_Resume@PLT
.L1679:
	vzeroupper
	call	__cxa_call_unexpected@PLT
.L1676:
	vzeroupper
	call	__cxa_call_unexpected@PLT
.L1759:
	jmp	.L1950
.L1837:
	movq	%rax, %rbx
	movq	%rdx, %r15
	jmp	.L1672
.L1838:
	movq	%rax, %r15
	movq	%rdx, %r12
	jmp	.L1669
.L1844:
	movq	%rax, %rdi
	jmp	.L1665
.L1672:
	movq	-1016(%rbp), %rdi
	vzeroupper
	call	_ZN5decaf5Ed4486ScalarD1Ev
	movq	%r15, %rax
	movq	%rbx, %rdi
	addq	$1, %rax
	je	.L1673
	call	_Unwind_Resume@PLT
.L1669:
	movq	%rbx, %rdi
	vzeroupper
	call	_ZN5decaf5Ed4486ScalarD1Ev
	addq	$1, %r12
	movq	%r15, %rdi
	je	.L1670
	call	_Unwind_Resume@PLT
.L1665:
	addq	$1, %rdx
	je	.L1666
	vzeroupper
	call	_Unwind_Resume@PLT
.L1673:
	call	__cxa_call_unexpected@PLT
.L1670:
	call	__cxa_call_unexpected@PLT
.L1666:
	vzeroupper
	call	__cxa_call_unexpected@PLT
.L1845:
	movq	%rax, %rdi
	jmp	.L1662
.L1839:
	movq	%rax, %r15
	movq	%rdx, %r12
	jmp	.L1667
.L1662:
	addq	$1, %rdx
	je	.L1663
	vzeroupper
	call	_Unwind_Resume@PLT
.L1667:
	movq	%rbx, %rdi
	vzeroupper
	call	_ZN5decaf5Ed4486ScalarD1Ev
	addq	$1, %r12
	movq	%r15, %rdi
	je	.L1668
	call	_Unwind_Resume@PLT
.L1663:
	vzeroupper
	call	__cxa_call_unexpected@PLT
.L1668:
	call	__cxa_call_unexpected@PLT
.L1843:
	movq	%rax, %rdi
	jmp	.L1659
.L1840:
	movq	%rax, %rdi
	jmp	.L1656
.L1659:
	addq	$1, %rdx
	je	.L1660
	vzeroupper
	call	_Unwind_Resume@PLT
.L1656:
	addq	$1, %rdx
	je	.L1657
	vzeroupper
	call	_Unwind_Resume@PLT
.L1660:
	vzeroupper
	call	__cxa_call_unexpected@PLT
.L1657:
	vzeroupper
	call	__cxa_call_unexpected@PLT
.L1841:
	movq	%rax, %rdi
	jmp	.L1653
.L1842:
	movq	%rax, %rdi
	jmp	.L1650
.L1653:
	addq	$1, %rdx
	je	.L1654
	vzeroupper
	call	_Unwind_Resume@PLT
.L1650:
	addq	$1, %rdx
	je	.L1651
	vzeroupper
	call	_Unwind_Resume@PLT
.L1654:
	vzeroupper
	call	__cxa_call_unexpected@PLT
.L1651:
	vzeroupper
	call	__cxa_call_unexpected@PLT
.L1758:
	movq	%rax, %r13
	jmp	.L1736
.L1834:
	movq	%rax, %rbx
	movq	%rdx, %r12
	jmp	.L1647
.L1736:
	movq	%rbx, %rdi
	vzeroupper
	call	_ZN5decaf5Ed4486ScalarD1Ev
	movq	-1000(%rbp), %rdi
	movq	%r13, %rbx
	call	_ZN5decaf5Ed4486ScalarD1Ev
	movq	-1016(%rbp), %rdi
	call	_ZN5decaf5Ed4486ScalarD1Ev
	jmp	.L1727
.L1647:
	movq	-1000(%rbp), %rdi
	vzeroupper
	call	_ZN5decaf5Ed4486ScalarD1Ev
	addq	$1, %r12
	movq	%rbx, %rdi
	je	.L1648
	call	_Unwind_Resume@PLT
.L1835:
	movq	%rax, %rdi
	jmp	.L1645
.L1757:
.L1949:
	movq	%rax, %r13
	jmp	.L1735
.L1836:
	movq	%rax, %rdi
	jmp	.L1642
.L1827:
	movq	%rax, %r15
	movq	%rdx, %r12
	jmp	.L1639
.L1648:
	call	__cxa_call_unexpected@PLT
.L1645:
	addq	$1, %rdx
	je	.L1646
	vzeroupper
	call	_Unwind_Resume@PLT
.L1642:
	addq	$1, %rdx
	je	.L1643
	vzeroupper
	call	_Unwind_Resume@PLT
.L1646:
	vzeroupper
	call	__cxa_call_unexpected@PLT
.L1643:
	vzeroupper
	call	__cxa_call_unexpected@PLT
.L1735:
	movq	%rbx, %rdi
	vzeroupper
	call	_ZN5decaf5Ed4486ScalarD1Ev
	movq	-1000(%rbp), %rdi
	movq	%r13, %rbx
	call	_ZN5decaf5Ed4486ScalarD1Ev
	jmp	.L1727
.L1639:
	movq	%rbx, %rdi
	vzeroupper
	call	_ZN5decaf5Ed4486ScalarD1Ev
	addq	$1, %r12
	movq	%r15, %rdi
	je	.L1640
	call	_Unwind_Resume@PLT
.L1832:
	movq	%rax, %rdi
	jmp	.L1635
.L1822:
	movq	%rax, %r15
	movq	%rdx, %r12
	jmp	.L1617
.L1829:
	movq	%rax, %rdi
	jmp	.L1626
.L1826:
	movq	%rax, %rdi
	jmp	.L1606
.L1828:
	movq	%rax, %r15
	movq	%rdx, %r12
	jmp	.L1637
.L1824:
	movq	%rax, %rdi
	jmp	.L1612
.L1756:
.L1948:
	movq	%rax, %r13
	jmp	.L1734
.L1812:
	movq	%rax, %rbx
	movq	%rdx, %r15
	jmp	.L1603
.L1833:
	movq	%rax, %rdi
	jmp	.L1632
.L1823:
	movq	%rax, %rdi
	jmp	.L1615
.L1830:
	movq	%rax, %rdi
	jmp	.L1623
.L1755:
.L1951:
	movq	%rax, %r13
	jmp	.L1733
.L1831:
	movq	%rax, %rdi
	jmp	.L1629
.L1825:
	movq	%rax, %rdi
	jmp	.L1609
.L1821:
	movq	%rax, %rbx
	movq	%rdx, %r12
	jmp	.L1620
.L1813:
	movq	%rax, %rbx
	movq	%rdx, %r15
	jmp	.L1600
.L1640:
	call	__cxa_call_unexpected@PLT
.L1635:
	addq	$1, %rdx
	je	.L1636
	vzeroupper
	call	_Unwind_Resume@PLT
.L1632:
	addq	$1, %rdx
	je	.L1633
	vzeroupper
	call	_Unwind_Resume@PLT
.L1636:
	vzeroupper
	call	__cxa_call_unexpected@PLT
.L1633:
	vzeroupper
	call	__cxa_call_unexpected@PLT
.L1637:
	movq	%rbx, %rdi
	vzeroupper
	call	_ZN5decaf5Ed4486ScalarD1Ev
	addq	$1, %r12
	movq	%r15, %rdi
	je	.L1638
	call	_Unwind_Resume@PLT
.L1629:
	addq	$1, %rdx
	je	.L1630
	vzeroupper
	call	_Unwind_Resume@PLT
.L1638:
	call	__cxa_call_unexpected@PLT
.L1630:
	vzeroupper
	call	__cxa_call_unexpected@PLT
.L1626:
	addq	$1, %rdx
	je	.L1627
	vzeroupper
	call	_Unwind_Resume@PLT
.L1623:
	addq	$1, %rdx
	je	.L1624
	vzeroupper
	call	_Unwind_Resume@PLT
.L1627:
	vzeroupper
	call	__cxa_call_unexpected@PLT
.L1624:
	vzeroupper
	call	__cxa_call_unexpected@PLT
.L1734:
	movq	-1000(%rbp), %rdi
	vzeroupper
	call	_ZN5decaf5Ed4486ScalarD1Ev
	movq	%rbx, %rdi
	movq	%r13, %rbx
	call	_ZN5decaf5Ed4486ScalarD1Ev
	jmp	.L1727
.L1620:
	movq	-1000(%rbp), %rdi
	vzeroupper
	call	_ZN5decaf5Ed4486ScalarD1Ev
	addq	$1, %r12
	movq	%rbx, %rdi
	je	.L1621
	call	_Unwind_Resume@PLT
.L1617:
	movq	%rbx, %rdi
	vzeroupper
	call	_ZN5decaf5Ed4486ScalarD1Ev
	addq	$1, %r12
	movq	%r15, %rdi
	je	.L1618
	call	_Unwind_Resume@PLT
.L1606:
	addq	$1, %rdx
	je	.L1607
	vzeroupper
	call	_Unwind_Resume@PLT
.L1612:
	addq	$1, %rdx
	je	.L1613
	vzeroupper
	call	_Unwind_Resume@PLT
.L1603:
	movq	-1016(%rbp), %rdi
	vzeroupper
	call	_ZN5decaf5Ed4486ScalarD1Ev
	movq	%r15, %rax
	movq	%rbx, %rdi
	addq	$1, %rax
	je	.L1604
	call	_Unwind_Resume@PLT
.L1615:
	addq	$1, %rdx
	je	.L1616
	vzeroupper
	call	_Unwind_Resume@PLT
.L1733:
	movq	-1016(%rbp), %rdi
	vzeroupper
	call	_ZN5decaf5Ed4486ScalarD1Ev
	movq	-1032(%rbp), %rdi
	jmp	.L1946
.L1609:
	addq	$1, %rdx
	je	.L1610
	vzeroupper
	call	_Unwind_Resume@PLT
.L1607:
	vzeroupper
	call	__cxa_call_unexpected@PLT
.L1610:
	vzeroupper
	call	__cxa_call_unexpected@PLT
.L1621:
	call	__cxa_call_unexpected@PLT
.L1604:
	call	__cxa_call_unexpected@PLT
.L1600:
	movq	-1032(%rbp), %rdi
	vzeroupper
	call	_ZN5decaf5Ed4486ScalarD1Ev
	movq	%r15, %rax
	movq	%rbx, %rdi
	addq	$1, %rax
	je	.L1601
	call	_Unwind_Resume@PLT
.L1613:
	vzeroupper
	call	__cxa_call_unexpected@PLT
.L1601:
	call	__cxa_call_unexpected@PLT
.L1618:
	call	__cxa_call_unexpected@PLT
.L1616:
	vzeroupper
	call	__cxa_call_unexpected@PLT
.L1814:
	movq	%rax, %r15
	movq	%rdx, %r12
	jmp	.L1597
.L1815:
	movq	%rax, %rbx
	movq	%rdx, %r12
	jmp	.L1594
.L1597:
	movq	%rbx, %rdi
	vzeroupper
	call	_ZN5decaf5Ed4486ScalarD1Ev
	addq	$1, %r12
	movq	%r15, %rdi
	je	.L1598
	call	_Unwind_Resume@PLT
.L1594:
	movq	-1000(%rbp), %rdi
	vzeroupper
	call	_ZN5decaf5Ed4486ScalarD1Ev
	addq	$1, %r12
	movq	%rbx, %rdi
	je	.L1595
	call	_Unwind_Resume@PLT
.L1598:
	call	__cxa_call_unexpected@PLT
.L1595:
	call	__cxa_call_unexpected@PLT
.L1816:
	movq	%rax, %rdi
	jmp	.L1592
.L1817:
	movq	%rax, %rdi
	jmp	.L1589
.L1592:
	addq	$1, %rdx
	je	.L1593
	vzeroupper
	call	_Unwind_Resume@PLT
.L1589:
	addq	$1, %rdx
	je	.L1590
	vzeroupper
	call	_Unwind_Resume@PLT
.L1593:
	vzeroupper
	call	__cxa_call_unexpected@PLT
.L1590:
	vzeroupper
	call	__cxa_call_unexpected@PLT
.L1818:
	movq	%rax, %rdi
	jmp	.L1586
.L1819:
	movq	%rax, %rdi
	jmp	.L1583
.L1586:
	addq	$1, %rdx
	je	.L1587
	vzeroupper
	call	_Unwind_Resume@PLT
.L1583:
	addq	$1, %rdx
	je	.L1584
	vzeroupper
	call	_Unwind_Resume@PLT
.L1587:
	vzeroupper
	call	__cxa_call_unexpected@PLT
.L1584:
	vzeroupper
	call	__cxa_call_unexpected@PLT
.L1820:
	movq	%rax, %rdi
	jmp	.L1580
.L1754:
.L1947:
	movq	%rax, %r14
	jmp	.L1732
.L1580:
	addq	$1, %rdx
	je	.L1581
	vzeroupper
	call	_Unwind_Resume@PLT
.L1732:
	movq	-1032(%rbp), %rdi
	vzeroupper
	call	_ZN5decaf5Ed4486ScalarD1Ev
	movq	%r13, %rdi
	call	_ZN5decaf5Ed4486ScalarD1Ev
	movq	%rbx, %rdi
	movq	%r14, %rbx
	call	_ZN5decaf5Ed4486ScalarD1Ev
	movq	-1016(%rbp), %rdi
	call	_ZN5decaf5Ed4486ScalarD1Ev
	movq	-1000(%rbp), %rdi
	call	_ZN5decaf5Ed4486ScalarD1Ev
	jmp	.L1727
.L1581:
	vzeroupper
	call	__cxa_call_unexpected@PLT
.L1802:
	movq	%rax, %rbx
	movq	%rdx, %r15
	jmp	.L1577
.L1803:
	movq	%rax, %rbx
	movq	%rdx, %r15
	jmp	.L1574
.L1577:
	movq	-1032(%rbp), %rdi
	vzeroupper
	call	_ZN5decaf5Ed4486ScalarD1Ev
	movq	%r15, %rax
	movq	%rbx, %rdi
	addq	$1, %rax
	je	.L1578
	call	_Unwind_Resume@PLT
.L1574:
	movq	%r13, %rdi
	vzeroupper
	call	_ZN5decaf5Ed4486ScalarD1Ev
	movq	%r15, %rax
	movq	%rbx, %rdi
	addq	$1, %rax
	je	.L1575
	call	_Unwind_Resume@PLT
.L1578:
	call	__cxa_call_unexpected@PLT
.L1575:
	call	__cxa_call_unexpected@PLT
.L1804:
	movq	%rax, %r15
	movq	%rdx, %r12
	jmp	.L1571
.L1805:
	movq	%rax, %rbx
	movq	%rdx, %r15
	jmp	.L1568
.L1571:
	movq	%rbx, %rdi
	vzeroupper
	call	_ZN5decaf5Ed4486ScalarD1Ev
	addq	$1, %r12
	movq	%r15, %rdi
	je	.L1572
	call	_Unwind_Resume@PLT
.L1568:
	movq	-1016(%rbp), %rdi
	vzeroupper
	call	_ZN5decaf5Ed4486ScalarD1Ev
	movq	%r15, %rax
	movq	%rbx, %rdi
	addq	$1, %rax
	je	.L1569
	call	_Unwind_Resume@PLT
.L1572:
	call	__cxa_call_unexpected@PLT
.L1569:
	call	__cxa_call_unexpected@PLT
.L1806:
	movq	%rax, %rbx
	movq	%rdx, %r12
	jmp	.L1565
.L1807:
	movq	%rax, %rdi
	jmp	.L1563
.L1565:
	movq	-1000(%rbp), %rdi
	vzeroupper
	call	_ZN5decaf5Ed4486ScalarD1Ev
	addq	$1, %r12
	movq	%rbx, %rdi
	je	.L1566
	call	_Unwind_Resume@PLT
.L1563:
	addq	$1, %rdx
	je	.L1564
	vzeroupper
	call	_Unwind_Resume@PLT
.L1566:
	call	__cxa_call_unexpected@PLT
.L1564:
	vzeroupper
	call	__cxa_call_unexpected@PLT
.L1808:
	movq	%rax, %rdi
	jmp	.L1560
.L1809:
	movq	%rax, %rdi
	jmp	.L1557
.L1560:
	addq	$1, %rdx
	je	.L1561
	vzeroupper
	call	_Unwind_Resume@PLT
.L1557:
	addq	$1, %rdx
	je	.L1558
	vzeroupper
	call	_Unwind_Resume@PLT
.L1561:
	vzeroupper
	call	__cxa_call_unexpected@PLT
.L1558:
	vzeroupper
	call	__cxa_call_unexpected@PLT
.L1810:
	movq	%rax, %rdi
	jmp	.L1554
.L1811:
	movq	%rax, %rdi
	jmp	.L1551
.L1554:
	addq	$1, %rdx
	je	.L1555
	vzeroupper
	call	_Unwind_Resume@PLT
.L1551:
	addq	$1, %rdx
	je	.L1552
	vzeroupper
	call	_Unwind_Resume@PLT
.L1555:
	vzeroupper
	call	__cxa_call_unexpected@PLT
.L1552:
	vzeroupper
	call	__cxa_call_unexpected@PLT
.L1753:
	jmp	.L1947
.L1793:
	movq	%rax, %rbx
	movq	%rdx, %r15
	jmp	.L1548
.L1794:
	movq	%rax, %rbx
	movq	%rdx, %r15
	jmp	.L1545
.L1796:
	movq	%rax, %rbx
	movq	%rdx, %r15
	jmp	.L1539
.L1795:
	movq	%rax, %r15
	movq	%rdx, %r12
	jmp	.L1542
.L1797:
	movq	%rax, %rbx
	movq	%rdx, %r12
	jmp	.L1536
.L1548:
	movq	-1032(%rbp), %rdi
	vzeroupper
	call	_ZN5decaf5Ed4486ScalarD1Ev
	movq	%r15, %rax
	movq	%rbx, %rdi
	addq	$1, %rax
	je	.L1549
	call	_Unwind_Resume@PLT
.L1545:
	movq	%r13, %rdi
	vzeroupper
	call	_ZN5decaf5Ed4486ScalarD1Ev
	movq	%r15, %rax
	movq	%rbx, %rdi
	addq	$1, %rax
	je	.L1546
	call	_Unwind_Resume@PLT
.L1539:
	movq	-1016(%rbp), %rdi
	vzeroupper
	call	_ZN5decaf5Ed4486ScalarD1Ev
	movq	%r15, %rax
	movq	%rbx, %rdi
	addq	$1, %rax
	je	.L1540
	call	_Unwind_Resume@PLT
.L1542:
	movq	%rbx, %rdi
	vzeroupper
	call	_ZN5decaf5Ed4486ScalarD1Ev
	addq	$1, %r12
	movq	%r15, %rdi
	je	.L1543
	call	_Unwind_Resume@PLT
.L1536:
	movq	-1000(%rbp), %rdi
	vzeroupper
	call	_ZN5decaf5Ed4486ScalarD1Ev
	addq	$1, %r12
	movq	%rbx, %rdi
	je	.L1537
	call	_Unwind_Resume@PLT
.L1549:
	call	__cxa_call_unexpected@PLT
.L1546:
	call	__cxa_call_unexpected@PLT
.L1543:
	call	__cxa_call_unexpected@PLT
.L1540:
	call	__cxa_call_unexpected@PLT
.L1537:
	call	__cxa_call_unexpected@PLT
.L1798:
	movq	%rax, %rdi
	jmp	.L1534
.L1799:
	movq	%rax, %rdi
	jmp	.L1531
.L1534:
	addq	$1, %rdx
	je	.L1535
	vzeroupper
	call	_Unwind_Resume@PLT
.L1531:
	addq	$1, %rdx
	je	.L1532
	vzeroupper
	call	_Unwind_Resume@PLT
.L1535:
	vzeroupper
	call	__cxa_call_unexpected@PLT
.L1532:
	vzeroupper
	call	__cxa_call_unexpected@PLT
.L1800:
	movq	%rax, %rdi
	jmp	.L1528
.L1801:
	movq	%rax, %rdi
	jmp	.L1525
.L1528:
	addq	$1, %rdx
	je	.L1529
	vzeroupper
	call	_Unwind_Resume@PLT
.L1525:
	addq	$1, %rdx
	je	.L1526
	vzeroupper
	call	_Unwind_Resume@PLT
.L1529:
	vzeroupper
	call	__cxa_call_unexpected@PLT
.L1526:
	vzeroupper
	call	__cxa_call_unexpected@PLT
.L1752:
	jmp	.L1951
.L1787:
	movq	%rax, %rbx
	movq	%rdx, %r15
	jmp	.L1522
.L1788:
	movq	%rax, %rbx
	movq	%rdx, %r15
	jmp	.L1519
.L1789:
	movq	%rax, %r15
	movq	%rdx, %r12
	jmp	.L1516
.L1522:
	movq	-1016(%rbp), %rdi
	vzeroupper
	call	_ZN5decaf5Ed4486ScalarD1Ev
	movq	%r15, %rax
	movq	%rbx, %rdi
	addq	$1, %rax
	je	.L1523
	call	_Unwind_Resume@PLT
.L1519:
	movq	-1032(%rbp), %rdi
	vzeroupper
	call	_ZN5decaf5Ed4486ScalarD1Ev
	movq	%r15, %rax
	movq	%rbx, %rdi
	addq	$1, %rax
	je	.L1520
	call	_Unwind_Resume@PLT
.L1516:
	movq	%rbx, %rdi
	vzeroupper
	call	_ZN5decaf5Ed4486ScalarD1Ev
	addq	$1, %r12
	movq	%r15, %rdi
	je	.L1517
	call	_Unwind_Resume@PLT
.L1523:
	call	__cxa_call_unexpected@PLT
.L1520:
	call	__cxa_call_unexpected@PLT
.L1517:
	call	__cxa_call_unexpected@PLT
.L1790:
	movq	%rax, %rbx
	movq	%rdx, %r12
	jmp	.L1513
.L1791:
	movq	%rax, %rdi
	jmp	.L1511
.L1513:
	movq	-1000(%rbp), %rdi
	vzeroupper
	call	_ZN5decaf5Ed4486ScalarD1Ev
	addq	$1, %r12
	movq	%rbx, %rdi
	je	.L1514
	call	_Unwind_Resume@PLT
.L1511:
	addq	$1, %rdx
	je	.L1512
	vzeroupper
	call	_Unwind_Resume@PLT
.L1514:
	call	__cxa_call_unexpected@PLT
.L1512:
	vzeroupper
	call	__cxa_call_unexpected@PLT
.L1792:
	movq	%rax, %rdi
	jmp	.L1508
.L1751:
	jmp	.L1949
.L1508:
	addq	$1, %rdx
	je	.L1509
	vzeroupper
	call	_Unwind_Resume@PLT
.L1784:
	movq	%rax, %r15
	movq	%rdx, %r12
	jmp	.L1505
.L1786:
	movq	%rax, %rdi
	jmp	.L1500
.L1785:
	movq	%rax, %rdi
	jmp	.L1503
.L1750:
	jmp	.L1949
.L1509:
	vzeroupper
	call	__cxa_call_unexpected@PLT
.L1500:
	addq	$1, %rdx
	je	.L1501
	vzeroupper
	call	_Unwind_Resume@PLT
.L1505:
	movq	%rbx, %rdi
	vzeroupper
	call	_ZN5decaf5Ed4486ScalarD1Ev
	addq	$1, %r12
	movq	%r15, %rdi
	je	.L1506
	call	_Unwind_Resume@PLT
.L1503:
	addq	$1, %rdx
	je	.L1504
	vzeroupper
	call	_Unwind_Resume@PLT
.L1501:
	vzeroupper
	call	__cxa_call_unexpected@PLT
.L1506:
	call	__cxa_call_unexpected@PLT
.L1504:
	vzeroupper
	call	__cxa_call_unexpected@PLT
.L1781:
	movq	%rax, %r15
	movq	%rdx, %r12
	jmp	.L1497
.L1782:
	movq	%rax, %rdi
	jmp	.L1495
.L1497:
	movq	%rbx, %rdi
	vzeroupper
	call	_ZN5decaf5Ed4486ScalarD1Ev
	addq	$1, %r12
	movq	%r15, %rdi
	je	.L1498
	call	_Unwind_Resume@PLT
.L1495:
	addq	$1, %rdx
	je	.L1496
	vzeroupper
	call	_Unwind_Resume@PLT
.L1498:
	call	__cxa_call_unexpected@PLT
.L1496:
	vzeroupper
	call	__cxa_call_unexpected@PLT
.L1783:
	movq	%rax, %rdi
	jmp	.L1492
.L1749:
	jmp	.L1948
.L1492:
	addq	$1, %rdx
	je	.L1493
	vzeroupper
	call	_Unwind_Resume@PLT
.L1777:
	movq	%rax, %rbx
	movq	%rdx, %r12
	jmp	.L1489
.L1779:
	movq	%rax, %rdi
	jmp	.L1484
.L1778:
	movq	%rax, %r15
	movq	%rdx, %r12
	jmp	.L1486
.L1780:
	movq	%rax, %rdi
	jmp	.L1481
.L1493:
	vzeroupper
	call	__cxa_call_unexpected@PLT
.L1489:
	movq	-1000(%rbp), %rdi
	vzeroupper
	call	_ZN5decaf5Ed4486ScalarD1Ev
	addq	$1, %r12
	movq	%rbx, %rdi
	je	.L1490
	call	_Unwind_Resume@PLT
.L1486:
	movq	%rbx, %rdi
	vzeroupper
	call	_ZN5decaf5Ed4486ScalarD1Ev
	addq	$1, %r12
	movq	%r15, %rdi
	je	.L1487
	call	_Unwind_Resume@PLT
.L1490:
	call	__cxa_call_unexpected@PLT
.L1487:
	call	__cxa_call_unexpected@PLT
.L1484:
	addq	$1, %rdx
	je	.L1485
	vzeroupper
	call	_Unwind_Resume@PLT
.L1481:
	addq	$1, %rdx
	je	.L1482
	vzeroupper
	call	_Unwind_Resume@PLT
.L1485:
	vzeroupper
	call	__cxa_call_unexpected@PLT
.L1482:
	vzeroupper
	call	__cxa_call_unexpected@PLT
.L1776:
	movq	%rax, %rdi
	jmp	.L1475
.L1773:
	jmp	.L1477
.L1475:
	addq	$1, %rdx
	je	.L1476
	vzeroupper
	call	_Unwind_Resume@PLT
.L1477:
	cmpq	$-2, %rdx
	je	.L1478
	movq	%rax, %rbx
	jmp	.L1479
.L1476:
	vzeroupper
	call	__cxa_call_unexpected@PLT
.LEHE330:
.L1478:
	movq	%rax, %rdi
	vzeroupper
.LEHB331:
	call	__cxa_call_unexpected@PLT
.LEHE331:
.L1774:
	movq	%rax, %rdi
	jmp	.L1472
.L1775:
	movq	%rax, %rdi
	jmp	.L1469
.L1748:
	movq	%rax, %rbx
	jmp	.L1479
.L1472:
	addq	$1, %rdx
	je	.L1473
	vzeroupper
.LEHB332:
	call	_Unwind_Resume@PLT
.L1469:
	addq	$1, %rdx
	je	.L1470
	vzeroupper
	call	_Unwind_Resume@PLT
.L1473:
	vzeroupper
	call	__cxa_call_unexpected@PLT
.L1470:
	vzeroupper
	call	__cxa_call_unexpected@PLT
.L1772:
	movq	%rax, %rdi
	jmp	.L1463
.L1769:
	jmp	.L1465
.L1463:
	addq	$1, %rdx
	je	.L1464
	vzeroupper
	call	_Unwind_Resume@PLT
.L1465:
	cmpq	$-2, %rdx
	je	.L1466
	movq	%rax, %rbx
	jmp	.L1467
.L1464:
	vzeroupper
	call	__cxa_call_unexpected@PLT
.LEHE332:
.L1466:
	movq	%rax, %rdi
	vzeroupper
.LEHB333:
	call	__cxa_call_unexpected@PLT
.LEHE333:
.L1770:
	movq	%rax, %rdi
	jmp	.L1460
.L1771:
	movq	%rax, %rdi
	jmp	.L1457
.L1747:
	movq	%rax, %rbx
	jmp	.L1467
.L1460:
	addq	$1, %rdx
	je	.L1461
	vzeroupper
.LEHB334:
	call	_Unwind_Resume@PLT
.L1457:
	addq	$1, %rdx
	je	.L1458
	vzeroupper
	call	_Unwind_Resume@PLT
.L1461:
	vzeroupper
	call	__cxa_call_unexpected@PLT
.L1458:
	vzeroupper
	call	__cxa_call_unexpected@PLT
.L1768:
	movq	%rax, %rdi
	jmp	.L1451
.L1767:
	jmp	.L1453
.L1451:
	addq	$1, %rdx
	je	.L1452
	vzeroupper
	call	_Unwind_Resume@PLT
.L1453:
	cmpq	$-2, %rdx
	je	.L1454
	movq	%rax, %rbx
	jmp	.L1455
.L1452:
	vzeroupper
	call	__cxa_call_unexpected@PLT
.LEHE334:
.L1454:
	movq	%rax, %rdi
	vzeroupper
.LEHB335:
	call	__cxa_call_unexpected@PLT
.LEHE335:
.L1746:
	movq	%rax, %r12
	jmp	.L1725
.L1765:
	movq	%rax, %rbx
	movq	%rdx, %r12
	jmp	.L1445
.L1745:
	movq	%rax, %rbx
	jmp	.L1455
.L1725:
	movq	%rbx, %rdi
	vzeroupper
	call	_ZN5decaf5Ed4486ScalarD1Ev
	movq	-1000(%rbp), %rdi
	movq	%r12, %rbx
	call	_ZN5decaf5Ed4486ScalarD1Ev
	movq	-1016(%rbp), %rdi
	call	_ZN5decaf5Ed4486ScalarD1Ev
	jmp	.L1455
.L1445:
	movq	-1000(%rbp), %rdi
	vzeroupper
	call	_ZN5decaf5Ed4486ScalarD1Ev
	addq	$1, %r12
	movq	%rbx, %rdi
	je	.L1446
.LEHB336:
	call	_Unwind_Resume@PLT
.L1766:
	movq	%rax, %rdi
	jmp	.L1443
.L1764:
	movq	%rax, %rdi
	jmp	.L1440
.L1744:
	movq	%rax, %r12
	jmp	.L1724
.L1743:
	movq	%rax, %rbx
	jmp	.L1741
.L1446:
	call	__cxa_call_unexpected@PLT
.L1440:
	addq	$1, %rdx
	je	.L1441
	vzeroupper
	call	_Unwind_Resume@PLT
.L1443:
	addq	$1, %rdx
	je	.L1444
	vzeroupper
	call	_Unwind_Resume@PLT
.L1724:
	movq	-1000(%rbp), %rdi
	vzeroupper
	call	_ZN5decaf5Ed4486ScalarD1Ev
	movq	%rbx, %rdi
	movq	%r12, %rbx
	call	_ZN5decaf5Ed4486ScalarD1Ev
	jmp	.L1455
.L1441:
	vzeroupper
	call	__cxa_call_unexpected@PLT
.L1444:
	vzeroupper
	call	__cxa_call_unexpected@PLT
.LEHE336:
	.cfi_endproc
.LFE1930:
	.section	.gcc_except_table._ZN5TestsIN5decaf5Ed448EE15test_arithmeticEv,"aG",@progbits,_ZN5TestsIN5decaf5Ed448EE15test_arithmeticEv,comdat
	.align 4
.LLSDA1930:
	.byte	0xff
	.byte	0x9b
	.uleb128 .LLSDATT1930-.LLSDATTD1930
.LLSDATTD1930:
	.byte	0x1
	.uleb128 .LLSDACSE1930-.LLSDACSB1930
.LLSDACSB1930:
	.uleb128 .LEHB212-.LFB1930
	.uleb128 .LEHE212-.LEHB212
	.uleb128 .L1763-.LFB1930
	.uleb128 0
	.uleb128 .LEHB213-.LFB1930
	.uleb128 .LEHE213-.LEHB213
	.uleb128 .L1743-.LFB1930
	.uleb128 0
	.uleb128 .LEHB214-.LFB1930
	.uleb128 .LEHE214-.LEHB214
	.uleb128 .L1764-.LFB1930
	.uleb128 0x1
	.uleb128 .LEHB215-.LFB1930
	.uleb128 .LEHE215-.LEHB215
	.uleb128 .L1744-.LFB1930
	.uleb128 0
	.uleb128 .LEHB216-.LFB1930
	.uleb128 .LEHE216-.LEHB216
	.uleb128 .L1766-.LFB1930
	.uleb128 0x1
	.uleb128 .LEHB217-.LFB1930
	.uleb128 .LEHE217-.LEHB217
	.uleb128 .L1765-.LFB1930
	.uleb128 0x3
	.uleb128 .LEHB218-.LFB1930
	.uleb128 .LEHE218-.LEHB218
	.uleb128 .L1746-.LFB1930
	.uleb128 0
	.uleb128 .LEHB219-.LFB1930
	.uleb128 .LEHE219-.LEHB219
	.uleb128 .L1767-.LFB1930
	.uleb128 0x7
	.uleb128 .LEHB220-.LFB1930
	.uleb128 .LEHE220-.LEHB220
	.uleb128 .L1768-.LFB1930
	.uleb128 0x1
	.uleb128 .LEHB221-.LFB1930
	.uleb128 .LEHE221-.LEHB221
	.uleb128 .L1771-.LFB1930
	.uleb128 0x1
	.uleb128 .LEHB222-.LFB1930
	.uleb128 .LEHE222-.LEHB222
	.uleb128 .L1770-.LFB1930
	.uleb128 0x1
	.uleb128 .LEHB223-.LFB1930
	.uleb128 .LEHE223-.LEHB223
	.uleb128 .L1769-.LFB1930
	.uleb128 0x7
	.uleb128 .LEHB224-.LFB1930
	.uleb128 .LEHE224-.LEHB224
	.uleb128 .L1772-.LFB1930
	.uleb128 0x1
	.uleb128 .LEHB225-.LFB1930
	.uleb128 .LEHE225-.LEHB225
	.uleb128 .L1775-.LFB1930
	.uleb128 0x1
	.uleb128 .LEHB226-.LFB1930
	.uleb128 .LEHE226-.LEHB226
	.uleb128 .L1774-.LFB1930
	.uleb128 0x1
	.uleb128 .LEHB227-.LFB1930
	.uleb128 .LEHE227-.LEHB227
	.uleb128 .L1773-.LFB1930
	.uleb128 0x7
	.uleb128 .LEHB228-.LFB1930
	.uleb128 .LEHE228-.LEHB228
	.uleb128 .L1776-.LFB1930
	.uleb128 0x1
	.uleb128 .LEHB229-.LFB1930
	.uleb128 .LEHE229-.LEHB229
	.uleb128 .L1780-.LFB1930
	.uleb128 0x1
	.uleb128 .LEHB230-.LFB1930
	.uleb128 .LEHE230-.LEHB230
	.uleb128 .L1779-.LFB1930
	.uleb128 0x1
	.uleb128 .LEHB231-.LFB1930
	.uleb128 .LEHE231-.LEHB231
	.uleb128 .L1778-.LFB1930
	.uleb128 0x3
	.uleb128 .LEHB232-.LFB1930
	.uleb128 .LEHE232-.LEHB232
	.uleb128 .L1777-.LFB1930
	.uleb128 0x3
	.uleb128 .LEHB233-.LFB1930
	.uleb128 .LEHE233-.LEHB233
	.uleb128 .L1749-.LFB1930
	.uleb128 0
	.uleb128 .LEHB234-.LFB1930
	.uleb128 .LEHE234-.LEHB234
	.uleb128 .L1783-.LFB1930
	.uleb128 0x1
	.uleb128 .LEHB235-.LFB1930
	.uleb128 .LEHE235-.LEHB235
	.uleb128 .L1782-.LFB1930
	.uleb128 0x1
	.uleb128 .LEHB236-.LFB1930
	.uleb128 .LEHE236-.LEHB236
	.uleb128 .L1781-.LFB1930
	.uleb128 0x3
	.uleb128 .LEHB237-.LFB1930
	.uleb128 .LEHE237-.LEHB237
	.uleb128 .L1750-.LFB1930
	.uleb128 0
	.uleb128 .LEHB238-.LFB1930
	.uleb128 .LEHE238-.LEHB238
	.uleb128 .L1786-.LFB1930
	.uleb128 0x1
	.uleb128 .LEHB239-.LFB1930
	.uleb128 .LEHE239-.LEHB239
	.uleb128 .L1785-.LFB1930
	.uleb128 0x1
	.uleb128 .LEHB240-.LFB1930
	.uleb128 .LEHE240-.LEHB240
	.uleb128 .L1784-.LFB1930
	.uleb128 0x3
	.uleb128 .LEHB241-.LFB1930
	.uleb128 .LEHE241-.LEHB241
	.uleb128 .L1751-.LFB1930
	.uleb128 0
	.uleb128 .LEHB242-.LFB1930
	.uleb128 .LEHE242-.LEHB242
	.uleb128 .L1792-.LFB1930
	.uleb128 0x1
	.uleb128 .LEHB243-.LFB1930
	.uleb128 .LEHE243-.LEHB243
	.uleb128 .L1791-.LFB1930
	.uleb128 0x1
	.uleb128 .LEHB244-.LFB1930
	.uleb128 .LEHE244-.LEHB244
	.uleb128 .L1790-.LFB1930
	.uleb128 0x3
	.uleb128 .LEHB245-.LFB1930
	.uleb128 .LEHE245-.LEHB245
	.uleb128 .L1789-.LFB1930
	.uleb128 0x3
	.uleb128 .LEHB246-.LFB1930
	.uleb128 .LEHE246-.LEHB246
	.uleb128 .L1788-.LFB1930
	.uleb128 0x3
	.uleb128 .LEHB247-.LFB1930
	.uleb128 .LEHE247-.LEHB247
	.uleb128 .L1787-.LFB1930
	.uleb128 0x3
	.uleb128 .LEHB248-.LFB1930
	.uleb128 .LEHE248-.LEHB248
	.uleb128 .L1752-.LFB1930
	.uleb128 0
	.uleb128 .LEHB249-.LFB1930
	.uleb128 .LEHE249-.LEHB249
	.uleb128 .L1801-.LFB1930
	.uleb128 0x1
	.uleb128 .LEHB250-.LFB1930
	.uleb128 .LEHE250-.LEHB250
	.uleb128 .L1800-.LFB1930
	.uleb128 0x1
	.uleb128 .LEHB251-.LFB1930
	.uleb128 .LEHE251-.LEHB251
	.uleb128 .L1799-.LFB1930
	.uleb128 0x1
	.uleb128 .LEHB252-.LFB1930
	.uleb128 .LEHE252-.LEHB252
	.uleb128 .L1798-.LFB1930
	.uleb128 0x1
	.uleb128 .LEHB253-.LFB1930
	.uleb128 .LEHE253-.LEHB253
	.uleb128 .L1797-.LFB1930
	.uleb128 0x3
	.uleb128 .LEHB254-.LFB1930
	.uleb128 .LEHE254-.LEHB254
	.uleb128 .L1796-.LFB1930
	.uleb128 0x3
	.uleb128 .LEHB255-.LFB1930
	.uleb128 .LEHE255-.LEHB255
	.uleb128 .L1795-.LFB1930
	.uleb128 0x3
	.uleb128 .LEHB256-.LFB1930
	.uleb128 .LEHE256-.LEHB256
	.uleb128 .L1794-.LFB1930
	.uleb128 0x3
	.uleb128 .LEHB257-.LFB1930
	.uleb128 .LEHE257-.LEHB257
	.uleb128 .L1793-.LFB1930
	.uleb128 0x3
	.uleb128 .LEHB258-.LFB1930
	.uleb128 .LEHE258-.LEHB258
	.uleb128 .L1753-.LFB1930
	.uleb128 0
	.uleb128 .LEHB259-.LFB1930
	.uleb128 .LEHE259-.LEHB259
	.uleb128 .L1811-.LFB1930
	.uleb128 0x1
	.uleb128 .LEHB260-.LFB1930
	.uleb128 .LEHE260-.LEHB260
	.uleb128 .L1810-.LFB1930
	.uleb128 0x1
	.uleb128 .LEHB261-.LFB1930
	.uleb128 .LEHE261-.LEHB261
	.uleb128 .L1809-.LFB1930
	.uleb128 0x1
	.uleb128 .LEHB262-.LFB1930
	.uleb128 .LEHE262-.LEHB262
	.uleb128 .L1808-.LFB1930
	.uleb128 0x1
	.uleb128 .LEHB263-.LFB1930
	.uleb128 .LEHE263-.LEHB263
	.uleb128 .L1807-.LFB1930
	.uleb128 0x1
	.uleb128 .LEHB264-.LFB1930
	.uleb128 .LEHE264-.LEHB264
	.uleb128 .L1806-.LFB1930
	.uleb128 0x3
	.uleb128 .LEHB265-.LFB1930
	.uleb128 .LEHE265-.LEHB265
	.uleb128 .L1805-.LFB1930
	.uleb128 0x3
	.uleb128 .LEHB266-.LFB1930
	.uleb128 .LEHE266-.LEHB266
	.uleb128 .L1804-.LFB1930
	.uleb128 0x3
	.uleb128 .LEHB267-.LFB1930
	.uleb128 .LEHE267-.LEHB267
	.uleb128 .L1803-.LFB1930
	.uleb128 0x3
	.uleb128 .LEHB268-.LFB1930
	.uleb128 .LEHE268-.LEHB268
	.uleb128 .L1802-.LFB1930
	.uleb128 0x3
	.uleb128 .LEHB269-.LFB1930
	.uleb128 .LEHE269-.LEHB269
	.uleb128 .L1754-.LFB1930
	.uleb128 0
	.uleb128 .LEHB270-.LFB1930
	.uleb128 .LEHE270-.LEHB270
	.uleb128 .L1820-.LFB1930
	.uleb128 0x1
	.uleb128 .LEHB271-.LFB1930
	.uleb128 .LEHE271-.LEHB271
	.uleb128 .L1819-.LFB1930
	.uleb128 0x1
	.uleb128 .LEHB272-.LFB1930
